ARM GAS  /tmp/ccrjRHai.s 			page 1


   1              		.cpu cortex-m4
   2              		.arch armv7e-m
   3              		.fpu fpv4-sp-d16
   4              		.eabi_attribute 27, 1
   5              		.eabi_attribute 28, 1
   6              		.eabi_attribute 20, 1
   7              		.eabi_attribute 21, 1
   8              		.eabi_attribute 23, 3
   9              		.eabi_attribute 24, 1
  10              		.eabi_attribute 25, 1
  11              		.eabi_attribute 26, 1
  12              		.eabi_attribute 30, 1
  13              		.eabi_attribute 34, 1
  14              		.eabi_attribute 18, 4
  15              		.file	"freertos.c"
  16              		.section	.rodata.str1.4,"aMS",%progbits,1
  17              		.align	2
  18              	.LC0:
  19 0000 55534254 		.ascii	"USBTask\000"
  19      61736B00 
  20              		.text
  21              	.Ltext0:
  22              		.cfi_sections	.debug_frame
  23              		.section	.text.mavlink_sha256_calc,"ax",%progbits
  24              		.align	1
  25              		.syntax unified
  26              		.thumb
  27              		.thumb_func
  29              	mavlink_sha256_calc:
  30              	.LVL0:
  31              	.LFB760:
  32              		.file 1 "mavlink/minimal/../mavlink_sha256.h"
   1:mavlink/minimal/../mavlink_sha256.h **** #pragma once
   2:mavlink/minimal/../mavlink_sha256.h **** 
   3:mavlink/minimal/../mavlink_sha256.h **** /*
   4:mavlink/minimal/../mavlink_sha256.h ****   sha-256 implementation for MAVLink based on Heimdal sources, with
   5:mavlink/minimal/../mavlink_sha256.h ****   modifications to suit mavlink headers
   6:mavlink/minimal/../mavlink_sha256.h ****  */
   7:mavlink/minimal/../mavlink_sha256.h **** /*
   8:mavlink/minimal/../mavlink_sha256.h ****  * Copyright (c) 1995 - 2001 Kungliga Tekniska Högskolan
   9:mavlink/minimal/../mavlink_sha256.h ****  * (Royal Institute of Technology, Stockholm, Sweden).
  10:mavlink/minimal/../mavlink_sha256.h ****  * All rights reserved.
  11:mavlink/minimal/../mavlink_sha256.h ****  * 
  12:mavlink/minimal/../mavlink_sha256.h ****  * Redistribution and use in source and binary forms, with or without
  13:mavlink/minimal/../mavlink_sha256.h ****  * modification, are permitted provided that the following conditions
  14:mavlink/minimal/../mavlink_sha256.h ****  * are met:
  15:mavlink/minimal/../mavlink_sha256.h ****  * 
  16:mavlink/minimal/../mavlink_sha256.h ****  * 1. Redistributions of source code must retain the above copyright
  17:mavlink/minimal/../mavlink_sha256.h ****  *    notice, this list of conditions and the following disclaimer.
  18:mavlink/minimal/../mavlink_sha256.h ****  * 
  19:mavlink/minimal/../mavlink_sha256.h ****  * 2. Redistributions in binary form must reproduce the above copyright
  20:mavlink/minimal/../mavlink_sha256.h ****  *    notice, this list of conditions and the following disclaimer in the
  21:mavlink/minimal/../mavlink_sha256.h ****  *    documentation and/or other materials provided with the distribution.
  22:mavlink/minimal/../mavlink_sha256.h ****  * 
  23:mavlink/minimal/../mavlink_sha256.h ****  * 3. Neither the name of the Institute nor the names of its contributors
  24:mavlink/minimal/../mavlink_sha256.h ****  *    may be used to endorse or promote products derived from this software
  25:mavlink/minimal/../mavlink_sha256.h ****  *    without specific prior written permission.
ARM GAS  /tmp/ccrjRHai.s 			page 2


  26:mavlink/minimal/../mavlink_sha256.h ****  * 
  27:mavlink/minimal/../mavlink_sha256.h ****  * THIS SOFTWARE IS PROVIDED BY THE INSTITUTE AND CONTRIBUTORS ``AS IS'' AND
  28:mavlink/minimal/../mavlink_sha256.h ****  * ANY EXPRESS OR IMPLIED WARRANTIES, INCLUDING, BUT NOT LIMITED TO, THE
  29:mavlink/minimal/../mavlink_sha256.h ****  * IMPLIED WARRANTIES OF MERCHANTABILITY AND FITNESS FOR A PARTICULAR PURPOSE
  30:mavlink/minimal/../mavlink_sha256.h ****  * ARE DISCLAIMED.  IN NO EVENT SHALL THE INSTITUTE OR CONTRIBUTORS BE LIABLE
  31:mavlink/minimal/../mavlink_sha256.h ****  * FOR ANY DIRECT, INDIRECT, INCIDENTAL, SPECIAL, EXEMPLARY, OR CONSEQUENTIAL
  32:mavlink/minimal/../mavlink_sha256.h ****  * DAMAGES (INCLUDING, BUT NOT LIMITED TO, PROCUREMENT OF SUBSTITUTE GOODS
  33:mavlink/minimal/../mavlink_sha256.h ****  * OR SERVICES; LOSS OF USE, DATA, OR PROFITS; OR BUSINESS INTERRUPTION)
  34:mavlink/minimal/../mavlink_sha256.h ****  * HOWEVER CAUSED AND ON ANY THEORY OF LIABILITY, WHETHER IN CONTRACT, STRICT
  35:mavlink/minimal/../mavlink_sha256.h ****  * LIABILITY, OR TORT (INCLUDING NEGLIGENCE OR OTHERWISE) ARISING IN ANY WAY
  36:mavlink/minimal/../mavlink_sha256.h ****  * OUT OF THE USE OF THIS SOFTWARE, EVEN IF ADVISED OF THE POSSIBILITY OF
  37:mavlink/minimal/../mavlink_sha256.h ****  * SUCH DAMAGE.
  38:mavlink/minimal/../mavlink_sha256.h ****  */
  39:mavlink/minimal/../mavlink_sha256.h **** 
  40:mavlink/minimal/../mavlink_sha256.h **** /*
  41:mavlink/minimal/../mavlink_sha256.h ****   allow implementation to provide their own sha256 with the same API
  42:mavlink/minimal/../mavlink_sha256.h **** */
  43:mavlink/minimal/../mavlink_sha256.h **** #ifndef HAVE_MAVLINK_SHA256
  44:mavlink/minimal/../mavlink_sha256.h **** 
  45:mavlink/minimal/../mavlink_sha256.h **** #ifdef MAVLINK_USE_CXX_NAMESPACE
  46:mavlink/minimal/../mavlink_sha256.h **** namespace mavlink {
  47:mavlink/minimal/../mavlink_sha256.h **** #endif
  48:mavlink/minimal/../mavlink_sha256.h **** 
  49:mavlink/minimal/../mavlink_sha256.h **** #ifndef MAVLINK_HELPER
  50:mavlink/minimal/../mavlink_sha256.h **** #define MAVLINK_HELPER
  51:mavlink/minimal/../mavlink_sha256.h **** #endif
  52:mavlink/minimal/../mavlink_sha256.h **** 
  53:mavlink/minimal/../mavlink_sha256.h **** typedef struct {
  54:mavlink/minimal/../mavlink_sha256.h ****   uint32_t sz[2];
  55:mavlink/minimal/../mavlink_sha256.h ****   uint32_t counter[8];
  56:mavlink/minimal/../mavlink_sha256.h ****   union {
  57:mavlink/minimal/../mavlink_sha256.h ****       unsigned char save_bytes[64];
  58:mavlink/minimal/../mavlink_sha256.h ****       uint32_t save_u32[16];
  59:mavlink/minimal/../mavlink_sha256.h ****   } u;
  60:mavlink/minimal/../mavlink_sha256.h **** } mavlink_sha256_ctx;
  61:mavlink/minimal/../mavlink_sha256.h **** 
  62:mavlink/minimal/../mavlink_sha256.h **** #define Ch(x,y,z) (((x) & (y)) ^ ((~(x)) & (z)))
  63:mavlink/minimal/../mavlink_sha256.h **** #define Maj(x,y,z) (((x) & (y)) ^ ((x) & (z)) ^ ((y) & (z)))
  64:mavlink/minimal/../mavlink_sha256.h **** 
  65:mavlink/minimal/../mavlink_sha256.h **** #define ROTR(x,n)   (((x)>>(n)) | ((x) << (32 - (n))))
  66:mavlink/minimal/../mavlink_sha256.h **** 
  67:mavlink/minimal/../mavlink_sha256.h **** #define Sigma0(x)	(ROTR(x,2)  ^ ROTR(x,13) ^ ROTR(x,22))
  68:mavlink/minimal/../mavlink_sha256.h **** #define Sigma1(x)	(ROTR(x,6)  ^ ROTR(x,11) ^ ROTR(x,25))
  69:mavlink/minimal/../mavlink_sha256.h **** #define sigma0(x)	(ROTR(x,7)  ^ ROTR(x,18) ^ ((x)>>3))
  70:mavlink/minimal/../mavlink_sha256.h **** #define sigma1(x)	(ROTR(x,17) ^ ROTR(x,19) ^ ((x)>>10))
  71:mavlink/minimal/../mavlink_sha256.h **** 
  72:mavlink/minimal/../mavlink_sha256.h **** static const uint32_t mavlink_sha256_constant_256[64] = {
  73:mavlink/minimal/../mavlink_sha256.h ****     0x428a2f98, 0x71374491, 0xb5c0fbcf, 0xe9b5dba5,
  74:mavlink/minimal/../mavlink_sha256.h ****     0x3956c25b, 0x59f111f1, 0x923f82a4, 0xab1c5ed5,
  75:mavlink/minimal/../mavlink_sha256.h ****     0xd807aa98, 0x12835b01, 0x243185be, 0x550c7dc3,
  76:mavlink/minimal/../mavlink_sha256.h ****     0x72be5d74, 0x80deb1fe, 0x9bdc06a7, 0xc19bf174,
  77:mavlink/minimal/../mavlink_sha256.h ****     0xe49b69c1, 0xefbe4786, 0x0fc19dc6, 0x240ca1cc,
  78:mavlink/minimal/../mavlink_sha256.h ****     0x2de92c6f, 0x4a7484aa, 0x5cb0a9dc, 0x76f988da,
  79:mavlink/minimal/../mavlink_sha256.h ****     0x983e5152, 0xa831c66d, 0xb00327c8, 0xbf597fc7,
  80:mavlink/minimal/../mavlink_sha256.h ****     0xc6e00bf3, 0xd5a79147, 0x06ca6351, 0x14292967,
  81:mavlink/minimal/../mavlink_sha256.h ****     0x27b70a85, 0x2e1b2138, 0x4d2c6dfc, 0x53380d13,
  82:mavlink/minimal/../mavlink_sha256.h ****     0x650a7354, 0x766a0abb, 0x81c2c92e, 0x92722c85,
ARM GAS  /tmp/ccrjRHai.s 			page 3


  83:mavlink/minimal/../mavlink_sha256.h ****     0xa2bfe8a1, 0xa81a664b, 0xc24b8b70, 0xc76c51a3,
  84:mavlink/minimal/../mavlink_sha256.h ****     0xd192e819, 0xd6990624, 0xf40e3585, 0x106aa070,
  85:mavlink/minimal/../mavlink_sha256.h ****     0x19a4c116, 0x1e376c08, 0x2748774c, 0x34b0bcb5,
  86:mavlink/minimal/../mavlink_sha256.h ****     0x391c0cb3, 0x4ed8aa4a, 0x5b9cca4f, 0x682e6ff3,
  87:mavlink/minimal/../mavlink_sha256.h ****     0x748f82ee, 0x78a5636f, 0x84c87814, 0x8cc70208,
  88:mavlink/minimal/../mavlink_sha256.h ****     0x90befffa, 0xa4506ceb, 0xbef9a3f7, 0xc67178f2
  89:mavlink/minimal/../mavlink_sha256.h **** };
  90:mavlink/minimal/../mavlink_sha256.h **** 
  91:mavlink/minimal/../mavlink_sha256.h **** MAVLINK_HELPER void mavlink_sha256_init(mavlink_sha256_ctx *m)
  92:mavlink/minimal/../mavlink_sha256.h **** {
  93:mavlink/minimal/../mavlink_sha256.h ****     m->sz[0] = 0;
  94:mavlink/minimal/../mavlink_sha256.h ****     m->sz[1] = 0;
  95:mavlink/minimal/../mavlink_sha256.h ****     m->counter[0] = 0x6a09e667;
  96:mavlink/minimal/../mavlink_sha256.h ****     m->counter[1] = 0xbb67ae85;
  97:mavlink/minimal/../mavlink_sha256.h ****     m->counter[2] = 0x3c6ef372;
  98:mavlink/minimal/../mavlink_sha256.h ****     m->counter[3] = 0xa54ff53a;
  99:mavlink/minimal/../mavlink_sha256.h ****     m->counter[4] = 0x510e527f;
 100:mavlink/minimal/../mavlink_sha256.h ****     m->counter[5] = 0x9b05688c;
 101:mavlink/minimal/../mavlink_sha256.h ****     m->counter[6] = 0x1f83d9ab;
 102:mavlink/minimal/../mavlink_sha256.h ****     m->counter[7] = 0x5be0cd19;
 103:mavlink/minimal/../mavlink_sha256.h **** }
 104:mavlink/minimal/../mavlink_sha256.h **** 
 105:mavlink/minimal/../mavlink_sha256.h **** static inline void mavlink_sha256_calc(mavlink_sha256_ctx *m, uint32_t *in)
 106:mavlink/minimal/../mavlink_sha256.h **** {
  33              		.loc 1 106 1 view -0
  34              		.cfi_startproc
  35              		@ args = 0, pretend = 0, frame = 288
  36              		@ frame_needed = 0, uses_anonymous_args = 0
  37              		.loc 1 106 1 is_stmt 0 view .LVU1
  38 0000 2DE9F04F 		push	{r4, r5, r6, r7, r8, r9, r10, fp, lr}
  39              	.LCFI0:
  40              		.cfi_def_cfa_offset 36
  41              		.cfi_offset 4, -36
  42              		.cfi_offset 5, -32
  43              		.cfi_offset 6, -28
  44              		.cfi_offset 7, -24
  45              		.cfi_offset 8, -20
  46              		.cfi_offset 9, -16
  47              		.cfi_offset 10, -12
  48              		.cfi_offset 11, -8
  49              		.cfi_offset 14, -4
  50 0004 C9B0     		sub	sp, sp, #292
  51              	.LCFI1:
  52              		.cfi_def_cfa_offset 328
  53 0006 8246     		mov	r10, r0
 107:mavlink/minimal/../mavlink_sha256.h ****     uint32_t AA, BB, CC, DD, EE, FF, GG, HH;
  54              		.loc 1 107 5 is_stmt 1 view .LVU2
 108:mavlink/minimal/../mavlink_sha256.h ****     uint32_t data[64];
  55              		.loc 1 108 5 view .LVU3
 109:mavlink/minimal/../mavlink_sha256.h ****     int i;
  56              		.loc 1 109 5 view .LVU4
 110:mavlink/minimal/../mavlink_sha256.h **** 
 111:mavlink/minimal/../mavlink_sha256.h ****     AA = m->counter[0];
  57              		.loc 1 111 5 view .LVU5
  58              		.loc 1 111 8 is_stmt 0 view .LVU6
  59 0008 D0F808B0 		ldr	fp, [r0, #8]
  60              	.LVL1:
ARM GAS  /tmp/ccrjRHai.s 			page 4


 112:mavlink/minimal/../mavlink_sha256.h ****     BB = m->counter[1];
  61              		.loc 1 112 5 is_stmt 1 view .LVU7
  62              		.loc 1 112 8 is_stmt 0 view .LVU8
  63 000c C368     		ldr	r3, [r0, #12]
  64 000e 0193     		str	r3, [sp, #4]
  65              	.LVL2:
 113:mavlink/minimal/../mavlink_sha256.h ****     CC = m->counter[2];
  66              		.loc 1 113 5 is_stmt 1 view .LVU9
  67              		.loc 1 113 8 is_stmt 0 view .LVU10
  68 0010 0369     		ldr	r3, [r0, #16]
  69              	.LVL3:
  70              		.loc 1 113 8 view .LVU11
  71 0012 0293     		str	r3, [sp, #8]
  72              	.LVL4:
 114:mavlink/minimal/../mavlink_sha256.h ****     DD = m->counter[3];
  73              		.loc 1 114 5 is_stmt 1 view .LVU12
  74              		.loc 1 114 8 is_stmt 0 view .LVU13
  75 0014 4369     		ldr	r3, [r0, #20]
  76              	.LVL5:
  77              		.loc 1 114 8 view .LVU14
  78 0016 0393     		str	r3, [sp, #12]
  79              	.LVL6:
 115:mavlink/minimal/../mavlink_sha256.h ****     EE = m->counter[4];
  80              		.loc 1 115 5 is_stmt 1 view .LVU15
  81              		.loc 1 115 8 is_stmt 0 view .LVU16
  82 0018 8369     		ldr	r3, [r0, #24]
  83              	.LVL7:
  84              		.loc 1 115 8 view .LVU17
  85 001a 0493     		str	r3, [sp, #16]
  86              	.LVL8:
 116:mavlink/minimal/../mavlink_sha256.h ****     FF = m->counter[5];
  87              		.loc 1 116 5 is_stmt 1 view .LVU18
  88              		.loc 1 116 8 is_stmt 0 view .LVU19
  89 001c C369     		ldr	r3, [r0, #28]
  90              	.LVL9:
  91              		.loc 1 116 8 view .LVU20
  92 001e 0593     		str	r3, [sp, #20]
  93              	.LVL10:
 117:mavlink/minimal/../mavlink_sha256.h ****     GG = m->counter[6];
  94              		.loc 1 117 5 is_stmt 1 view .LVU21
  95              		.loc 1 117 8 is_stmt 0 view .LVU22
  96 0020 036A     		ldr	r3, [r0, #32]
  97              	.LVL11:
  98              		.loc 1 117 8 view .LVU23
  99 0022 0693     		str	r3, [sp, #24]
 100              	.LVL12:
 118:mavlink/minimal/../mavlink_sha256.h ****     HH = m->counter[7];
 101              		.loc 1 118 5 is_stmt 1 view .LVU24
 102              		.loc 1 118 8 is_stmt 0 view .LVU25
 103 0024 436A     		ldr	r3, [r0, #36]
 104              	.LVL13:
 105              		.loc 1 118 8 view .LVU26
 106 0026 0793     		str	r3, [sp, #28]
 107              	.LVL14:
 119:mavlink/minimal/../mavlink_sha256.h **** 
 120:mavlink/minimal/../mavlink_sha256.h ****     for (i = 0; i < 16; ++i)
 108              		.loc 1 120 5 is_stmt 1 view .LVU27
ARM GAS  /tmp/ccrjRHai.s 			page 5


 109              		.loc 1 120 12 is_stmt 0 view .LVU28
 110 0028 0022     		movs	r2, #0
 111              		.loc 1 120 5 view .LVU29
 112 002a 05E0     		b	.L2
 113              	.LVL15:
 114              	.L3:
 121:mavlink/minimal/../mavlink_sha256.h **** 	data[i] = in[i];
 115              		.loc 1 121 2 is_stmt 1 discriminator 3 view .LVU30
 116              		.loc 1 121 14 is_stmt 0 discriminator 3 view .LVU31
 117 002c 51F82230 		ldr	r3, [r1, r2, lsl #2]
 118              		.loc 1 121 10 discriminator 3 view .LVU32
 119 0030 08A8     		add	r0, sp, #32
 120 0032 40F82230 		str	r3, [r0, r2, lsl #2]
 120:mavlink/minimal/../mavlink_sha256.h **** 	data[i] = in[i];
 121              		.loc 1 120 25 is_stmt 1 discriminator 3 view .LVU33
 122 0036 0132     		adds	r2, r2, #1
 123              	.LVL16:
 124              	.L2:
 120:mavlink/minimal/../mavlink_sha256.h **** 	data[i] = in[i];
 125              		.loc 1 120 17 discriminator 1 view .LVU34
 120:mavlink/minimal/../mavlink_sha256.h **** 	data[i] = in[i];
 126              		.loc 1 120 5 is_stmt 0 discriminator 1 view .LVU35
 127 0038 0F2A     		cmp	r2, #15
 128 003a F7DD     		ble	.L3
 122:mavlink/minimal/../mavlink_sha256.h ****     for (i = 16; i < 64; ++i)
 129              		.loc 1 122 12 view .LVU36
 130 003c 1022     		movs	r2, #16
 131              	.LVL17:
 132              		.loc 1 122 12 view .LVU37
 133 003e 22E0     		b	.L4
 134              	.LVL18:
 135              	.L5:
 123:mavlink/minimal/../mavlink_sha256.h **** 	data[i] = sigma1(data[i-2]) + data[i-7] + 
 136              		.loc 1 123 2 is_stmt 1 discriminator 3 view .LVU38
 137              		.loc 1 123 12 is_stmt 0 discriminator 3 view .LVU39
 138 0040 931E     		subs	r3, r2, #2
 139 0042 08A9     		add	r1, sp, #32
 140 0044 51F82310 		ldr	r1, [r1, r3, lsl #2]
 141 0048 4FEAF143 		ror	r3, r1, #19
 142 004c 83EA7143 		eor	r3, r3, r1, ror #17
 143 0050 83EA9123 		eor	r3, r3, r1, lsr #10
 144              		.loc 1 123 38 discriminator 3 view .LVU40
 145 0054 D11F     		subs	r1, r2, #7
 146              		.loc 1 123 36 discriminator 3 view .LVU41
 147 0056 08A8     		add	r0, sp, #32
 148 0058 50F82110 		ldr	r1, [r0, r1, lsl #2]
 149              		.loc 1 123 30 discriminator 3 view .LVU42
 150 005c 0B44     		add	r3, r3, r1
 124:mavlink/minimal/../mavlink_sha256.h **** 	    sigma0(data[i-15]) + data[i - 16];
 151              		.loc 1 124 6 discriminator 3 view .LVU43
 152 005e A2F10F01 		sub	r1, r2, #15
 153 0062 50F82100 		ldr	r0, [r0, r1, lsl #2]
 154 0066 4FEAB041 		ror	r1, r0, #18
 155 006a 81EAF011 		eor	r1, r1, r0, ror #7
 156 006e 81EAD001 		eor	r1, r1, r0, lsr #3
 123:mavlink/minimal/../mavlink_sha256.h **** 	data[i] = sigma1(data[i-2]) + data[i-7] + 
 157              		.loc 1 123 42 discriminator 3 view .LVU44
ARM GAS  /tmp/ccrjRHai.s 			page 6


 158 0072 0B44     		add	r3, r3, r1
 159              		.loc 1 124 34 discriminator 3 view .LVU45
 160 0074 A2F11001 		sub	r1, r2, #16
 161              		.loc 1 124 31 discriminator 3 view .LVU46
 162 0078 08A8     		add	r0, sp, #32
 163 007a 50F82110 		ldr	r1, [r0, r1, lsl #2]
 164              		.loc 1 124 25 discriminator 3 view .LVU47
 165 007e 0B44     		add	r3, r3, r1
 123:mavlink/minimal/../mavlink_sha256.h **** 	data[i] = sigma1(data[i-2]) + data[i-7] + 
 166              		.loc 1 123 10 discriminator 3 view .LVU48
 167 0080 40F82230 		str	r3, [r0, r2, lsl #2]
 122:mavlink/minimal/../mavlink_sha256.h ****     for (i = 16; i < 64; ++i)
 168              		.loc 1 122 26 is_stmt 1 discriminator 3 view .LVU49
 169 0084 0132     		adds	r2, r2, #1
 170              	.LVL19:
 171              	.L4:
 122:mavlink/minimal/../mavlink_sha256.h ****     for (i = 16; i < 64; ++i)
 172              		.loc 1 122 18 discriminator 1 view .LVU50
 122:mavlink/minimal/../mavlink_sha256.h ****     for (i = 16; i < 64; ++i)
 173              		.loc 1 122 5 is_stmt 0 discriminator 1 view .LVU51
 174 0086 3F2A     		cmp	r2, #63
 175 0088 DADD     		ble	.L5
 118:mavlink/minimal/../mavlink_sha256.h **** 
 176              		.loc 1 118 8 view .LVU52
 177 008a DDF81CE0 		ldr	lr, [sp, #28]
 117:mavlink/minimal/../mavlink_sha256.h ****     HH = m->counter[7];
 178              		.loc 1 117 8 view .LVU53
 179 008e 069E     		ldr	r6, [sp, #24]
 116:mavlink/minimal/../mavlink_sha256.h ****     GG = m->counter[6];
 180              		.loc 1 116 8 view .LVU54
 181 0090 059F     		ldr	r7, [sp, #20]
 115:mavlink/minimal/../mavlink_sha256.h ****     FF = m->counter[5];
 182              		.loc 1 115 8 view .LVU55
 183 0092 049A     		ldr	r2, [sp, #16]
 184              	.LVL20:
 114:mavlink/minimal/../mavlink_sha256.h ****     EE = m->counter[4];
 185              		.loc 1 114 8 view .LVU56
 186 0094 DDF80C80 		ldr	r8, [sp, #12]
 113:mavlink/minimal/../mavlink_sha256.h ****     DD = m->counter[3];
 187              		.loc 1 113 8 view .LVU57
 188 0098 029C     		ldr	r4, [sp, #8]
 112:mavlink/minimal/../mavlink_sha256.h ****     CC = m->counter[2];
 189              		.loc 1 112 8 view .LVU58
 190 009a 019D     		ldr	r5, [sp, #4]
 111:mavlink/minimal/../mavlink_sha256.h ****     BB = m->counter[1];
 191              		.loc 1 111 8 view .LVU59
 192 009c DC46     		mov	ip, fp
 125:mavlink/minimal/../mavlink_sha256.h **** 
 126:mavlink/minimal/../mavlink_sha256.h ****     for (i = 0; i < 64; i++) {
 193              		.loc 1 126 12 view .LVU60
 194 009e 0020     		movs	r0, #0
 195 00a0 2FE0     		b	.L6
 196              	.LVL21:
 197              	.L7:
 198              	.LBB24:
 127:mavlink/minimal/../mavlink_sha256.h **** 	uint32_t T1, T2;
 199              		.loc 1 127 2 is_stmt 1 discriminator 3 view .LVU61
ARM GAS  /tmp/ccrjRHai.s 			page 7


 128:mavlink/minimal/../mavlink_sha256.h **** 
 129:mavlink/minimal/../mavlink_sha256.h **** 	T1 = HH + Sigma1(EE) + Ch(EE, FF, GG) + mavlink_sha256_constant_256[i] + data[i];
 200              		.loc 1 129 2 discriminator 3 view .LVU62
 201              		.loc 1 129 12 is_stmt 0 discriminator 3 view .LVU63
 202 00a2 4FEAF223 		ror	r3, r2, #11
 203 00a6 83EAB213 		eor	r3, r3, r2, ror #6
 204 00aa 83EA7263 		eor	r3, r3, r2, ror #25
 205              		.loc 1 129 10 discriminator 3 view .LVU64
 206 00ae 7344     		add	r3, r3, lr
 207              		.loc 1 129 25 discriminator 3 view .LVU65
 208 00b0 02EA0701 		and	r1, r2, r7
 209 00b4 26EA020E 		bic	lr, r6, r2
 210              	.LVL22:
 211              		.loc 1 129 25 discriminator 3 view .LVU66
 212 00b8 81EA0E01 		eor	r1, r1, lr
 213              		.loc 1 129 23 discriminator 3 view .LVU67
 214 00bc 0B44     		add	r3, r3, r1
 215              		.loc 1 129 69 discriminator 3 view .LVU68
 216 00be 2349     		ldr	r1, .L9
 217 00c0 51F82010 		ldr	r1, [r1, r0, lsl #2]
 218              		.loc 1 129 40 discriminator 3 view .LVU69
 219 00c4 0B44     		add	r3, r3, r1
 220              		.loc 1 129 79 discriminator 3 view .LVU70
 221 00c6 08A9     		add	r1, sp, #32
 222 00c8 51F82010 		ldr	r1, [r1, r0, lsl #2]
 223              		.loc 1 129 5 discriminator 3 view .LVU71
 224 00cc 0B44     		add	r3, r3, r1
 225              	.LVL23:
 130:mavlink/minimal/../mavlink_sha256.h **** 	T2 = Sigma0(AA) + Maj(AA,BB,CC);
 226              		.loc 1 130 2 is_stmt 1 discriminator 3 view .LVU72
 227              		.loc 1 130 7 is_stmt 0 discriminator 3 view .LVU73
 228 00ce 4FEA7C31 		ror	r1, ip, #13
 229 00d2 81EABC01 		eor	r1, r1, ip, ror #2
 230 00d6 81EABC51 		eor	r1, r1, ip, ror #22
 231              		.loc 1 130 20 discriminator 3 view .LVU74
 232 00da 85EA040E 		eor	lr, r5, r4
 233 00de 0EEA0C0E 		and	lr, lr, ip
 234 00e2 05EA0409 		and	r9, r5, r4
 235 00e6 8EEA090E 		eor	lr, lr, r9
 236              		.loc 1 130 5 discriminator 3 view .LVU75
 237 00ea 7144     		add	r1, r1, lr
 238              	.LVL24:
 131:mavlink/minimal/../mavlink_sha256.h **** 			     
 132:mavlink/minimal/../mavlink_sha256.h **** 	HH = GG;
 239              		.loc 1 132 2 is_stmt 1 discriminator 3 view .LVU76
 133:mavlink/minimal/../mavlink_sha256.h **** 	GG = FF;
 240              		.loc 1 133 2 discriminator 3 view .LVU77
 134:mavlink/minimal/../mavlink_sha256.h **** 	FF = EE;
 241              		.loc 1 134 2 discriminator 3 view .LVU78
 135:mavlink/minimal/../mavlink_sha256.h **** 	EE = DD + T1;
 242              		.loc 1 135 2 discriminator 3 view .LVU79
 136:mavlink/minimal/../mavlink_sha256.h **** 	DD = CC;
 243              		.loc 1 136 2 discriminator 3 view .LVU80
 137:mavlink/minimal/../mavlink_sha256.h **** 	CC = BB;
 244              		.loc 1 137 2 discriminator 3 view .LVU81
 138:mavlink/minimal/../mavlink_sha256.h **** 	BB = AA;
 245              		.loc 1 138 2 discriminator 3 view .LVU82
ARM GAS  /tmp/ccrjRHai.s 			page 8


 139:mavlink/minimal/../mavlink_sha256.h **** 	AA = T1 + T2;
 246              		.loc 1 139 2 discriminator 3 view .LVU83
 247              		.loc 1 139 2 is_stmt 0 discriminator 3 view .LVU84
 248              	.LBE24:
 126:mavlink/minimal/../mavlink_sha256.h **** 	uint32_t T1, T2;
 249              		.loc 1 126 25 is_stmt 1 discriminator 3 view .LVU85
 126:mavlink/minimal/../mavlink_sha256.h **** 	uint32_t T1, T2;
 250              		.loc 1 126 26 is_stmt 0 discriminator 3 view .LVU86
 251 00ec 0130     		adds	r0, r0, #1
 252              	.LVL25:
 253              	.LBB25:
 132:mavlink/minimal/../mavlink_sha256.h **** 	GG = FF;
 254              		.loc 1 132 5 discriminator 3 view .LVU87
 255 00ee B646     		mov	lr, r6
 133:mavlink/minimal/../mavlink_sha256.h **** 	FF = EE;
 256              		.loc 1 133 5 discriminator 3 view .LVU88
 257 00f0 3E46     		mov	r6, r7
 258              	.LVL26:
 134:mavlink/minimal/../mavlink_sha256.h **** 	EE = DD + T1;
 259              		.loc 1 134 5 discriminator 3 view .LVU89
 260 00f2 1746     		mov	r7, r2
 261              	.LVL27:
 135:mavlink/minimal/../mavlink_sha256.h **** 	DD = CC;
 262              		.loc 1 135 5 discriminator 3 view .LVU90
 263 00f4 08EB0302 		add	r2, r8, r3
 264              	.LVL28:
 136:mavlink/minimal/../mavlink_sha256.h **** 	CC = BB;
 265              		.loc 1 136 5 discriminator 3 view .LVU91
 266 00f8 A046     		mov	r8, r4
 137:mavlink/minimal/../mavlink_sha256.h **** 	BB = AA;
 267              		.loc 1 137 5 discriminator 3 view .LVU92
 268 00fa 2C46     		mov	r4, r5
 269              	.LVL29:
 138:mavlink/minimal/../mavlink_sha256.h **** 	AA = T1 + T2;
 270              		.loc 1 138 5 discriminator 3 view .LVU93
 271 00fc 6546     		mov	r5, ip
 272              	.LVL30:
 273              		.loc 1 139 5 discriminator 3 view .LVU94
 274 00fe 03EB010C 		add	ip, r3, r1
 275              	.LVL31:
 276              	.L6:
 277              		.loc 1 139 5 discriminator 3 view .LVU95
 278              	.LBE25:
 126:mavlink/minimal/../mavlink_sha256.h **** 	uint32_t T1, T2;
 279              		.loc 1 126 17 is_stmt 1 discriminator 1 view .LVU96
 126:mavlink/minimal/../mavlink_sha256.h **** 	uint32_t T1, T2;
 280              		.loc 1 126 5 is_stmt 0 discriminator 1 view .LVU97
 281 0102 3F28     		cmp	r0, #63
 282 0104 CDDD     		ble	.L7
 140:mavlink/minimal/../mavlink_sha256.h ****     }
 141:mavlink/minimal/../mavlink_sha256.h **** 
 142:mavlink/minimal/../mavlink_sha256.h ****     m->counter[0] += AA;
 283              		.loc 1 142 5 is_stmt 1 view .LVU98
 284              		.loc 1 142 19 is_stmt 0 view .LVU99
 285 0106 0CEB0B03 		add	r3, ip, fp
 286 010a CAF80830 		str	r3, [r10, #8]
 143:mavlink/minimal/../mavlink_sha256.h ****     m->counter[1] += BB;
ARM GAS  /tmp/ccrjRHai.s 			page 9


 287              		.loc 1 143 5 is_stmt 1 view .LVU100
 288              		.loc 1 143 19 is_stmt 0 view .LVU101
 289 010e 019B     		ldr	r3, [sp, #4]
 290 0110 1D44     		add	r5, r5, r3
 291              	.LVL32:
 292              		.loc 1 143 19 view .LVU102
 293 0112 CAF80C50 		str	r5, [r10, #12]
 144:mavlink/minimal/../mavlink_sha256.h ****     m->counter[2] += CC;
 294              		.loc 1 144 5 is_stmt 1 view .LVU103
 295              		.loc 1 144 19 is_stmt 0 view .LVU104
 296 0116 029B     		ldr	r3, [sp, #8]
 297 0118 1C44     		add	r4, r4, r3
 298              	.LVL33:
 299              		.loc 1 144 19 view .LVU105
 300 011a CAF81040 		str	r4, [r10, #16]
 145:mavlink/minimal/../mavlink_sha256.h ****     m->counter[3] += DD;
 301              		.loc 1 145 5 is_stmt 1 view .LVU106
 302              		.loc 1 145 19 is_stmt 0 view .LVU107
 303 011e 039B     		ldr	r3, [sp, #12]
 304 0120 4344     		add	r3, r3, r8
 305 0122 CAF81430 		str	r3, [r10, #20]
 146:mavlink/minimal/../mavlink_sha256.h ****     m->counter[4] += EE;
 306              		.loc 1 146 5 is_stmt 1 view .LVU108
 307              		.loc 1 146 19 is_stmt 0 view .LVU109
 308 0126 049B     		ldr	r3, [sp, #16]
 309 0128 1A44     		add	r2, r2, r3
 310              	.LVL34:
 311              		.loc 1 146 19 view .LVU110
 312 012a CAF81820 		str	r2, [r10, #24]
 147:mavlink/minimal/../mavlink_sha256.h ****     m->counter[5] += FF;
 313              		.loc 1 147 5 is_stmt 1 view .LVU111
 314              		.loc 1 147 19 is_stmt 0 view .LVU112
 315 012e 059B     		ldr	r3, [sp, #20]
 316 0130 1F44     		add	r7, r7, r3
 317              	.LVL35:
 318              		.loc 1 147 19 view .LVU113
 319 0132 CAF81C70 		str	r7, [r10, #28]
 148:mavlink/minimal/../mavlink_sha256.h ****     m->counter[6] += GG;
 320              		.loc 1 148 5 is_stmt 1 view .LVU114
 321              		.loc 1 148 19 is_stmt 0 view .LVU115
 322 0136 069B     		ldr	r3, [sp, #24]
 323 0138 1E44     		add	r6, r6, r3
 324              	.LVL36:
 325              		.loc 1 148 19 view .LVU116
 326 013a CAF82060 		str	r6, [r10, #32]
 149:mavlink/minimal/../mavlink_sha256.h ****     m->counter[7] += HH;
 327              		.loc 1 149 5 is_stmt 1 view .LVU117
 328              		.loc 1 149 19 is_stmt 0 view .LVU118
 329 013e 079B     		ldr	r3, [sp, #28]
 330 0140 7344     		add	r3, r3, lr
 331 0142 CAF82430 		str	r3, [r10, #36]
 150:mavlink/minimal/../mavlink_sha256.h **** }
 332              		.loc 1 150 1 view .LVU119
 333 0146 49B0     		add	sp, sp, #292
 334              	.LCFI2:
 335              		.cfi_def_cfa_offset 36
 336              		@ sp needed
ARM GAS  /tmp/ccrjRHai.s 			page 10


 337 0148 BDE8F08F 		pop	{r4, r5, r6, r7, r8, r9, r10, fp, pc}
 338              	.LVL37:
 339              	.L10:
 340              		.loc 1 150 1 view .LVU120
 341              		.align	2
 342              	.L9:
 343 014c 00000000 		.word	.LANCHOR0
 344              		.cfi_endproc
 345              	.LFE760:
 347              		.section	.text.mavlink_sign_packet,"ax",%progbits
 348              		.align	1
 349              		.syntax unified
 350              		.thumb
 351              		.thumb_func
 353              	mavlink_sign_packet:
 354              	.LVL38:
 355              	.LFB766:
 356              		.file 2 "mavlink/minimal/../mavlink_helpers.h"
   1:mavlink/minimal/../mavlink_helpers.h **** #pragma once
   2:mavlink/minimal/../mavlink_helpers.h **** 
   3:mavlink/minimal/../mavlink_helpers.h **** #include "string.h"
   4:mavlink/minimal/../mavlink_helpers.h **** #include "checksum.h"
   5:mavlink/minimal/../mavlink_helpers.h **** #include "mavlink_types.h"
   6:mavlink/minimal/../mavlink_helpers.h **** #include "mavlink_conversions.h"
   7:mavlink/minimal/../mavlink_helpers.h **** #include <stdio.h>
   8:mavlink/minimal/../mavlink_helpers.h **** 
   9:mavlink/minimal/../mavlink_helpers.h **** #ifndef MAVLINK_HELPER
  10:mavlink/minimal/../mavlink_helpers.h **** #define MAVLINK_HELPER
  11:mavlink/minimal/../mavlink_helpers.h **** #endif
  12:mavlink/minimal/../mavlink_helpers.h **** 
  13:mavlink/minimal/../mavlink_helpers.h **** #include "mavlink_sha256.h"
  14:mavlink/minimal/../mavlink_helpers.h **** 
  15:mavlink/minimal/../mavlink_helpers.h **** #ifdef MAVLINK_USE_CXX_NAMESPACE
  16:mavlink/minimal/../mavlink_helpers.h **** namespace mavlink {
  17:mavlink/minimal/../mavlink_helpers.h **** #endif
  18:mavlink/minimal/../mavlink_helpers.h **** 
  19:mavlink/minimal/../mavlink_helpers.h **** /*
  20:mavlink/minimal/../mavlink_helpers.h ****  * Internal function to give access to the channel status for each channel
  21:mavlink/minimal/../mavlink_helpers.h ****  */
  22:mavlink/minimal/../mavlink_helpers.h **** #ifndef MAVLINK_GET_CHANNEL_STATUS
  23:mavlink/minimal/../mavlink_helpers.h **** MAVLINK_HELPER mavlink_status_t* mavlink_get_channel_status(uint8_t chan)
  24:mavlink/minimal/../mavlink_helpers.h **** {
  25:mavlink/minimal/../mavlink_helpers.h **** #ifdef MAVLINK_EXTERNAL_RX_STATUS
  26:mavlink/minimal/../mavlink_helpers.h **** 	// No m_mavlink_status array defined in function,
  27:mavlink/minimal/../mavlink_helpers.h **** 	// has to be defined externally
  28:mavlink/minimal/../mavlink_helpers.h **** #else
  29:mavlink/minimal/../mavlink_helpers.h **** 	static mavlink_status_t m_mavlink_status[MAVLINK_COMM_NUM_BUFFERS];
  30:mavlink/minimal/../mavlink_helpers.h **** #endif
  31:mavlink/minimal/../mavlink_helpers.h **** 	return &m_mavlink_status[chan];
  32:mavlink/minimal/../mavlink_helpers.h **** }
  33:mavlink/minimal/../mavlink_helpers.h **** #endif
  34:mavlink/minimal/../mavlink_helpers.h **** 
  35:mavlink/minimal/../mavlink_helpers.h **** /*
  36:mavlink/minimal/../mavlink_helpers.h ****  * Internal function to give access to the channel buffer for each channel
  37:mavlink/minimal/../mavlink_helpers.h ****  */
  38:mavlink/minimal/../mavlink_helpers.h **** #ifndef MAVLINK_GET_CHANNEL_BUFFER
  39:mavlink/minimal/../mavlink_helpers.h **** MAVLINK_HELPER mavlink_message_t* mavlink_get_channel_buffer(uint8_t chan)
ARM GAS  /tmp/ccrjRHai.s 			page 11


  40:mavlink/minimal/../mavlink_helpers.h **** {
  41:mavlink/minimal/../mavlink_helpers.h **** 	
  42:mavlink/minimal/../mavlink_helpers.h **** #ifdef MAVLINK_EXTERNAL_RX_BUFFER
  43:mavlink/minimal/../mavlink_helpers.h **** 	// No m_mavlink_buffer array defined in function,
  44:mavlink/minimal/../mavlink_helpers.h **** 	// has to be defined externally
  45:mavlink/minimal/../mavlink_helpers.h **** #else
  46:mavlink/minimal/../mavlink_helpers.h **** 	static mavlink_message_t m_mavlink_buffer[MAVLINK_COMM_NUM_BUFFERS];
  47:mavlink/minimal/../mavlink_helpers.h **** #endif
  48:mavlink/minimal/../mavlink_helpers.h **** 	return &m_mavlink_buffer[chan];
  49:mavlink/minimal/../mavlink_helpers.h **** }
  50:mavlink/minimal/../mavlink_helpers.h **** #endif // MAVLINK_GET_CHANNEL_BUFFER
  51:mavlink/minimal/../mavlink_helpers.h **** 
  52:mavlink/minimal/../mavlink_helpers.h **** /* Enable this option to check the length of each message.
  53:mavlink/minimal/../mavlink_helpers.h ****     This allows invalid messages to be caught much sooner. Use if the transmission
  54:mavlink/minimal/../mavlink_helpers.h ****     medium is prone to missing (or extra) characters (e.g. a radio that fades in
  55:mavlink/minimal/../mavlink_helpers.h ****     and out). Only use if the channel will only contain messages types listed in
  56:mavlink/minimal/../mavlink_helpers.h ****     the headers.
  57:mavlink/minimal/../mavlink_helpers.h **** */
  58:mavlink/minimal/../mavlink_helpers.h **** //#define MAVLINK_CHECK_MESSAGE_LENGTH
  59:mavlink/minimal/../mavlink_helpers.h **** 
  60:mavlink/minimal/../mavlink_helpers.h **** /**
  61:mavlink/minimal/../mavlink_helpers.h ****  * @brief Reset the status of a channel.
  62:mavlink/minimal/../mavlink_helpers.h ****  */
  63:mavlink/minimal/../mavlink_helpers.h **** MAVLINK_HELPER void mavlink_reset_channel_status(uint8_t chan)
  64:mavlink/minimal/../mavlink_helpers.h **** {
  65:mavlink/minimal/../mavlink_helpers.h **** 	mavlink_status_t *status = mavlink_get_channel_status(chan);
  66:mavlink/minimal/../mavlink_helpers.h **** 	status->parse_state = MAVLINK_PARSE_STATE_IDLE;
  67:mavlink/minimal/../mavlink_helpers.h **** }
  68:mavlink/minimal/../mavlink_helpers.h **** 
  69:mavlink/minimal/../mavlink_helpers.h **** #ifndef MAVLINK_NO_SIGN_PACKET
  70:mavlink/minimal/../mavlink_helpers.h **** /**
  71:mavlink/minimal/../mavlink_helpers.h ****  * @brief create a signature block for a packet
  72:mavlink/minimal/../mavlink_helpers.h ****  */
  73:mavlink/minimal/../mavlink_helpers.h **** MAVLINK_HELPER uint8_t mavlink_sign_packet(mavlink_signing_t *signing,
  74:mavlink/minimal/../mavlink_helpers.h **** 					   uint8_t signature[MAVLINK_SIGNATURE_BLOCK_LEN],
  75:mavlink/minimal/../mavlink_helpers.h **** 					   const uint8_t *header, uint8_t header_len,
  76:mavlink/minimal/../mavlink_helpers.h **** 					   const uint8_t *packet, uint8_t packet_len,
  77:mavlink/minimal/../mavlink_helpers.h **** 					   const uint8_t crc[2])
  78:mavlink/minimal/../mavlink_helpers.h **** {
 357              		.loc 2 78 1 is_stmt 1 view -0
 358              		.cfi_startproc
 359              		@ args = 12, pretend = 0, frame = 256
 360              		@ frame_needed = 0, uses_anonymous_args = 0
 361              		.loc 2 78 1 is_stmt 0 view .LVU122
 362 0000 2DE9F04F 		push	{r4, r5, r6, r7, r8, r9, r10, fp, lr}
 363              	.LCFI3:
 364              		.cfi_def_cfa_offset 36
 365              		.cfi_offset 4, -36
 366              		.cfi_offset 5, -32
 367              		.cfi_offset 6, -28
 368              		.cfi_offset 7, -24
 369              		.cfi_offset 8, -20
 370              		.cfi_offset 9, -16
 371              		.cfi_offset 10, -12
 372              		.cfi_offset 11, -8
 373              		.cfi_offset 14, -4
 374 0004 C1B0     		sub	sp, sp, #260
ARM GAS  /tmp/ccrjRHai.s 			page 12


 375              	.LCFI4:
 376              		.cfi_def_cfa_offset 296
 377 0006 0091     		str	r1, [sp]
 378 0008 0193     		str	r3, [sp, #4]
 379 000a DDF82891 		ldr	r9, [sp, #296]
 380 000e 9DF82CA1 		ldrb	r10, [sp, #300]	@ zero_extendqisi2
 381 0012 DDF83081 		ldr	r8, [sp, #304]
  79:mavlink/minimal/../mavlink_helpers.h **** 	mavlink_sha256_ctx ctx;
 382              		.loc 2 79 2 is_stmt 1 view .LVU123
  80:mavlink/minimal/../mavlink_helpers.h **** 	union {
 383              		.loc 2 80 2 view .LVU124
  81:mavlink/minimal/../mavlink_helpers.h **** 	    uint64_t t64;
  82:mavlink/minimal/../mavlink_helpers.h **** 	    uint8_t t8[8];
  83:mavlink/minimal/../mavlink_helpers.h **** 	} tstamp;
  84:mavlink/minimal/../mavlink_helpers.h **** 	if (signing == NULL || !(signing->flags & MAVLINK_SIGNING_FLAG_SIGN_OUTGOING)) {
 384              		.loc 2 84 2 view .LVU125
 385              		.loc 2 84 5 is_stmt 0 view .LVU126
 386 0016 0028     		cmp	r0, #0
 387 0018 00F00982 		beq	.L55
 388 001c 1746     		mov	r7, r2
 389 001e 8346     		mov	fp, r0
 390              		.loc 2 84 34 discriminator 1 view .LVU127
 391 0020 0078     		ldrb	r0, [r0]	@ zero_extendqisi2
 392              	.LVL39:
 393              		.loc 2 84 22 discriminator 1 view .LVU128
 394 0022 10F00100 		ands	r0, r0, #1
 395 0026 02D1     		bne	.L69
 396              	.LVL40:
 397              	.L12:
  85:mavlink/minimal/../mavlink_helpers.h **** 	    return 0;
  86:mavlink/minimal/../mavlink_helpers.h **** 	}
  87:mavlink/minimal/../mavlink_helpers.h **** 	signature[0] = signing->link_id;
  88:mavlink/minimal/../mavlink_helpers.h **** 	tstamp.t64 = signing->timestamp;
  89:mavlink/minimal/../mavlink_helpers.h **** 	memcpy(&signature[1], tstamp.t8, 6);
  90:mavlink/minimal/../mavlink_helpers.h **** 	signing->timestamp++;
  91:mavlink/minimal/../mavlink_helpers.h **** 	
  92:mavlink/minimal/../mavlink_helpers.h **** 	mavlink_sha256_init(&ctx);
  93:mavlink/minimal/../mavlink_helpers.h **** 	mavlink_sha256_update(&ctx, signing->secret_key, sizeof(signing->secret_key));
  94:mavlink/minimal/../mavlink_helpers.h **** 	mavlink_sha256_update(&ctx, header, header_len);
  95:mavlink/minimal/../mavlink_helpers.h **** 	mavlink_sha256_update(&ctx, packet, packet_len);
  96:mavlink/minimal/../mavlink_helpers.h **** 	mavlink_sha256_update(&ctx, crc, 2);
  97:mavlink/minimal/../mavlink_helpers.h **** 	mavlink_sha256_update(&ctx, signature, 7);
  98:mavlink/minimal/../mavlink_helpers.h **** 	mavlink_sha256_final_48(&ctx, &signature[7]);
  99:mavlink/minimal/../mavlink_helpers.h **** 	
 100:mavlink/minimal/../mavlink_helpers.h **** 	return MAVLINK_SIGNATURE_BLOCK_LEN;
 101:mavlink/minimal/../mavlink_helpers.h **** }
 398              		.loc 2 101 1 view .LVU129
 399 0028 41B0     		add	sp, sp, #260
 400              	.LCFI5:
 401              		.cfi_remember_state
 402              		.cfi_def_cfa_offset 36
 403              	.LVL41:
 404              		.loc 2 101 1 view .LVU130
 405              		@ sp needed
 406 002a BDE8F08F 		pop	{r4, r5, r6, r7, r8, r9, r10, fp, pc}
 407              	.LVL42:
 408              	.L69:
ARM GAS  /tmp/ccrjRHai.s 			page 13


 409              	.LCFI6:
 410              		.cfi_restore_state
  87:mavlink/minimal/../mavlink_helpers.h **** 	tstamp.t64 = signing->timestamp;
 411              		.loc 2 87 2 is_stmt 1 view .LVU131
  87:mavlink/minimal/../mavlink_helpers.h **** 	tstamp.t64 = signing->timestamp;
 412              		.loc 2 87 24 is_stmt 0 view .LVU132
 413 002e 9BF80120 		ldrb	r2, [fp, #1]	@ zero_extendqisi2
 414              	.LVL43:
  87:mavlink/minimal/../mavlink_helpers.h **** 	tstamp.t64 = signing->timestamp;
 415              		.loc 2 87 15 view .LVU133
 416 0032 0C46     		mov	r4, r1
 417 0034 0B46     		mov	r3, r1
 418              	.LVL44:
  87:mavlink/minimal/../mavlink_helpers.h **** 	tstamp.t64 = signing->timestamp;
 419              		.loc 2 87 15 view .LVU134
 420 0036 03F8012B 		strb	r2, [r3], #1
  88:mavlink/minimal/../mavlink_helpers.h **** 	memcpy(&signature[1], tstamp.t8, 6);
 421              		.loc 2 88 2 is_stmt 1 view .LVU135
  88:mavlink/minimal/../mavlink_helpers.h **** 	memcpy(&signature[1], tstamp.t8, 6);
 422              		.loc 2 88 22 is_stmt 0 view .LVU136
 423 003a DBE90201 		ldrd	r0, [fp, #8]
  88:mavlink/minimal/../mavlink_helpers.h **** 	memcpy(&signature[1], tstamp.t8, 6);
 424              		.loc 2 88 13 view .LVU137
 425 003e CDE92401 		strd	r0, [sp, #144]
  89:mavlink/minimal/../mavlink_helpers.h **** 	signing->timestamp++;
 426              		.loc 2 89 2 is_stmt 1 view .LVU138
 427 0042 2498     		ldr	r0, [sp, #144]
 428 0044 C4F80100 		str	r0, [r4, #1]	@ unaligned
 429 0048 BDF89420 		ldrh	r2, [sp, #148]	@ unaligned
 430 004c 9A80     		strh	r2, [r3, #4]	@ unaligned
  90:mavlink/minimal/../mavlink_helpers.h **** 	
 431              		.loc 2 90 2 view .LVU139
  90:mavlink/minimal/../mavlink_helpers.h **** 	
 432              		.loc 2 90 9 is_stmt 0 view .LVU140
 433 004e DBF80830 		ldr	r3, [fp, #8]
 434 0052 DBF80C20 		ldr	r2, [fp, #12]
  90:mavlink/minimal/../mavlink_helpers.h **** 	
 435              		.loc 2 90 20 view .LVU141
 436 0056 0133     		adds	r3, r3, #1
 437 0058 42F10002 		adc	r2, r2, #0
 438 005c CBF80830 		str	r3, [fp, #8]
 439 0060 CBF80C20 		str	r2, [fp, #12]
  92:mavlink/minimal/../mavlink_helpers.h **** 	mavlink_sha256_update(&ctx, signing->secret_key, sizeof(signing->secret_key));
 440              		.loc 2 92 2 is_stmt 1 view .LVU142
 441              	.LVL45:
 442              	.LBB60:
 443              	.LBI60:
  91:mavlink/minimal/../mavlink_sha256.h **** {
 444              		.loc 1 91 21 view .LVU143
 445              	.LBB61:
  93:mavlink/minimal/../mavlink_sha256.h ****     m->sz[1] = 0;
 446              		.loc 1 93 5 view .LVU144
  93:mavlink/minimal/../mavlink_sha256.h ****     m->sz[1] = 0;
 447              		.loc 1 93 14 is_stmt 0 view .LVU145
 448 0064 0023     		movs	r3, #0
 449 0066 2693     		str	r3, [sp, #152]
  94:mavlink/minimal/../mavlink_sha256.h ****     m->counter[0] = 0x6a09e667;
ARM GAS  /tmp/ccrjRHai.s 			page 14


 450              		.loc 1 94 5 is_stmt 1 view .LVU146
  94:mavlink/minimal/../mavlink_sha256.h ****     m->counter[0] = 0x6a09e667;
 451              		.loc 1 94 14 is_stmt 0 view .LVU147
 452 0068 2793     		str	r3, [sp, #156]
  95:mavlink/minimal/../mavlink_sha256.h ****     m->counter[1] = 0xbb67ae85;
 453              		.loc 1 95 5 is_stmt 1 view .LVU148
  95:mavlink/minimal/../mavlink_sha256.h ****     m->counter[1] = 0xbb67ae85;
 454              		.loc 1 95 19 is_stmt 0 view .LVU149
 455 006a 9D4B     		ldr	r3, .L86
 456 006c 2893     		str	r3, [sp, #160]
  96:mavlink/minimal/../mavlink_sha256.h ****     m->counter[2] = 0x3c6ef372;
 457              		.loc 1 96 5 is_stmt 1 view .LVU150
  96:mavlink/minimal/../mavlink_sha256.h ****     m->counter[2] = 0x3c6ef372;
 458              		.loc 1 96 19 is_stmt 0 view .LVU151
 459 006e 9D4B     		ldr	r3, .L86+4
 460 0070 2993     		str	r3, [sp, #164]
  97:mavlink/minimal/../mavlink_sha256.h ****     m->counter[3] = 0xa54ff53a;
 461              		.loc 1 97 5 is_stmt 1 view .LVU152
  97:mavlink/minimal/../mavlink_sha256.h ****     m->counter[3] = 0xa54ff53a;
 462              		.loc 1 97 19 is_stmt 0 view .LVU153
 463 0072 9D4B     		ldr	r3, .L86+8
 464 0074 2A93     		str	r3, [sp, #168]
  98:mavlink/minimal/../mavlink_sha256.h ****     m->counter[4] = 0x510e527f;
 465              		.loc 1 98 5 is_stmt 1 view .LVU154
  98:mavlink/minimal/../mavlink_sha256.h ****     m->counter[4] = 0x510e527f;
 466              		.loc 1 98 19 is_stmt 0 view .LVU155
 467 0076 9D4B     		ldr	r3, .L86+12
 468 0078 2B93     		str	r3, [sp, #172]
  99:mavlink/minimal/../mavlink_sha256.h ****     m->counter[5] = 0x9b05688c;
 469              		.loc 1 99 5 is_stmt 1 view .LVU156
  99:mavlink/minimal/../mavlink_sha256.h ****     m->counter[5] = 0x9b05688c;
 470              		.loc 1 99 19 is_stmt 0 view .LVU157
 471 007a 9D4B     		ldr	r3, .L86+16
 472 007c 2C93     		str	r3, [sp, #176]
 100:mavlink/minimal/../mavlink_sha256.h ****     m->counter[6] = 0x1f83d9ab;
 473              		.loc 1 100 5 is_stmt 1 view .LVU158
 100:mavlink/minimal/../mavlink_sha256.h ****     m->counter[6] = 0x1f83d9ab;
 474              		.loc 1 100 19 is_stmt 0 view .LVU159
 475 007e 9D4B     		ldr	r3, .L86+20
 476 0080 2D93     		str	r3, [sp, #180]
 101:mavlink/minimal/../mavlink_sha256.h ****     m->counter[7] = 0x5be0cd19;
 477              		.loc 1 101 5 is_stmt 1 view .LVU160
 101:mavlink/minimal/../mavlink_sha256.h ****     m->counter[7] = 0x5be0cd19;
 478              		.loc 1 101 19 is_stmt 0 view .LVU161
 479 0082 9D4B     		ldr	r3, .L86+24
 480 0084 2E93     		str	r3, [sp, #184]
 102:mavlink/minimal/../mavlink_sha256.h **** }
 481              		.loc 1 102 5 is_stmt 1 view .LVU162
 102:mavlink/minimal/../mavlink_sha256.h **** }
 482              		.loc 1 102 19 is_stmt 0 view .LVU163
 483 0086 03F17453 		add	r3, r3, #1023410176
 484 008a A3F52303 		sub	r3, r3, #10682368
 485 008e A3F69243 		subw	r3, r3, #3218
 486 0092 2F93     		str	r3, [sp, #188]
 487              	.LVL46:
 102:mavlink/minimal/../mavlink_sha256.h **** }
 488              		.loc 1 102 19 view .LVU164
ARM GAS  /tmp/ccrjRHai.s 			page 15


 489              	.LBE61:
 490              	.LBE60:
  93:mavlink/minimal/../mavlink_helpers.h **** 	mavlink_sha256_update(&ctx, header, header_len);
 491              		.loc 2 93 2 is_stmt 1 view .LVU165
  93:mavlink/minimal/../mavlink_helpers.h **** 	mavlink_sha256_update(&ctx, header, header_len);
 492              		.loc 2 93 37 is_stmt 0 view .LVU166
 493 0094 0BF1100B 		add	fp, fp, #16
 494              	.LVL47:
 495              	.LBB62:
 496              	.LBI62:
 151:mavlink/minimal/../mavlink_sha256.h **** 
 152:mavlink/minimal/../mavlink_sha256.h **** MAVLINK_HELPER void mavlink_sha256_update(mavlink_sha256_ctx *m, const void *v, uint32_t len)
 497              		.loc 1 152 21 is_stmt 1 view .LVU167
 498              	.LBB63:
 153:mavlink/minimal/../mavlink_sha256.h **** {
 154:mavlink/minimal/../mavlink_sha256.h ****     const unsigned char *p = (const unsigned char *)v;
 499              		.loc 1 154 5 view .LVU168
 155:mavlink/minimal/../mavlink_sha256.h ****     uint32_t old_sz = m->sz[0];
 500              		.loc 1 155 5 view .LVU169
 156:mavlink/minimal/../mavlink_sha256.h ****     uint32_t offset;
 501              		.loc 1 156 5 view .LVU170
 157:mavlink/minimal/../mavlink_sha256.h **** 
 158:mavlink/minimal/../mavlink_sha256.h ****     m->sz[0] += len * 8;
 502              		.loc 1 158 5 view .LVU171
 503              		.loc 1 158 14 is_stmt 0 view .LVU172
 504 0098 4FF48073 		mov	r3, #256
 505 009c 2693     		str	r3, [sp, #152]
 159:mavlink/minimal/../mavlink_sha256.h ****     if (m->sz[0] < old_sz)
 506              		.loc 1 159 5 is_stmt 1 view .LVU173
 160:mavlink/minimal/../mavlink_sha256.h **** 	++m->sz[1];
 161:mavlink/minimal/../mavlink_sha256.h ****     offset = (old_sz / 8) % 64;
 507              		.loc 1 161 5 view .LVU174
 508              		.loc 1 161 12 is_stmt 0 view .LVU175
 509 009e 0025     		movs	r5, #0
 510              	.LVL48:
 162:mavlink/minimal/../mavlink_sha256.h ****     while(len > 0){
 511              		.loc 1 162 5 is_stmt 1 view .LVU176
 512              		.loc 1 162 10 is_stmt 0 view .LVU177
 513 00a0 2026     		movs	r6, #32
 514 00a2 0AE0     		b	.L14
 515              	.LVL49:
 516              	.L15:
 517              	.LBB64:
 163:mavlink/minimal/../mavlink_sha256.h **** 	uint32_t l = 64 - offset;
 164:mavlink/minimal/../mavlink_sha256.h ****         if (len < l) {
 165:mavlink/minimal/../mavlink_sha256.h ****             l = len;
 166:mavlink/minimal/../mavlink_sha256.h ****         }
 167:mavlink/minimal/../mavlink_sha256.h **** 	memcpy(m->u.save_bytes + offset, p, l);
 518              		.loc 1 167 2 is_stmt 1 view .LVU178
 519 00a4 2246     		mov	r2, r4
 520 00a6 5946     		mov	r1, fp
 521 00a8 30AB     		add	r3, sp, #192
 522 00aa 5819     		adds	r0, r3, r5
 523 00ac FFF7FEFF 		bl	memcpy
 524              	.LVL50:
 168:mavlink/minimal/../mavlink_sha256.h **** 	offset += l;
 525              		.loc 1 168 2 view .LVU179
ARM GAS  /tmp/ccrjRHai.s 			page 16


 526              		.loc 1 168 9 is_stmt 0 view .LVU180
 527 00b0 2544     		add	r5, r5, r4
 528              	.LVL51:
 169:mavlink/minimal/../mavlink_sha256.h **** 	p += l;
 529              		.loc 1 169 2 is_stmt 1 view .LVU181
 530              		.loc 1 169 4 is_stmt 0 view .LVU182
 531 00b2 A344     		add	fp, fp, r4
 532              	.LVL52:
 170:mavlink/minimal/../mavlink_sha256.h **** 	len -= l;
 533              		.loc 1 170 2 is_stmt 1 view .LVU183
 534              		.loc 1 170 6 is_stmt 0 view .LVU184
 535 00b4 361B     		subs	r6, r6, r4
 536              	.LVL53:
 171:mavlink/minimal/../mavlink_sha256.h **** 	if(offset == 64){
 537              		.loc 1 171 2 is_stmt 1 view .LVU185
 538              		.loc 1 171 4 is_stmt 0 view .LVU186
 539 00b6 402D     		cmp	r5, #64
 540 00b8 06D0     		beq	.L70
 541              	.LVL54:
 542              	.L14:
 543              		.loc 1 171 4 view .LVU187
 544              	.LBE64:
 162:mavlink/minimal/../mavlink_sha256.h **** 	uint32_t l = 64 - offset;
 545              		.loc 1 162 10 is_stmt 1 view .LVU188
 546 00ba 06B3     		cbz	r6, .L71
 547              	.LBB67:
 163:mavlink/minimal/../mavlink_sha256.h ****         if (len < l) {
 548              		.loc 1 163 2 view .LVU189
 163:mavlink/minimal/../mavlink_sha256.h ****         if (len < l) {
 549              		.loc 1 163 11 is_stmt 0 view .LVU190
 550 00bc C5F14004 		rsb	r4, r5, #64
 551              	.LVL55:
 164:mavlink/minimal/../mavlink_sha256.h ****             l = len;
 552              		.loc 1 164 9 is_stmt 1 view .LVU191
 164:mavlink/minimal/../mavlink_sha256.h ****             l = len;
 553              		.loc 1 164 12 is_stmt 0 view .LVU192
 554 00c0 B442     		cmp	r4, r6
 555 00c2 EFD9     		bls	.L15
 165:mavlink/minimal/../mavlink_sha256.h ****         }
 556              		.loc 1 165 15 view .LVU193
 557 00c4 3446     		mov	r4, r6
 558              	.LVL56:
 165:mavlink/minimal/../mavlink_sha256.h ****         }
 559              		.loc 1 165 15 view .LVU194
 560 00c6 EDE7     		b	.L15
 561              	.LVL57:
 562              	.L70:
 563              	.LBB65:
 172:mavlink/minimal/../mavlink_sha256.h **** 	    int i;
 173:mavlink/minimal/../mavlink_sha256.h **** 	    uint32_t current[16];
 174:mavlink/minimal/../mavlink_sha256.h **** 	    const uint32_t *u = m->u.save_u32;
 175:mavlink/minimal/../mavlink_sha256.h **** 	    for (i = 0; i < 16; i++){
 564              		.loc 1 175 13 view .LVU195
 565 00c8 0023     		movs	r3, #0
 566              	.LVL58:
 567              	.L16:
 568              		.loc 1 175 18 is_stmt 1 view .LVU196
ARM GAS  /tmp/ccrjRHai.s 			page 17


 569              		.loc 1 175 6 is_stmt 0 view .LVU197
 570 00ca 0F2B     		cmp	r3, #15
 571 00cc 11DC     		bgt	.L72
 572              	.LBB66:
 176:mavlink/minimal/../mavlink_sha256.h ****                 const uint8_t *p1 = (const uint8_t *)&u[i];
 573              		.loc 1 176 17 is_stmt 1 view .LVU198
 574              		.loc 1 176 32 is_stmt 0 view .LVU199
 575 00ce 30A8     		add	r0, sp, #192
 576 00d0 00EB8301 		add	r1, r0, r3, lsl #2
 577              	.LVL59:
 177:mavlink/minimal/../mavlink_sha256.h ****                 uint8_t *p2 = (uint8_t *)&current[i];
 578              		.loc 1 177 17 is_stmt 1 view .LVU200
 579              		.loc 1 177 26 is_stmt 0 view .LVU201
 580 00d4 12AC     		add	r4, sp, #72
 581 00d6 04EB8302 		add	r2, r4, r3, lsl #2
 582              	.LVL60:
 178:mavlink/minimal/../mavlink_sha256.h ****                 p2[0] = p1[3];
 583              		.loc 1 178 17 is_stmt 1 view .LVU202
 584              		.loc 1 178 23 is_stmt 0 view .LVU203
 585 00da CD78     		ldrb	r5, [r1, #3]	@ zero_extendqisi2
 586 00dc 04F82350 		strb	r5, [r4, r3, lsl #2]
 179:mavlink/minimal/../mavlink_sha256.h ****                 p2[1] = p1[2];
 587              		.loc 1 179 17 is_stmt 1 view .LVU204
 588              		.loc 1 179 23 is_stmt 0 view .LVU205
 589 00e0 8C78     		ldrb	r4, [r1, #2]	@ zero_extendqisi2
 590 00e2 5470     		strb	r4, [r2, #1]
 180:mavlink/minimal/../mavlink_sha256.h ****                 p2[2] = p1[1];
 591              		.loc 1 180 17 is_stmt 1 view .LVU206
 592              		.loc 1 180 23 is_stmt 0 view .LVU207
 593 00e4 4978     		ldrb	r1, [r1, #1]	@ zero_extendqisi2
 594              	.LVL61:
 595              		.loc 1 180 23 view .LVU208
 596 00e6 9170     		strb	r1, [r2, #2]
 181:mavlink/minimal/../mavlink_sha256.h ****                 p2[3] = p1[0];
 597              		.loc 1 181 17 is_stmt 1 view .LVU209
 598              		.loc 1 181 27 is_stmt 0 view .LVU210
 599 00e8 10F82310 		ldrb	r1, [r0, r3, lsl #2]	@ zero_extendqisi2
 600              		.loc 1 181 23 view .LVU211
 601 00ec D170     		strb	r1, [r2, #3]
 602              	.LBE66:
 175:mavlink/minimal/../mavlink_sha256.h ****                 const uint8_t *p1 = (const uint8_t *)&u[i];
 603              		.loc 1 175 26 is_stmt 1 view .LVU212
 175:mavlink/minimal/../mavlink_sha256.h ****                 const uint8_t *p1 = (const uint8_t *)&u[i];
 604              		.loc 1 175 27 is_stmt 0 view .LVU213
 605 00ee 0133     		adds	r3, r3, #1
 606              	.LVL62:
 175:mavlink/minimal/../mavlink_sha256.h ****                 const uint8_t *p1 = (const uint8_t *)&u[i];
 607              		.loc 1 175 27 view .LVU214
 608 00f0 EBE7     		b	.L16
 609              	.LVL63:
 610              	.L72:
 182:mavlink/minimal/../mavlink_sha256.h **** 	    }
 183:mavlink/minimal/../mavlink_sha256.h **** 	    mavlink_sha256_calc(m, current);
 611              		.loc 1 183 6 is_stmt 1 view .LVU215
 612 00f2 12A9     		add	r1, sp, #72
 613 00f4 26A8     		add	r0, sp, #152
 614              	.LVL64:
ARM GAS  /tmp/ccrjRHai.s 			page 18


 615              		.loc 1 183 6 is_stmt 0 view .LVU216
 616 00f6 FFF7FEFF 		bl	mavlink_sha256_calc
 617              	.LVL65:
 184:mavlink/minimal/../mavlink_sha256.h **** 	    offset = 0;
 618              		.loc 1 184 6 is_stmt 1 view .LVU217
 619              		.loc 1 184 13 is_stmt 0 view .LVU218
 620 00fa 0025     		movs	r5, #0
 621 00fc DDE7     		b	.L14
 622              	.LVL66:
 623              	.L71:
 624              		.loc 1 184 13 view .LVU219
 625              	.LBE65:
 626              	.LBE67:
 627              	.LBE63:
 628              	.LBE62:
  94:mavlink/minimal/../mavlink_helpers.h **** 	mavlink_sha256_update(&ctx, packet, packet_len);
 629              		.loc 2 94 2 is_stmt 1 view .LVU220
 630 00fe 019B     		ldr	r3, [sp, #4]
 631 0100 9B46     		mov	fp, r3
 632              	.LVL67:
 633              	.LBB68:
 634              	.LBI68:
 152:mavlink/minimal/../mavlink_sha256.h **** {
 635              		.loc 1 152 21 view .LVU221
 636              	.LBB69:
 154:mavlink/minimal/../mavlink_sha256.h ****     uint32_t old_sz = m->sz[0];
 637              		.loc 1 154 5 view .LVU222
 155:mavlink/minimal/../mavlink_sha256.h ****     uint32_t offset;
 638              		.loc 1 155 5 view .LVU223
 155:mavlink/minimal/../mavlink_sha256.h ****     uint32_t offset;
 639              		.loc 1 155 14 is_stmt 0 view .LVU224
 640 0102 269D     		ldr	r5, [sp, #152]
 641              	.LVL68:
 156:mavlink/minimal/../mavlink_sha256.h **** 
 642              		.loc 1 156 5 is_stmt 1 view .LVU225
 158:mavlink/minimal/../mavlink_sha256.h ****     if (m->sz[0] < old_sz)
 643              		.loc 1 158 5 view .LVU226
 158:mavlink/minimal/../mavlink_sha256.h ****     if (m->sz[0] < old_sz)
 644              		.loc 1 158 14 is_stmt 0 view .LVU227
 645 0104 05EBC303 		add	r3, r5, r3, lsl #3
 646              	.LVL69:
 158:mavlink/minimal/../mavlink_sha256.h ****     if (m->sz[0] < old_sz)
 647              		.loc 1 158 14 view .LVU228
 648 0108 2693     		str	r3, [sp, #152]
 159:mavlink/minimal/../mavlink_sha256.h **** 	++m->sz[1];
 649              		.loc 1 159 5 is_stmt 1 view .LVU229
 159:mavlink/minimal/../mavlink_sha256.h **** 	++m->sz[1];
 650              		.loc 1 159 8 is_stmt 0 view .LVU230
 651 010a 9D42     		cmp	r5, r3
 652 010c 02D9     		bls	.L20
 160:mavlink/minimal/../mavlink_sha256.h ****     offset = (old_sz / 8) % 64;
 653              		.loc 1 160 2 is_stmt 1 view .LVU231
 160:mavlink/minimal/../mavlink_sha256.h ****     offset = (old_sz / 8) % 64;
 654              		.loc 1 160 9 is_stmt 0 view .LVU232
 655 010e 279B     		ldr	r3, [sp, #156]
 160:mavlink/minimal/../mavlink_sha256.h ****     offset = (old_sz / 8) % 64;
 656              		.loc 1 160 2 view .LVU233
ARM GAS  /tmp/ccrjRHai.s 			page 19


 657 0110 0133     		adds	r3, r3, #1
 658 0112 2793     		str	r3, [sp, #156]
 659              	.L20:
 161:mavlink/minimal/../mavlink_sha256.h ****     while(len > 0){
 660              		.loc 1 161 5 is_stmt 1 view .LVU234
 161:mavlink/minimal/../mavlink_sha256.h ****     while(len > 0){
 661              		.loc 1 161 12 is_stmt 0 view .LVU235
 662 0114 C5F3C505 		ubfx	r5, r5, #3, #6
 663              	.LVL70:
 162:mavlink/minimal/../mavlink_sha256.h **** 	uint32_t l = 64 - offset;
 664              		.loc 1 162 5 is_stmt 1 view .LVU236
 162:mavlink/minimal/../mavlink_sha256.h **** 	uint32_t l = 64 - offset;
 665              		.loc 1 162 10 is_stmt 0 view .LVU237
 666 0118 0BE0     		b	.L21
 667              	.LVL71:
 668              	.L22:
 669              	.LBB70:
 167:mavlink/minimal/../mavlink_sha256.h **** 	offset += l;
 670              		.loc 1 167 2 is_stmt 1 view .LVU238
 671 011a 2246     		mov	r2, r4
 672 011c 3946     		mov	r1, r7
 673 011e 30AB     		add	r3, sp, #192
 674 0120 5819     		adds	r0, r3, r5
 675 0122 FFF7FEFF 		bl	memcpy
 676              	.LVL72:
 168:mavlink/minimal/../mavlink_sha256.h **** 	p += l;
 677              		.loc 1 168 2 view .LVU239
 168:mavlink/minimal/../mavlink_sha256.h **** 	p += l;
 678              		.loc 1 168 9 is_stmt 0 view .LVU240
 679 0126 2544     		add	r5, r5, r4
 680              	.LVL73:
 169:mavlink/minimal/../mavlink_sha256.h **** 	len -= l;
 681              		.loc 1 169 2 is_stmt 1 view .LVU241
 169:mavlink/minimal/../mavlink_sha256.h **** 	len -= l;
 682              		.loc 1 169 4 is_stmt 0 view .LVU242
 683 0128 2744     		add	r7, r7, r4
 684              	.LVL74:
 170:mavlink/minimal/../mavlink_sha256.h **** 	if(offset == 64){
 685              		.loc 1 170 2 is_stmt 1 view .LVU243
 170:mavlink/minimal/../mavlink_sha256.h **** 	if(offset == 64){
 686              		.loc 1 170 6 is_stmt 0 view .LVU244
 687 012a ABEB040B 		sub	fp, fp, r4
 688              	.LVL75:
 171:mavlink/minimal/../mavlink_sha256.h **** 	    int i;
 689              		.loc 1 171 2 is_stmt 1 view .LVU245
 171:mavlink/minimal/../mavlink_sha256.h **** 	    int i;
 690              		.loc 1 171 4 is_stmt 0 view .LVU246
 691 012e 402D     		cmp	r5, #64
 692 0130 21D0     		beq	.L73
 693              	.LVL76:
 694              	.L21:
 171:mavlink/minimal/../mavlink_sha256.h **** 	    int i;
 695              		.loc 1 171 4 view .LVU247
 696              	.LBE70:
 162:mavlink/minimal/../mavlink_sha256.h **** 	uint32_t l = 64 - offset;
 697              		.loc 1 162 10 is_stmt 1 view .LVU248
 698 0132 BBF1000F 		cmp	fp, #0
ARM GAS  /tmp/ccrjRHai.s 			page 20


 699 0136 20D0     		beq	.L74
 700              	.LBB73:
 163:mavlink/minimal/../mavlink_sha256.h ****         if (len < l) {
 701              		.loc 1 163 2 view .LVU249
 163:mavlink/minimal/../mavlink_sha256.h ****         if (len < l) {
 702              		.loc 1 163 11 is_stmt 0 view .LVU250
 703 0138 C5F14004 		rsb	r4, r5, #64
 704              	.LVL77:
 164:mavlink/minimal/../mavlink_sha256.h ****             l = len;
 705              		.loc 1 164 9 is_stmt 1 view .LVU251
 164:mavlink/minimal/../mavlink_sha256.h ****             l = len;
 706              		.loc 1 164 12 is_stmt 0 view .LVU252
 707 013c 5C45     		cmp	r4, fp
 708 013e ECD9     		bls	.L22
 165:mavlink/minimal/../mavlink_sha256.h ****         }
 709              		.loc 1 165 15 view .LVU253
 710 0140 5C46     		mov	r4, fp
 711              	.LVL78:
 165:mavlink/minimal/../mavlink_sha256.h ****         }
 712              		.loc 1 165 15 view .LVU254
 713 0142 EAE7     		b	.L22
 714              	.LVL79:
 715              	.L25:
 716              	.LBB71:
 717              	.LBB72:
 176:mavlink/minimal/../mavlink_sha256.h ****                 uint8_t *p2 = (uint8_t *)&current[i];
 718              		.loc 1 176 17 is_stmt 1 view .LVU255
 176:mavlink/minimal/../mavlink_sha256.h ****                 uint8_t *p2 = (uint8_t *)&current[i];
 719              		.loc 1 176 32 is_stmt 0 view .LVU256
 720 0144 30A8     		add	r0, sp, #192
 721 0146 00EB8301 		add	r1, r0, r3, lsl #2
 722              	.LVL80:
 177:mavlink/minimal/../mavlink_sha256.h ****                 p2[0] = p1[3];
 723              		.loc 1 177 17 is_stmt 1 view .LVU257
 177:mavlink/minimal/../mavlink_sha256.h ****                 p2[0] = p1[3];
 724              		.loc 1 177 26 is_stmt 0 view .LVU258
 725 014a 12AC     		add	r4, sp, #72
 726 014c 04EB8302 		add	r2, r4, r3, lsl #2
 727              	.LVL81:
 178:mavlink/minimal/../mavlink_sha256.h ****                 p2[1] = p1[2];
 728              		.loc 1 178 17 is_stmt 1 view .LVU259
 178:mavlink/minimal/../mavlink_sha256.h ****                 p2[1] = p1[2];
 729              		.loc 1 178 23 is_stmt 0 view .LVU260
 730 0150 CD78     		ldrb	r5, [r1, #3]	@ zero_extendqisi2
 731 0152 04F82350 		strb	r5, [r4, r3, lsl #2]
 179:mavlink/minimal/../mavlink_sha256.h ****                 p2[2] = p1[1];
 732              		.loc 1 179 17 is_stmt 1 view .LVU261
 179:mavlink/minimal/../mavlink_sha256.h ****                 p2[2] = p1[1];
 733              		.loc 1 179 23 is_stmt 0 view .LVU262
 734 0156 8C78     		ldrb	r4, [r1, #2]	@ zero_extendqisi2
 735 0158 5470     		strb	r4, [r2, #1]
 180:mavlink/minimal/../mavlink_sha256.h ****                 p2[3] = p1[0];
 736              		.loc 1 180 17 is_stmt 1 view .LVU263
 180:mavlink/minimal/../mavlink_sha256.h ****                 p2[3] = p1[0];
 737              		.loc 1 180 23 is_stmt 0 view .LVU264
 738 015a 4978     		ldrb	r1, [r1, #1]	@ zero_extendqisi2
 739              	.LVL82:
ARM GAS  /tmp/ccrjRHai.s 			page 21


 180:mavlink/minimal/../mavlink_sha256.h ****                 p2[3] = p1[0];
 740              		.loc 1 180 23 view .LVU265
 741 015c 9170     		strb	r1, [r2, #2]
 181:mavlink/minimal/../mavlink_sha256.h **** 	    }
 742              		.loc 1 181 17 is_stmt 1 view .LVU266
 181:mavlink/minimal/../mavlink_sha256.h **** 	    }
 743              		.loc 1 181 27 is_stmt 0 view .LVU267
 744 015e 10F82310 		ldrb	r1, [r0, r3, lsl #2]	@ zero_extendqisi2
 181:mavlink/minimal/../mavlink_sha256.h **** 	    }
 745              		.loc 1 181 23 view .LVU268
 746 0162 D170     		strb	r1, [r2, #3]
 747              	.LBE72:
 175:mavlink/minimal/../mavlink_sha256.h ****                 const uint8_t *p1 = (const uint8_t *)&u[i];
 748              		.loc 1 175 26 is_stmt 1 view .LVU269
 175:mavlink/minimal/../mavlink_sha256.h ****                 const uint8_t *p1 = (const uint8_t *)&u[i];
 749              		.loc 1 175 27 is_stmt 0 view .LVU270
 750 0164 0133     		adds	r3, r3, #1
 751              	.LVL83:
 752              	.L23:
 175:mavlink/minimal/../mavlink_sha256.h ****                 const uint8_t *p1 = (const uint8_t *)&u[i];
 753              		.loc 1 175 18 is_stmt 1 view .LVU271
 175:mavlink/minimal/../mavlink_sha256.h ****                 const uint8_t *p1 = (const uint8_t *)&u[i];
 754              		.loc 1 175 6 is_stmt 0 view .LVU272
 755 0166 0F2B     		cmp	r3, #15
 756 0168 ECDD     		ble	.L25
 183:mavlink/minimal/../mavlink_sha256.h **** 	    offset = 0;
 757              		.loc 1 183 6 is_stmt 1 view .LVU273
 758 016a 12A9     		add	r1, sp, #72
 759 016c 26A8     		add	r0, sp, #152
 760              	.LVL84:
 183:mavlink/minimal/../mavlink_sha256.h **** 	    offset = 0;
 761              		.loc 1 183 6 is_stmt 0 view .LVU274
 762 016e FFF7FEFF 		bl	mavlink_sha256_calc
 763              	.LVL85:
 764              		.loc 1 184 6 is_stmt 1 view .LVU275
 765              		.loc 1 184 13 is_stmt 0 view .LVU276
 766 0172 3546     		mov	r5, r6
 767 0174 DDE7     		b	.L21
 768              	.LVL86:
 769              	.L73:
 175:mavlink/minimal/../mavlink_sha256.h ****                 const uint8_t *p1 = (const uint8_t *)&u[i];
 770              		.loc 1 175 13 view .LVU277
 771 0176 0023     		movs	r3, #0
 772 0178 F5E7     		b	.L23
 773              	.LVL87:
 774              	.L74:
 175:mavlink/minimal/../mavlink_sha256.h ****                 const uint8_t *p1 = (const uint8_t *)&u[i];
 775              		.loc 1 175 13 view .LVU278
 776              	.LBE71:
 777              	.LBE73:
 778              	.LBE69:
 779              	.LBE68:
  95:mavlink/minimal/../mavlink_helpers.h **** 	mavlink_sha256_update(&ctx, crc, 2);
 780              		.loc 2 95 2 is_stmt 1 view .LVU279
 781 017a 5446     		mov	r4, r10
 782              	.LVL88:
 783              	.LBB74:
ARM GAS  /tmp/ccrjRHai.s 			page 22


 784              	.LBI74:
 152:mavlink/minimal/../mavlink_sha256.h **** {
 785              		.loc 1 152 21 view .LVU280
 786              	.LBB75:
 154:mavlink/minimal/../mavlink_sha256.h ****     uint32_t old_sz = m->sz[0];
 787              		.loc 1 154 5 view .LVU281
 155:mavlink/minimal/../mavlink_sha256.h ****     uint32_t offset;
 788              		.loc 1 155 5 view .LVU282
 155:mavlink/minimal/../mavlink_sha256.h ****     uint32_t offset;
 789              		.loc 1 155 14 is_stmt 0 view .LVU283
 790 017c 269E     		ldr	r6, [sp, #152]
 791              	.LVL89:
 156:mavlink/minimal/../mavlink_sha256.h **** 
 792              		.loc 1 156 5 is_stmt 1 view .LVU284
 158:mavlink/minimal/../mavlink_sha256.h ****     if (m->sz[0] < old_sz)
 793              		.loc 1 158 5 view .LVU285
 158:mavlink/minimal/../mavlink_sha256.h ****     if (m->sz[0] < old_sz)
 794              		.loc 1 158 14 is_stmt 0 view .LVU286
 795 017e 06EBCA03 		add	r3, r6, r10, lsl #3
 796 0182 2693     		str	r3, [sp, #152]
 159:mavlink/minimal/../mavlink_sha256.h **** 	++m->sz[1];
 797              		.loc 1 159 5 is_stmt 1 view .LVU287
 159:mavlink/minimal/../mavlink_sha256.h **** 	++m->sz[1];
 798              		.loc 1 159 8 is_stmt 0 view .LVU288
 799 0184 9E42     		cmp	r6, r3
 800 0186 02D9     		bls	.L27
 160:mavlink/minimal/../mavlink_sha256.h ****     offset = (old_sz / 8) % 64;
 801              		.loc 1 160 2 is_stmt 1 view .LVU289
 160:mavlink/minimal/../mavlink_sha256.h ****     offset = (old_sz / 8) % 64;
 802              		.loc 1 160 9 is_stmt 0 view .LVU290
 803 0188 279B     		ldr	r3, [sp, #156]
 160:mavlink/minimal/../mavlink_sha256.h ****     offset = (old_sz / 8) % 64;
 804              		.loc 1 160 2 view .LVU291
 805 018a 0133     		adds	r3, r3, #1
 806 018c 2793     		str	r3, [sp, #156]
 807              	.L27:
 161:mavlink/minimal/../mavlink_sha256.h ****     while(len > 0){
 808              		.loc 1 161 5 is_stmt 1 view .LVU292
 161:mavlink/minimal/../mavlink_sha256.h ****     while(len > 0){
 809              		.loc 1 161 12 is_stmt 0 view .LVU293
 810 018e C6F3C506 		ubfx	r6, r6, #3, #6
 811              	.LVL90:
 162:mavlink/minimal/../mavlink_sha256.h **** 	uint32_t l = 64 - offset;
 812              		.loc 1 162 5 is_stmt 1 view .LVU294
 162:mavlink/minimal/../mavlink_sha256.h **** 	uint32_t l = 64 - offset;
 813              		.loc 1 162 10 is_stmt 0 view .LVU295
 814 0192 0AE0     		b	.L28
 815              	.LVL91:
 816              	.L29:
 817              	.LBB76:
 167:mavlink/minimal/../mavlink_sha256.h **** 	offset += l;
 818              		.loc 1 167 2 is_stmt 1 view .LVU296
 819 0194 2A46     		mov	r2, r5
 820 0196 4946     		mov	r1, r9
 821 0198 30AB     		add	r3, sp, #192
 822 019a 9819     		adds	r0, r3, r6
 823 019c FFF7FEFF 		bl	memcpy
ARM GAS  /tmp/ccrjRHai.s 			page 23


 824              	.LVL92:
 168:mavlink/minimal/../mavlink_sha256.h **** 	p += l;
 825              		.loc 1 168 2 view .LVU297
 168:mavlink/minimal/../mavlink_sha256.h **** 	p += l;
 826              		.loc 1 168 9 is_stmt 0 view .LVU298
 827 01a0 2E44     		add	r6, r6, r5
 828              	.LVL93:
 169:mavlink/minimal/../mavlink_sha256.h **** 	len -= l;
 829              		.loc 1 169 2 is_stmt 1 view .LVU299
 169:mavlink/minimal/../mavlink_sha256.h **** 	len -= l;
 830              		.loc 1 169 4 is_stmt 0 view .LVU300
 831 01a2 A944     		add	r9, r9, r5
 832              	.LVL94:
 170:mavlink/minimal/../mavlink_sha256.h **** 	if(offset == 64){
 833              		.loc 1 170 2 is_stmt 1 view .LVU301
 170:mavlink/minimal/../mavlink_sha256.h **** 	if(offset == 64){
 834              		.loc 1 170 6 is_stmt 0 view .LVU302
 835 01a4 641B     		subs	r4, r4, r5
 836              	.LVL95:
 171:mavlink/minimal/../mavlink_sha256.h **** 	    int i;
 837              		.loc 1 171 2 is_stmt 1 view .LVU303
 171:mavlink/minimal/../mavlink_sha256.h **** 	    int i;
 838              		.loc 1 171 4 is_stmt 0 view .LVU304
 839 01a6 402E     		cmp	r6, #64
 840 01a8 06D0     		beq	.L75
 841              	.LVL96:
 842              	.L28:
 171:mavlink/minimal/../mavlink_sha256.h **** 	    int i;
 843              		.loc 1 171 4 view .LVU305
 844              	.LBE76:
 162:mavlink/minimal/../mavlink_sha256.h **** 	uint32_t l = 64 - offset;
 845              		.loc 1 162 10 is_stmt 1 view .LVU306
 846 01aa 04B3     		cbz	r4, .L76
 847              	.LBB79:
 163:mavlink/minimal/../mavlink_sha256.h ****         if (len < l) {
 848              		.loc 1 163 2 view .LVU307
 163:mavlink/minimal/../mavlink_sha256.h ****         if (len < l) {
 849              		.loc 1 163 11 is_stmt 0 view .LVU308
 850 01ac C6F14005 		rsb	r5, r6, #64
 851              	.LVL97:
 164:mavlink/minimal/../mavlink_sha256.h ****             l = len;
 852              		.loc 1 164 9 is_stmt 1 view .LVU309
 164:mavlink/minimal/../mavlink_sha256.h ****             l = len;
 853              		.loc 1 164 12 is_stmt 0 view .LVU310
 854 01b0 A542     		cmp	r5, r4
 855 01b2 EFD9     		bls	.L29
 165:mavlink/minimal/../mavlink_sha256.h ****         }
 856              		.loc 1 165 15 view .LVU311
 857 01b4 2546     		mov	r5, r4
 858              	.LVL98:
 165:mavlink/minimal/../mavlink_sha256.h ****         }
 859              		.loc 1 165 15 view .LVU312
 860 01b6 EDE7     		b	.L29
 861              	.LVL99:
 862              	.L75:
 863              	.LBB77:
 175:mavlink/minimal/../mavlink_sha256.h ****                 const uint8_t *p1 = (const uint8_t *)&u[i];
ARM GAS  /tmp/ccrjRHai.s 			page 24


 864              		.loc 1 175 13 view .LVU313
 865 01b8 0023     		movs	r3, #0
 866              	.LVL100:
 867              	.L30:
 175:mavlink/minimal/../mavlink_sha256.h ****                 const uint8_t *p1 = (const uint8_t *)&u[i];
 868              		.loc 1 175 18 is_stmt 1 view .LVU314
 175:mavlink/minimal/../mavlink_sha256.h ****                 const uint8_t *p1 = (const uint8_t *)&u[i];
 869              		.loc 1 175 6 is_stmt 0 view .LVU315
 870 01ba 0F2B     		cmp	r3, #15
 871 01bc 11DC     		bgt	.L77
 872              	.LBB78:
 176:mavlink/minimal/../mavlink_sha256.h ****                 uint8_t *p2 = (uint8_t *)&current[i];
 873              		.loc 1 176 17 is_stmt 1 view .LVU316
 176:mavlink/minimal/../mavlink_sha256.h ****                 uint8_t *p2 = (uint8_t *)&current[i];
 874              		.loc 1 176 32 is_stmt 0 view .LVU317
 875 01be 30A8     		add	r0, sp, #192
 876 01c0 00EB8301 		add	r1, r0, r3, lsl #2
 877              	.LVL101:
 177:mavlink/minimal/../mavlink_sha256.h ****                 p2[0] = p1[3];
 878              		.loc 1 177 17 is_stmt 1 view .LVU318
 177:mavlink/minimal/../mavlink_sha256.h ****                 p2[0] = p1[3];
 879              		.loc 1 177 26 is_stmt 0 view .LVU319
 880 01c4 12AD     		add	r5, sp, #72
 881 01c6 05EB8302 		add	r2, r5, r3, lsl #2
 882              	.LVL102:
 178:mavlink/minimal/../mavlink_sha256.h ****                 p2[1] = p1[2];
 883              		.loc 1 178 17 is_stmt 1 view .LVU320
 178:mavlink/minimal/../mavlink_sha256.h ****                 p2[1] = p1[2];
 884              		.loc 1 178 23 is_stmt 0 view .LVU321
 885 01ca CE78     		ldrb	r6, [r1, #3]	@ zero_extendqisi2
 886 01cc 05F82360 		strb	r6, [r5, r3, lsl #2]
 179:mavlink/minimal/../mavlink_sha256.h ****                 p2[2] = p1[1];
 887              		.loc 1 179 17 is_stmt 1 view .LVU322
 179:mavlink/minimal/../mavlink_sha256.h ****                 p2[2] = p1[1];
 888              		.loc 1 179 23 is_stmt 0 view .LVU323
 889 01d0 8D78     		ldrb	r5, [r1, #2]	@ zero_extendqisi2
 890 01d2 5570     		strb	r5, [r2, #1]
 180:mavlink/minimal/../mavlink_sha256.h ****                 p2[3] = p1[0];
 891              		.loc 1 180 17 is_stmt 1 view .LVU324
 180:mavlink/minimal/../mavlink_sha256.h ****                 p2[3] = p1[0];
 892              		.loc 1 180 23 is_stmt 0 view .LVU325
 893 01d4 4978     		ldrb	r1, [r1, #1]	@ zero_extendqisi2
 894              	.LVL103:
 180:mavlink/minimal/../mavlink_sha256.h ****                 p2[3] = p1[0];
 895              		.loc 1 180 23 view .LVU326
 896 01d6 9170     		strb	r1, [r2, #2]
 181:mavlink/minimal/../mavlink_sha256.h **** 	    }
 897              		.loc 1 181 17 is_stmt 1 view .LVU327
 181:mavlink/minimal/../mavlink_sha256.h **** 	    }
 898              		.loc 1 181 27 is_stmt 0 view .LVU328
 899 01d8 10F82310 		ldrb	r1, [r0, r3, lsl #2]	@ zero_extendqisi2
 181:mavlink/minimal/../mavlink_sha256.h **** 	    }
 900              		.loc 1 181 23 view .LVU329
 901 01dc D170     		strb	r1, [r2, #3]
 902              	.LBE78:
 175:mavlink/minimal/../mavlink_sha256.h ****                 const uint8_t *p1 = (const uint8_t *)&u[i];
 903              		.loc 1 175 26 is_stmt 1 view .LVU330
ARM GAS  /tmp/ccrjRHai.s 			page 25


 175:mavlink/minimal/../mavlink_sha256.h ****                 const uint8_t *p1 = (const uint8_t *)&u[i];
 904              		.loc 1 175 27 is_stmt 0 view .LVU331
 905 01de 0133     		adds	r3, r3, #1
 906              	.LVL104:
 175:mavlink/minimal/../mavlink_sha256.h ****                 const uint8_t *p1 = (const uint8_t *)&u[i];
 907              		.loc 1 175 27 view .LVU332
 908 01e0 EBE7     		b	.L30
 909              	.LVL105:
 910              	.L77:
 183:mavlink/minimal/../mavlink_sha256.h **** 	    offset = 0;
 911              		.loc 1 183 6 is_stmt 1 view .LVU333
 912 01e2 12A9     		add	r1, sp, #72
 913 01e4 26A8     		add	r0, sp, #152
 914              	.LVL106:
 183:mavlink/minimal/../mavlink_sha256.h **** 	    offset = 0;
 915              		.loc 1 183 6 is_stmt 0 view .LVU334
 916 01e6 FFF7FEFF 		bl	mavlink_sha256_calc
 917              	.LVL107:
 918              		.loc 1 184 6 is_stmt 1 view .LVU335
 919              		.loc 1 184 13 is_stmt 0 view .LVU336
 920 01ea 5E46     		mov	r6, fp
 921 01ec DDE7     		b	.L28
 922              	.LVL108:
 923              	.L76:
 924              		.loc 1 184 13 view .LVU337
 925              	.LBE77:
 926              	.LBE79:
 927              	.LBE75:
 928              	.LBE74:
  96:mavlink/minimal/../mavlink_helpers.h **** 	mavlink_sha256_update(&ctx, signature, 7);
 929              		.loc 2 96 2 is_stmt 1 view .LVU338
 930              	.LBB80:
 931              	.LBI80:
 152:mavlink/minimal/../mavlink_sha256.h **** {
 932              		.loc 1 152 21 view .LVU339
 933              	.LBB81:
 154:mavlink/minimal/../mavlink_sha256.h ****     uint32_t old_sz = m->sz[0];
 934              		.loc 1 154 5 view .LVU340
 155:mavlink/minimal/../mavlink_sha256.h ****     uint32_t offset;
 935              		.loc 1 155 5 view .LVU341
 155:mavlink/minimal/../mavlink_sha256.h ****     uint32_t offset;
 936              		.loc 1 155 14 is_stmt 0 view .LVU342
 937 01ee 269F     		ldr	r7, [sp, #152]
 938              	.LVL109:
 156:mavlink/minimal/../mavlink_sha256.h **** 
 939              		.loc 1 156 5 is_stmt 1 view .LVU343
 158:mavlink/minimal/../mavlink_sha256.h ****     if (m->sz[0] < old_sz)
 940              		.loc 1 158 5 view .LVU344
 158:mavlink/minimal/../mavlink_sha256.h ****     if (m->sz[0] < old_sz)
 941              		.loc 1 158 14 is_stmt 0 view .LVU345
 942 01f0 07F11003 		add	r3, r7, #16
 943 01f4 2693     		str	r3, [sp, #152]
 159:mavlink/minimal/../mavlink_sha256.h **** 	++m->sz[1];
 944              		.loc 1 159 5 is_stmt 1 view .LVU346
 159:mavlink/minimal/../mavlink_sha256.h **** 	++m->sz[1];
 945              		.loc 1 159 8 is_stmt 0 view .LVU347
 946 01f6 9F42     		cmp	r7, r3
ARM GAS  /tmp/ccrjRHai.s 			page 26


 947 01f8 02D9     		bls	.L34
 160:mavlink/minimal/../mavlink_sha256.h ****     offset = (old_sz / 8) % 64;
 948              		.loc 1 160 2 is_stmt 1 view .LVU348
 160:mavlink/minimal/../mavlink_sha256.h ****     offset = (old_sz / 8) % 64;
 949              		.loc 1 160 9 is_stmt 0 view .LVU349
 950 01fa 279B     		ldr	r3, [sp, #156]
 160:mavlink/minimal/../mavlink_sha256.h ****     offset = (old_sz / 8) % 64;
 951              		.loc 1 160 2 view .LVU350
 952 01fc 0133     		adds	r3, r3, #1
 953 01fe 2793     		str	r3, [sp, #156]
 954              	.L34:
 161:mavlink/minimal/../mavlink_sha256.h ****     while(len > 0){
 955              		.loc 1 161 5 is_stmt 1 view .LVU351
 161:mavlink/minimal/../mavlink_sha256.h ****     while(len > 0){
 956              		.loc 1 161 12 is_stmt 0 view .LVU352
 957 0200 C7F3C507 		ubfx	r7, r7, #3, #6
 958              	.LVL110:
 162:mavlink/minimal/../mavlink_sha256.h **** 	uint32_t l = 64 - offset;
 959              		.loc 1 162 5 is_stmt 1 view .LVU353
 162:mavlink/minimal/../mavlink_sha256.h **** 	uint32_t l = 64 - offset;
 960              		.loc 1 162 10 is_stmt 0 view .LVU354
 961 0204 0225     		movs	r5, #2
 962 0206 0AE0     		b	.L35
 963              	.LVL111:
 964              	.L36:
 965              	.LBB82:
 167:mavlink/minimal/../mavlink_sha256.h **** 	offset += l;
 966              		.loc 1 167 2 is_stmt 1 view .LVU355
 967 0208 3246     		mov	r2, r6
 968 020a 4146     		mov	r1, r8
 969 020c 30AB     		add	r3, sp, #192
 970 020e D819     		adds	r0, r3, r7
 971 0210 FFF7FEFF 		bl	memcpy
 972              	.LVL112:
 168:mavlink/minimal/../mavlink_sha256.h **** 	p += l;
 973              		.loc 1 168 2 view .LVU356
 168:mavlink/minimal/../mavlink_sha256.h **** 	p += l;
 974              		.loc 1 168 9 is_stmt 0 view .LVU357
 975 0214 3744     		add	r7, r7, r6
 976              	.LVL113:
 169:mavlink/minimal/../mavlink_sha256.h **** 	len -= l;
 977              		.loc 1 169 2 is_stmt 1 view .LVU358
 169:mavlink/minimal/../mavlink_sha256.h **** 	len -= l;
 978              		.loc 1 169 4 is_stmt 0 view .LVU359
 979 0216 B044     		add	r8, r8, r6
 980              	.LVL114:
 170:mavlink/minimal/../mavlink_sha256.h **** 	if(offset == 64){
 981              		.loc 1 170 2 is_stmt 1 view .LVU360
 170:mavlink/minimal/../mavlink_sha256.h **** 	if(offset == 64){
 982              		.loc 1 170 6 is_stmt 0 view .LVU361
 983 0218 AD1B     		subs	r5, r5, r6
 984              	.LVL115:
 171:mavlink/minimal/../mavlink_sha256.h **** 	    int i;
 985              		.loc 1 171 2 is_stmt 1 view .LVU362
 171:mavlink/minimal/../mavlink_sha256.h **** 	    int i;
 986              		.loc 1 171 4 is_stmt 0 view .LVU363
 987 021a 402F     		cmp	r7, #64
ARM GAS  /tmp/ccrjRHai.s 			page 27


 988 021c 06D0     		beq	.L78
 989              	.LVL116:
 990              	.L35:
 171:mavlink/minimal/../mavlink_sha256.h **** 	    int i;
 991              		.loc 1 171 4 view .LVU364
 992              	.LBE82:
 162:mavlink/minimal/../mavlink_sha256.h **** 	uint32_t l = 64 - offset;
 993              		.loc 1 162 10 is_stmt 1 view .LVU365
 994 021e 05B3     		cbz	r5, .L79
 995              	.LBB85:
 163:mavlink/minimal/../mavlink_sha256.h ****         if (len < l) {
 996              		.loc 1 163 2 view .LVU366
 163:mavlink/minimal/../mavlink_sha256.h ****         if (len < l) {
 997              		.loc 1 163 11 is_stmt 0 view .LVU367
 998 0220 C7F14006 		rsb	r6, r7, #64
 999              	.LVL117:
 164:mavlink/minimal/../mavlink_sha256.h ****             l = len;
 1000              		.loc 1 164 9 is_stmt 1 view .LVU368
 164:mavlink/minimal/../mavlink_sha256.h ****             l = len;
 1001              		.loc 1 164 12 is_stmt 0 view .LVU369
 1002 0224 AE42     		cmp	r6, r5
 1003 0226 EFD9     		bls	.L36
 165:mavlink/minimal/../mavlink_sha256.h ****         }
 1004              		.loc 1 165 15 view .LVU370
 1005 0228 2E46     		mov	r6, r5
 1006              	.LVL118:
 165:mavlink/minimal/../mavlink_sha256.h ****         }
 1007              		.loc 1 165 15 view .LVU371
 1008 022a EDE7     		b	.L36
 1009              	.LVL119:
 1010              	.L78:
 1011              	.LBB83:
 175:mavlink/minimal/../mavlink_sha256.h ****                 const uint8_t *p1 = (const uint8_t *)&u[i];
 1012              		.loc 1 175 13 view .LVU372
 1013 022c 0023     		movs	r3, #0
 1014              	.LVL120:
 1015              	.L37:
 175:mavlink/minimal/../mavlink_sha256.h ****                 const uint8_t *p1 = (const uint8_t *)&u[i];
 1016              		.loc 1 175 18 is_stmt 1 view .LVU373
 175:mavlink/minimal/../mavlink_sha256.h ****                 const uint8_t *p1 = (const uint8_t *)&u[i];
 1017              		.loc 1 175 6 is_stmt 0 view .LVU374
 1018 022e 0F2B     		cmp	r3, #15
 1019 0230 11DC     		bgt	.L80
 1020              	.LBB84:
 176:mavlink/minimal/../mavlink_sha256.h ****                 uint8_t *p2 = (uint8_t *)&current[i];
 1021              		.loc 1 176 17 is_stmt 1 view .LVU375
 176:mavlink/minimal/../mavlink_sha256.h ****                 uint8_t *p2 = (uint8_t *)&current[i];
 1022              		.loc 1 176 32 is_stmt 0 view .LVU376
 1023 0232 30A8     		add	r0, sp, #192
 1024 0234 00EB8301 		add	r1, r0, r3, lsl #2
 1025              	.LVL121:
 177:mavlink/minimal/../mavlink_sha256.h ****                 p2[0] = p1[3];
 1026              		.loc 1 177 17 is_stmt 1 view .LVU377
 177:mavlink/minimal/../mavlink_sha256.h ****                 p2[0] = p1[3];
 1027              		.loc 1 177 26 is_stmt 0 view .LVU378
 1028 0238 12AE     		add	r6, sp, #72
 1029 023a 06EB8302 		add	r2, r6, r3, lsl #2
ARM GAS  /tmp/ccrjRHai.s 			page 28


 1030              	.LVL122:
 178:mavlink/minimal/../mavlink_sha256.h ****                 p2[1] = p1[2];
 1031              		.loc 1 178 17 is_stmt 1 view .LVU379
 178:mavlink/minimal/../mavlink_sha256.h ****                 p2[1] = p1[2];
 1032              		.loc 1 178 23 is_stmt 0 view .LVU380
 1033 023e CF78     		ldrb	r7, [r1, #3]	@ zero_extendqisi2
 1034 0240 06F82370 		strb	r7, [r6, r3, lsl #2]
 179:mavlink/minimal/../mavlink_sha256.h ****                 p2[2] = p1[1];
 1035              		.loc 1 179 17 is_stmt 1 view .LVU381
 179:mavlink/minimal/../mavlink_sha256.h ****                 p2[2] = p1[1];
 1036              		.loc 1 179 23 is_stmt 0 view .LVU382
 1037 0244 8E78     		ldrb	r6, [r1, #2]	@ zero_extendqisi2
 1038 0246 5670     		strb	r6, [r2, #1]
 180:mavlink/minimal/../mavlink_sha256.h ****                 p2[3] = p1[0];
 1039              		.loc 1 180 17 is_stmt 1 view .LVU383
 180:mavlink/minimal/../mavlink_sha256.h ****                 p2[3] = p1[0];
 1040              		.loc 1 180 23 is_stmt 0 view .LVU384
 1041 0248 4978     		ldrb	r1, [r1, #1]	@ zero_extendqisi2
 1042              	.LVL123:
 180:mavlink/minimal/../mavlink_sha256.h ****                 p2[3] = p1[0];
 1043              		.loc 1 180 23 view .LVU385
 1044 024a 9170     		strb	r1, [r2, #2]
 181:mavlink/minimal/../mavlink_sha256.h **** 	    }
 1045              		.loc 1 181 17 is_stmt 1 view .LVU386
 181:mavlink/minimal/../mavlink_sha256.h **** 	    }
 1046              		.loc 1 181 27 is_stmt 0 view .LVU387
 1047 024c 10F82310 		ldrb	r1, [r0, r3, lsl #2]	@ zero_extendqisi2
 181:mavlink/minimal/../mavlink_sha256.h **** 	    }
 1048              		.loc 1 181 23 view .LVU388
 1049 0250 D170     		strb	r1, [r2, #3]
 1050              	.LBE84:
 175:mavlink/minimal/../mavlink_sha256.h ****                 const uint8_t *p1 = (const uint8_t *)&u[i];
 1051              		.loc 1 175 26 is_stmt 1 view .LVU389
 175:mavlink/minimal/../mavlink_sha256.h ****                 const uint8_t *p1 = (const uint8_t *)&u[i];
 1052              		.loc 1 175 27 is_stmt 0 view .LVU390
 1053 0252 0133     		adds	r3, r3, #1
 1054              	.LVL124:
 175:mavlink/minimal/../mavlink_sha256.h ****                 const uint8_t *p1 = (const uint8_t *)&u[i];
 1055              		.loc 1 175 27 view .LVU391
 1056 0254 EBE7     		b	.L37
 1057              	.LVL125:
 1058              	.L80:
 183:mavlink/minimal/../mavlink_sha256.h **** 	    offset = 0;
 1059              		.loc 1 183 6 is_stmt 1 view .LVU392
 1060 0256 12A9     		add	r1, sp, #72
 1061 0258 26A8     		add	r0, sp, #152
 1062              	.LVL126:
 183:mavlink/minimal/../mavlink_sha256.h **** 	    offset = 0;
 1063              		.loc 1 183 6 is_stmt 0 view .LVU393
 1064 025a FFF7FEFF 		bl	mavlink_sha256_calc
 1065              	.LVL127:
 1066              		.loc 1 184 6 is_stmt 1 view .LVU394
 1067              		.loc 1 184 13 is_stmt 0 view .LVU395
 1068 025e 2746     		mov	r7, r4
 1069 0260 DDE7     		b	.L35
 1070              	.LVL128:
 1071              	.L79:
ARM GAS  /tmp/ccrjRHai.s 			page 29


 1072              		.loc 1 184 13 view .LVU396
 1073              	.LBE83:
 1074              	.LBE85:
 1075              	.LBE81:
 1076              	.LBE80:
  97:mavlink/minimal/../mavlink_helpers.h **** 	mavlink_sha256_final_48(&ctx, &signature[7]);
 1077              		.loc 2 97 2 is_stmt 1 view .LVU397
 1078              	.LBB86:
 1079              	.LBI86:
 152:mavlink/minimal/../mavlink_sha256.h **** {
 1080              		.loc 1 152 21 view .LVU398
 1081              	.LBB87:
 154:mavlink/minimal/../mavlink_sha256.h ****     uint32_t old_sz = m->sz[0];
 1082              		.loc 1 154 5 view .LVU399
 155:mavlink/minimal/../mavlink_sha256.h ****     uint32_t offset;
 1083              		.loc 1 155 5 view .LVU400
 155:mavlink/minimal/../mavlink_sha256.h ****     uint32_t offset;
 1084              		.loc 1 155 14 is_stmt 0 view .LVU401
 1085 0262 269B     		ldr	r3, [sp, #152]
 1086              	.LVL129:
 156:mavlink/minimal/../mavlink_sha256.h **** 
 1087              		.loc 1 156 5 is_stmt 1 view .LVU402
 158:mavlink/minimal/../mavlink_sha256.h ****     if (m->sz[0] < old_sz)
 1088              		.loc 1 158 5 view .LVU403
 158:mavlink/minimal/../mavlink_sha256.h ****     if (m->sz[0] < old_sz)
 1089              		.loc 1 158 14 is_stmt 0 view .LVU404
 1090 0264 03F13802 		add	r2, r3, #56
 1091 0268 2692     		str	r2, [sp, #152]
 159:mavlink/minimal/../mavlink_sha256.h **** 	++m->sz[1];
 1092              		.loc 1 159 5 is_stmt 1 view .LVU405
 159:mavlink/minimal/../mavlink_sha256.h **** 	++m->sz[1];
 1093              		.loc 1 159 8 is_stmt 0 view .LVU406
 1094 026a 9342     		cmp	r3, r2
 1095 026c 02D9     		bls	.L41
 160:mavlink/minimal/../mavlink_sha256.h ****     offset = (old_sz / 8) % 64;
 1096              		.loc 1 160 2 is_stmt 1 view .LVU407
 160:mavlink/minimal/../mavlink_sha256.h ****     offset = (old_sz / 8) % 64;
 1097              		.loc 1 160 9 is_stmt 0 view .LVU408
 1098 026e 279A     		ldr	r2, [sp, #156]
 160:mavlink/minimal/../mavlink_sha256.h ****     offset = (old_sz / 8) % 64;
 1099              		.loc 1 160 2 view .LVU409
 1100 0270 0132     		adds	r2, r2, #1
 1101 0272 2792     		str	r2, [sp, #156]
 1102              	.L41:
 161:mavlink/minimal/../mavlink_sha256.h ****     while(len > 0){
 1103              		.loc 1 161 5 is_stmt 1 view .LVU410
 161:mavlink/minimal/../mavlink_sha256.h ****     while(len > 0){
 1104              		.loc 1 161 12 is_stmt 0 view .LVU411
 1105 0274 C3F3C508 		ubfx	r8, r3, #3, #6
 1106              	.LVL130:
 162:mavlink/minimal/../mavlink_sha256.h **** 	uint32_t l = 64 - offset;
 1107              		.loc 1 162 5 is_stmt 1 view .LVU412
 154:mavlink/minimal/../mavlink_sha256.h ****     uint32_t old_sz = m->sz[0];
 1108              		.loc 1 154 26 is_stmt 0 view .LVU413
 1109 0278 009E     		ldr	r6, [sp]
 162:mavlink/minimal/../mavlink_sha256.h **** 	uint32_t l = 64 - offset;
 1110              		.loc 1 162 10 view .LVU414
ARM GAS  /tmp/ccrjRHai.s 			page 30


 1111 027a 0724     		movs	r4, #7
 1112 027c 0CE0     		b	.L42
 1113              	.LVL131:
 1114              	.L43:
 1115              	.LBB88:
 167:mavlink/minimal/../mavlink_sha256.h **** 	offset += l;
 1116              		.loc 1 167 2 is_stmt 1 view .LVU415
 1117 027e 3A46     		mov	r2, r7
 1118 0280 3146     		mov	r1, r6
 1119 0282 30AB     		add	r3, sp, #192
 1120 0284 03EB0800 		add	r0, r3, r8
 1121 0288 FFF7FEFF 		bl	memcpy
 1122              	.LVL132:
 168:mavlink/minimal/../mavlink_sha256.h **** 	p += l;
 1123              		.loc 1 168 2 view .LVU416
 168:mavlink/minimal/../mavlink_sha256.h **** 	p += l;
 1124              		.loc 1 168 9 is_stmt 0 view .LVU417
 1125 028c B844     		add	r8, r8, r7
 1126              	.LVL133:
 169:mavlink/minimal/../mavlink_sha256.h **** 	len -= l;
 1127              		.loc 1 169 2 is_stmt 1 view .LVU418
 169:mavlink/minimal/../mavlink_sha256.h **** 	len -= l;
 1128              		.loc 1 169 4 is_stmt 0 view .LVU419
 1129 028e 3E44     		add	r6, r6, r7
 1130              	.LVL134:
 170:mavlink/minimal/../mavlink_sha256.h **** 	if(offset == 64){
 1131              		.loc 1 170 2 is_stmt 1 view .LVU420
 170:mavlink/minimal/../mavlink_sha256.h **** 	if(offset == 64){
 1132              		.loc 1 170 6 is_stmt 0 view .LVU421
 1133 0290 E41B     		subs	r4, r4, r7
 1134              	.LVL135:
 171:mavlink/minimal/../mavlink_sha256.h **** 	    int i;
 1135              		.loc 1 171 2 is_stmt 1 view .LVU422
 171:mavlink/minimal/../mavlink_sha256.h **** 	    int i;
 1136              		.loc 1 171 4 is_stmt 0 view .LVU423
 1137 0292 B8F1400F 		cmp	r8, #64
 1138 0296 06D0     		beq	.L81
 1139              	.LVL136:
 1140              	.L42:
 171:mavlink/minimal/../mavlink_sha256.h **** 	    int i;
 1141              		.loc 1 171 4 view .LVU424
 1142              	.LBE88:
 162:mavlink/minimal/../mavlink_sha256.h **** 	uint32_t l = 64 - offset;
 1143              		.loc 1 162 10 is_stmt 1 view .LVU425
 1144 0298 84B3     		cbz	r4, .L82
 1145              	.LBB91:
 163:mavlink/minimal/../mavlink_sha256.h ****         if (len < l) {
 1146              		.loc 1 163 2 view .LVU426
 163:mavlink/minimal/../mavlink_sha256.h ****         if (len < l) {
 1147              		.loc 1 163 11 is_stmt 0 view .LVU427
 1148 029a C8F14007 		rsb	r7, r8, #64
 1149              	.LVL137:
 164:mavlink/minimal/../mavlink_sha256.h ****             l = len;
 1150              		.loc 1 164 9 is_stmt 1 view .LVU428
 164:mavlink/minimal/../mavlink_sha256.h ****             l = len;
 1151              		.loc 1 164 12 is_stmt 0 view .LVU429
 1152 029e A742     		cmp	r7, r4
ARM GAS  /tmp/ccrjRHai.s 			page 31


 1153 02a0 EDD9     		bls	.L43
 165:mavlink/minimal/../mavlink_sha256.h ****         }
 1154              		.loc 1 165 15 view .LVU430
 1155 02a2 2746     		mov	r7, r4
 1156              	.LVL138:
 165:mavlink/minimal/../mavlink_sha256.h ****         }
 1157              		.loc 1 165 15 view .LVU431
 1158 02a4 EBE7     		b	.L43
 1159              	.LVL139:
 1160              	.L81:
 1161              	.LBB89:
 175:mavlink/minimal/../mavlink_sha256.h ****                 const uint8_t *p1 = (const uint8_t *)&u[i];
 1162              		.loc 1 175 13 view .LVU432
 1163 02a6 0023     		movs	r3, #0
 1164              	.LVL140:
 1165              	.L44:
 175:mavlink/minimal/../mavlink_sha256.h ****                 const uint8_t *p1 = (const uint8_t *)&u[i];
 1166              		.loc 1 175 18 is_stmt 1 view .LVU433
 175:mavlink/minimal/../mavlink_sha256.h ****                 const uint8_t *p1 = (const uint8_t *)&u[i];
 1167              		.loc 1 175 6 is_stmt 0 view .LVU434
 1168 02a8 0F2B     		cmp	r3, #15
 1169 02aa 12DC     		bgt	.L83
 1170              	.LBB90:
 176:mavlink/minimal/../mavlink_sha256.h ****                 uint8_t *p2 = (uint8_t *)&current[i];
 1171              		.loc 1 176 17 is_stmt 1 view .LVU435
 176:mavlink/minimal/../mavlink_sha256.h ****                 uint8_t *p2 = (uint8_t *)&current[i];
 1172              		.loc 1 176 32 is_stmt 0 view .LVU436
 1173 02ac 30A8     		add	r0, sp, #192
 1174 02ae 00EB8301 		add	r1, r0, r3, lsl #2
 1175              	.LVL141:
 177:mavlink/minimal/../mavlink_sha256.h ****                 p2[0] = p1[3];
 1176              		.loc 1 177 17 is_stmt 1 view .LVU437
 177:mavlink/minimal/../mavlink_sha256.h ****                 p2[0] = p1[3];
 1177              		.loc 1 177 26 is_stmt 0 view .LVU438
 1178 02b2 12AF     		add	r7, sp, #72
 1179 02b4 07EB8302 		add	r2, r7, r3, lsl #2
 1180              	.LVL142:
 178:mavlink/minimal/../mavlink_sha256.h ****                 p2[1] = p1[2];
 1181              		.loc 1 178 17 is_stmt 1 view .LVU439
 178:mavlink/minimal/../mavlink_sha256.h ****                 p2[1] = p1[2];
 1182              		.loc 1 178 23 is_stmt 0 view .LVU440
 1183 02b8 91F803C0 		ldrb	ip, [r1, #3]	@ zero_extendqisi2
 1184 02bc 07F823C0 		strb	ip, [r7, r3, lsl #2]
 179:mavlink/minimal/../mavlink_sha256.h ****                 p2[2] = p1[1];
 1185              		.loc 1 179 17 is_stmt 1 view .LVU441
 179:mavlink/minimal/../mavlink_sha256.h ****                 p2[2] = p1[1];
 1186              		.loc 1 179 23 is_stmt 0 view .LVU442
 1187 02c0 8F78     		ldrb	r7, [r1, #2]	@ zero_extendqisi2
 1188 02c2 5770     		strb	r7, [r2, #1]
 180:mavlink/minimal/../mavlink_sha256.h ****                 p2[3] = p1[0];
 1189              		.loc 1 180 17 is_stmt 1 view .LVU443
 180:mavlink/minimal/../mavlink_sha256.h ****                 p2[3] = p1[0];
 1190              		.loc 1 180 23 is_stmt 0 view .LVU444
 1191 02c4 4978     		ldrb	r1, [r1, #1]	@ zero_extendqisi2
 1192              	.LVL143:
 180:mavlink/minimal/../mavlink_sha256.h ****                 p2[3] = p1[0];
 1193              		.loc 1 180 23 view .LVU445
ARM GAS  /tmp/ccrjRHai.s 			page 32


 1194 02c6 9170     		strb	r1, [r2, #2]
 181:mavlink/minimal/../mavlink_sha256.h **** 	    }
 1195              		.loc 1 181 17 is_stmt 1 view .LVU446
 181:mavlink/minimal/../mavlink_sha256.h **** 	    }
 1196              		.loc 1 181 27 is_stmt 0 view .LVU447
 1197 02c8 10F82310 		ldrb	r1, [r0, r3, lsl #2]	@ zero_extendqisi2
 181:mavlink/minimal/../mavlink_sha256.h **** 	    }
 1198              		.loc 1 181 23 view .LVU448
 1199 02cc D170     		strb	r1, [r2, #3]
 1200              	.LBE90:
 175:mavlink/minimal/../mavlink_sha256.h ****                 const uint8_t *p1 = (const uint8_t *)&u[i];
 1201              		.loc 1 175 26 is_stmt 1 view .LVU449
 175:mavlink/minimal/../mavlink_sha256.h ****                 const uint8_t *p1 = (const uint8_t *)&u[i];
 1202              		.loc 1 175 27 is_stmt 0 view .LVU450
 1203 02ce 0133     		adds	r3, r3, #1
 1204              	.LVL144:
 175:mavlink/minimal/../mavlink_sha256.h ****                 const uint8_t *p1 = (const uint8_t *)&u[i];
 1205              		.loc 1 175 27 view .LVU451
 1206 02d0 EAE7     		b	.L44
 1207              	.LVL145:
 1208              	.L83:
 183:mavlink/minimal/../mavlink_sha256.h **** 	    offset = 0;
 1209              		.loc 1 183 6 is_stmt 1 view .LVU452
 1210 02d2 12A9     		add	r1, sp, #72
 1211 02d4 26A8     		add	r0, sp, #152
 1212              	.LVL146:
 183:mavlink/minimal/../mavlink_sha256.h **** 	    offset = 0;
 1213              		.loc 1 183 6 is_stmt 0 view .LVU453
 1214 02d6 FFF7FEFF 		bl	mavlink_sha256_calc
 1215              	.LVL147:
 1216              		.loc 1 184 6 is_stmt 1 view .LVU454
 1217              		.loc 1 184 13 is_stmt 0 view .LVU455
 1218 02da A846     		mov	r8, r5
 1219 02dc DCE7     		b	.L42
 1220              	.L87:
 1221 02de 00BF     		.align	2
 1222              	.L86:
 1223 02e0 67E6096A 		.word	1779033703
 1224 02e4 85AE67BB 		.word	-1150833019
 1225 02e8 72F36E3C 		.word	1013904242
 1226 02ec 3AF54FA5 		.word	-1521486534
 1227 02f0 7F520E51 		.word	1359893119
 1228 02f4 8C68059B 		.word	-1694144372
 1229 02f8 ABD9831F 		.word	528734635
 1230              	.LVL148:
 1231              	.L82:
 1232              		.loc 1 184 13 view .LVU456
 1233              	.LBE89:
 1234              	.LBE91:
 1235              	.LBE87:
 1236              	.LBE86:
  98:mavlink/minimal/../mavlink_helpers.h **** 	
 1237              		.loc 2 98 2 is_stmt 1 view .LVU457
 1238 02fc 009B     		ldr	r3, [sp]
 1239 02fe DF1D     		adds	r7, r3, #7
 1240              	.LVL149:
 1241              	.LBB92:
ARM GAS  /tmp/ccrjRHai.s 			page 33


 1242              	.LBI92:
 185:mavlink/minimal/../mavlink_sha256.h **** 	}
 186:mavlink/minimal/../mavlink_sha256.h ****     }
 187:mavlink/minimal/../mavlink_sha256.h **** }
 188:mavlink/minimal/../mavlink_sha256.h **** 
 189:mavlink/minimal/../mavlink_sha256.h **** /*
 190:mavlink/minimal/../mavlink_sha256.h ****   get first 48 bits of final sha256 hash
 191:mavlink/minimal/../mavlink_sha256.h ****  */
 192:mavlink/minimal/../mavlink_sha256.h **** MAVLINK_HELPER void mavlink_sha256_final_48(mavlink_sha256_ctx *m, uint8_t result[6])
 1243              		.loc 1 192 21 view .LVU458
 1244              	.LBB93:
 193:mavlink/minimal/../mavlink_sha256.h **** {
 194:mavlink/minimal/../mavlink_sha256.h ****     unsigned char zeros[72];
 1245              		.loc 1 194 5 view .LVU459
 195:mavlink/minimal/../mavlink_sha256.h ****     unsigned offset = (m->sz[0] / 8) % 64;
 1246              		.loc 1 195 5 view .LVU460
 1247              		.loc 1 195 29 is_stmt 0 view .LVU461
 1248 0300 269B     		ldr	r3, [sp, #152]
 1249              		.loc 1 195 33 view .LVU462
 1250 0302 DD08     		lsrs	r5, r3, #3
 1251              	.LVL150:
 196:mavlink/minimal/../mavlink_sha256.h ****     unsigned int dstart = (120 - offset - 1) % 64 + 1;
 1252              		.loc 1 196 5 is_stmt 1 view .LVU463
 1253 0304 C5F17705 		rsb	r5, r5, #119
 1254              	.LVL151:
 1255              		.loc 1 196 5 is_stmt 0 view .LVU464
 1256 0308 05F03F05 		and	r5, r5, #63
 197:mavlink/minimal/../mavlink_sha256.h ****     uint8_t *p = (uint8_t *)&m->counter[0];
 1257              		.loc 1 197 5 is_stmt 1 view .LVU465
 1258              	.LVL152:
 198:mavlink/minimal/../mavlink_sha256.h ****     
 199:mavlink/minimal/../mavlink_sha256.h ****     *zeros = 0x80;
 1259              		.loc 1 199 5 view .LVU466
 1260              		.loc 1 199 12 is_stmt 0 view .LVU467
 1261 030c 8023     		movs	r3, #128
 1262              	.LVL153:
 1263              		.loc 1 199 12 view .LVU468
 1264 030e 8DF84830 		strb	r3, [sp, #72]
 200:mavlink/minimal/../mavlink_sha256.h ****     memset (zeros + 1, 0, sizeof(zeros) - 1);
 1265              		.loc 1 200 5 is_stmt 1 view .LVU469
 1266 0312 4722     		movs	r2, #71
 1267 0314 0021     		movs	r1, #0
 1268 0316 0DF14900 		add	r0, sp, #73
 1269 031a FFF7FEFF 		bl	memset
 1270              	.LVL154:
 201:mavlink/minimal/../mavlink_sha256.h ****     zeros[dstart+7] = (m->sz[0] >> 0) & 0xff;
 1271              		.loc 1 201 5 view .LVU470
 1272              		.loc 1 201 33 is_stmt 0 view .LVU471
 1273 031e 269B     		ldr	r3, [sp, #152]
 1274              		.loc 1 201 21 view .LVU472
 1275 0320 05F58472 		add	r2, r5, #264
 1276 0324 6A44     		add	r2, sp, r2
 1277 0326 02F8B83C 		strb	r3, [r2, #-184]
 202:mavlink/minimal/../mavlink_sha256.h ****     zeros[dstart+6] = (m->sz[0] >> 8) & 0xff;
 1278              		.loc 1 202 5 is_stmt 1 view .LVU473
 1279              		.loc 1 202 33 is_stmt 0 view .LVU474
 1280 032a 190A     		lsrs	r1, r3, #8
ARM GAS  /tmp/ccrjRHai.s 			page 34


 1281              		.loc 1 202 21 view .LVU475
 1282 032c 05F20712 		addw	r2, r5, #263
 1283 0330 6A44     		add	r2, sp, r2
 1284 0332 02F8B81C 		strb	r1, [r2, #-184]
 203:mavlink/minimal/../mavlink_sha256.h ****     zeros[dstart+5] = (m->sz[0] >> 16) & 0xff;
 1285              		.loc 1 203 5 is_stmt 1 view .LVU476
 1286              		.loc 1 203 33 is_stmt 0 view .LVU477
 1287 0336 190C     		lsrs	r1, r3, #16
 1288              		.loc 1 203 21 view .LVU478
 1289 0338 05F58372 		add	r2, r5, #262
 1290 033c 6A44     		add	r2, sp, r2
 1291 033e 02F8B81C 		strb	r1, [r2, #-184]
 204:mavlink/minimal/../mavlink_sha256.h ****     zeros[dstart+4] = (m->sz[0] >> 24) & 0xff;
 1292              		.loc 1 204 5 is_stmt 1 view .LVU479
 1293              		.loc 1 204 33 is_stmt 0 view .LVU480
 1294 0342 190E     		lsrs	r1, r3, #24
 1295              		.loc 1 204 21 view .LVU481
 1296 0344 05F20512 		addw	r2, r5, #261
 1297 0348 6A44     		add	r2, sp, r2
 1298 034a 02F8B81C 		strb	r1, [r2, #-184]
 205:mavlink/minimal/../mavlink_sha256.h ****     zeros[dstart+3] = (m->sz[1] >> 0) & 0xff;
 1299              		.loc 1 205 5 is_stmt 1 view .LVU482
 1300              		.loc 1 205 33 is_stmt 0 view .LVU483
 1301 034e 279A     		ldr	r2, [sp, #156]
 1302              		.loc 1 205 21 view .LVU484
 1303 0350 05F58271 		add	r1, r5, #260
 1304 0354 6944     		add	r1, sp, r1
 1305 0356 01F8B82C 		strb	r2, [r1, #-184]
 206:mavlink/minimal/../mavlink_sha256.h ****     zeros[dstart+2] = (m->sz[1] >> 8) & 0xff;
 1306              		.loc 1 206 5 is_stmt 1 view .LVU485
 1307              		.loc 1 206 33 is_stmt 0 view .LVU486
 1308 035a 100A     		lsrs	r0, r2, #8
 1309              		.loc 1 206 21 view .LVU487
 1310 035c 05F20311 		addw	r1, r5, #259
 1311 0360 6944     		add	r1, sp, r1
 1312 0362 01F8B80C 		strb	r0, [r1, #-184]
 207:mavlink/minimal/../mavlink_sha256.h ****     zeros[dstart+1] = (m->sz[1] >> 16) & 0xff;
 1313              		.loc 1 207 5 is_stmt 1 view .LVU488
 1314              		.loc 1 207 33 is_stmt 0 view .LVU489
 1315 0366 100C     		lsrs	r0, r2, #16
 1316              		.loc 1 207 21 view .LVU490
 1317 0368 05F58171 		add	r1, r5, #258
 1318 036c 6944     		add	r1, sp, r1
 1319 036e 01F8B80C 		strb	r0, [r1, #-184]
 208:mavlink/minimal/../mavlink_sha256.h ****     zeros[dstart+0] = (m->sz[1] >> 24) & 0xff;
 1320              		.loc 1 208 5 is_stmt 1 view .LVU491
 1321              		.loc 1 208 33 is_stmt 0 view .LVU492
 1322 0372 120E     		lsrs	r2, r2, #24
 1323              		.loc 1 208 21 view .LVU493
 1324 0374 05F20111 		addw	r1, r5, #257
 1325 0378 0DEB0106 		add	r6, sp, r1
 1326 037c 06F8B82C 		strb	r2, [r6, #-184]
 209:mavlink/minimal/../mavlink_sha256.h **** 
 210:mavlink/minimal/../mavlink_sha256.h ****     mavlink_sha256_update(m, zeros, dstart + 8);
 1327              		.loc 1 210 5 is_stmt 1 view .LVU494
 1328              		.loc 1 210 44 is_stmt 0 view .LVU495
 1329 0380 0935     		adds	r5, r5, #9
ARM GAS  /tmp/ccrjRHai.s 			page 35


 1330              	.LVL155:
 1331              	.LBB94:
 1332              	.LBI94:
 152:mavlink/minimal/../mavlink_sha256.h **** {
 1333              		.loc 1 152 21 is_stmt 1 view .LVU496
 1334              	.LBB95:
 154:mavlink/minimal/../mavlink_sha256.h ****     uint32_t old_sz = m->sz[0];
 1335              		.loc 1 154 5 view .LVU497
 155:mavlink/minimal/../mavlink_sha256.h ****     uint32_t offset;
 1336              		.loc 1 155 5 view .LVU498
 156:mavlink/minimal/../mavlink_sha256.h **** 
 1337              		.loc 1 156 5 view .LVU499
 158:mavlink/minimal/../mavlink_sha256.h ****     if (m->sz[0] < old_sz)
 1338              		.loc 1 158 5 view .LVU500
 158:mavlink/minimal/../mavlink_sha256.h ****     if (m->sz[0] < old_sz)
 1339              		.loc 1 158 14 is_stmt 0 view .LVU501
 1340 0382 03EBC502 		add	r2, r3, r5, lsl #3
 1341 0386 2692     		str	r2, [sp, #152]
 159:mavlink/minimal/../mavlink_sha256.h **** 	++m->sz[1];
 1342              		.loc 1 159 5 is_stmt 1 view .LVU502
 159:mavlink/minimal/../mavlink_sha256.h **** 	++m->sz[1];
 1343              		.loc 1 159 8 is_stmt 0 view .LVU503
 1344 0388 9342     		cmp	r3, r2
 1345 038a 02D9     		bls	.L48
 160:mavlink/minimal/../mavlink_sha256.h ****     offset = (old_sz / 8) % 64;
 1346              		.loc 1 160 2 is_stmt 1 view .LVU504
 160:mavlink/minimal/../mavlink_sha256.h ****     offset = (old_sz / 8) % 64;
 1347              		.loc 1 160 9 is_stmt 0 view .LVU505
 1348 038c 279A     		ldr	r2, [sp, #156]
 160:mavlink/minimal/../mavlink_sha256.h ****     offset = (old_sz / 8) % 64;
 1349              		.loc 1 160 2 view .LVU506
 1350 038e 0132     		adds	r2, r2, #1
 1351 0390 2792     		str	r2, [sp, #156]
 1352              	.L48:
 161:mavlink/minimal/../mavlink_sha256.h ****     while(len > 0){
 1353              		.loc 1 161 5 is_stmt 1 view .LVU507
 161:mavlink/minimal/../mavlink_sha256.h ****     while(len > 0){
 1354              		.loc 1 161 12 is_stmt 0 view .LVU508
 1355 0392 C3F3C509 		ubfx	r9, r3, #3, #6
 1356              	.LVL156:
 162:mavlink/minimal/../mavlink_sha256.h **** 	uint32_t l = 64 - offset;
 1357              		.loc 1 162 5 is_stmt 1 view .LVU509
 154:mavlink/minimal/../mavlink_sha256.h ****     uint32_t old_sz = m->sz[0];
 1358              		.loc 1 154 26 is_stmt 0 view .LVU510
 1359 0396 12AE     		add	r6, sp, #72
 1360              	.LVL157:
 162:mavlink/minimal/../mavlink_sha256.h **** 	uint32_t l = 64 - offset;
 1361              		.loc 1 162 10 view .LVU511
 1362 0398 0DE0     		b	.L49
 1363              	.LVL158:
 1364              	.L50:
 1365              	.LBB96:
 167:mavlink/minimal/../mavlink_sha256.h **** 	offset += l;
 1366              		.loc 1 167 2 is_stmt 1 view .LVU512
 1367 039a 4246     		mov	r2, r8
 1368 039c 3146     		mov	r1, r6
 1369 039e 30AB     		add	r3, sp, #192
ARM GAS  /tmp/ccrjRHai.s 			page 36


 1370 03a0 03EB0900 		add	r0, r3, r9
 1371 03a4 FFF7FEFF 		bl	memcpy
 1372              	.LVL159:
 168:mavlink/minimal/../mavlink_sha256.h **** 	p += l;
 1373              		.loc 1 168 2 view .LVU513
 168:mavlink/minimal/../mavlink_sha256.h **** 	p += l;
 1374              		.loc 1 168 9 is_stmt 0 view .LVU514
 1375 03a8 C144     		add	r9, r9, r8
 1376              	.LVL160:
 169:mavlink/minimal/../mavlink_sha256.h **** 	len -= l;
 1377              		.loc 1 169 2 is_stmt 1 view .LVU515
 169:mavlink/minimal/../mavlink_sha256.h **** 	len -= l;
 1378              		.loc 1 169 4 is_stmt 0 view .LVU516
 1379 03aa 4644     		add	r6, r6, r8
 1380              	.LVL161:
 170:mavlink/minimal/../mavlink_sha256.h **** 	if(offset == 64){
 1381              		.loc 1 170 2 is_stmt 1 view .LVU517
 170:mavlink/minimal/../mavlink_sha256.h **** 	if(offset == 64){
 1382              		.loc 1 170 6 is_stmt 0 view .LVU518
 1383 03ac A5EB0805 		sub	r5, r5, r8
 1384              	.LVL162:
 171:mavlink/minimal/../mavlink_sha256.h **** 	    int i;
 1385              		.loc 1 171 2 is_stmt 1 view .LVU519
 171:mavlink/minimal/../mavlink_sha256.h **** 	    int i;
 1386              		.loc 1 171 4 is_stmt 0 view .LVU520
 1387 03b0 B9F1400F 		cmp	r9, #64
 1388 03b4 24D0     		beq	.L84
 1389              	.LVL163:
 1390              	.L49:
 171:mavlink/minimal/../mavlink_sha256.h **** 	    int i;
 1391              		.loc 1 171 4 view .LVU521
 1392              	.LBE96:
 162:mavlink/minimal/../mavlink_sha256.h **** 	uint32_t l = 64 - offset;
 1393              		.loc 1 162 10 is_stmt 1 view .LVU522
 1394 03b6 2DB3     		cbz	r5, .L85
 1395              	.LBB99:
 163:mavlink/minimal/../mavlink_sha256.h ****         if (len < l) {
 1396              		.loc 1 163 2 view .LVU523
 163:mavlink/minimal/../mavlink_sha256.h ****         if (len < l) {
 1397              		.loc 1 163 11 is_stmt 0 view .LVU524
 1398 03b8 C9F14008 		rsb	r8, r9, #64
 1399              	.LVL164:
 164:mavlink/minimal/../mavlink_sha256.h ****             l = len;
 1400              		.loc 1 164 9 is_stmt 1 view .LVU525
 164:mavlink/minimal/../mavlink_sha256.h ****             l = len;
 1401              		.loc 1 164 12 is_stmt 0 view .LVU526
 1402 03bc A845     		cmp	r8, r5
 1403 03be ECD9     		bls	.L50
 165:mavlink/minimal/../mavlink_sha256.h ****         }
 1404              		.loc 1 165 15 view .LVU527
 1405 03c0 A846     		mov	r8, r5
 1406              	.LVL165:
 165:mavlink/minimal/../mavlink_sha256.h ****         }
 1407              		.loc 1 165 15 view .LVU528
 1408 03c2 EAE7     		b	.L50
 1409              	.LVL166:
 1410              	.L53:
ARM GAS  /tmp/ccrjRHai.s 			page 37


 1411              	.LBB97:
 1412              	.LBB98:
 176:mavlink/minimal/../mavlink_sha256.h ****                 uint8_t *p2 = (uint8_t *)&current[i];
 1413              		.loc 1 176 17 is_stmt 1 view .LVU529
 176:mavlink/minimal/../mavlink_sha256.h ****                 uint8_t *p2 = (uint8_t *)&current[i];
 1414              		.loc 1 176 32 is_stmt 0 view .LVU530
 1415 03c4 30A8     		add	r0, sp, #192
 1416 03c6 00EB8301 		add	r1, r0, r3, lsl #2
 1417              	.LVL167:
 177:mavlink/minimal/../mavlink_sha256.h ****                 p2[0] = p1[3];
 1418              		.loc 1 177 17 is_stmt 1 view .LVU531
 177:mavlink/minimal/../mavlink_sha256.h ****                 p2[0] = p1[3];
 1419              		.loc 1 177 26 is_stmt 0 view .LVU532
 1420 03ca 02AA     		add	r2, sp, #8
 1421 03cc 02EB8302 		add	r2, r2, r3, lsl #2
 1422              	.LVL168:
 178:mavlink/minimal/../mavlink_sha256.h ****                 p2[1] = p1[2];
 1423              		.loc 1 178 17 is_stmt 1 view .LVU533
 178:mavlink/minimal/../mavlink_sha256.h ****                 p2[1] = p1[2];
 1424              		.loc 1 178 23 is_stmt 0 view .LVU534
 1425 03d0 91F803C0 		ldrb	ip, [r1, #3]	@ zero_extendqisi2
 1426 03d4 0DF1080E 		add	lr, sp, #8
 1427 03d8 0EF823C0 		strb	ip, [lr, r3, lsl #2]
 179:mavlink/minimal/../mavlink_sha256.h ****                 p2[2] = p1[1];
 1428              		.loc 1 179 17 is_stmt 1 view .LVU535
 179:mavlink/minimal/../mavlink_sha256.h ****                 p2[2] = p1[1];
 1429              		.loc 1 179 23 is_stmt 0 view .LVU536
 1430 03dc 91F802C0 		ldrb	ip, [r1, #2]	@ zero_extendqisi2
 1431 03e0 82F801C0 		strb	ip, [r2, #1]
 180:mavlink/minimal/../mavlink_sha256.h ****                 p2[3] = p1[0];
 1432              		.loc 1 180 17 is_stmt 1 view .LVU537
 180:mavlink/minimal/../mavlink_sha256.h ****                 p2[3] = p1[0];
 1433              		.loc 1 180 23 is_stmt 0 view .LVU538
 1434 03e4 4978     		ldrb	r1, [r1, #1]	@ zero_extendqisi2
 1435              	.LVL169:
 180:mavlink/minimal/../mavlink_sha256.h ****                 p2[3] = p1[0];
 1436              		.loc 1 180 23 view .LVU539
 1437 03e6 9170     		strb	r1, [r2, #2]
 181:mavlink/minimal/../mavlink_sha256.h **** 	    }
 1438              		.loc 1 181 17 is_stmt 1 view .LVU540
 181:mavlink/minimal/../mavlink_sha256.h **** 	    }
 1439              		.loc 1 181 27 is_stmt 0 view .LVU541
 1440 03e8 10F82310 		ldrb	r1, [r0, r3, lsl #2]	@ zero_extendqisi2
 181:mavlink/minimal/../mavlink_sha256.h **** 	    }
 1441              		.loc 1 181 23 view .LVU542
 1442 03ec D170     		strb	r1, [r2, #3]
 1443              	.LBE98:
 175:mavlink/minimal/../mavlink_sha256.h ****                 const uint8_t *p1 = (const uint8_t *)&u[i];
 1444              		.loc 1 175 26 is_stmt 1 view .LVU543
 175:mavlink/minimal/../mavlink_sha256.h ****                 const uint8_t *p1 = (const uint8_t *)&u[i];
 1445              		.loc 1 175 27 is_stmt 0 view .LVU544
 1446 03ee 0133     		adds	r3, r3, #1
 1447              	.LVL170:
 1448              	.L51:
 175:mavlink/minimal/../mavlink_sha256.h ****                 const uint8_t *p1 = (const uint8_t *)&u[i];
 1449              		.loc 1 175 18 is_stmt 1 view .LVU545
 175:mavlink/minimal/../mavlink_sha256.h ****                 const uint8_t *p1 = (const uint8_t *)&u[i];
ARM GAS  /tmp/ccrjRHai.s 			page 38


 1450              		.loc 1 175 6 is_stmt 0 view .LVU546
 1451 03f0 0F2B     		cmp	r3, #15
 1452 03f2 E7DD     		ble	.L53
 183:mavlink/minimal/../mavlink_sha256.h **** 	    offset = 0;
 1453              		.loc 1 183 6 is_stmt 1 view .LVU547
 1454 03f4 02A9     		add	r1, sp, #8
 1455 03f6 26A8     		add	r0, sp, #152
 1456              	.LVL171:
 183:mavlink/minimal/../mavlink_sha256.h **** 	    offset = 0;
 1457              		.loc 1 183 6 is_stmt 0 view .LVU548
 1458 03f8 FFF7FEFF 		bl	mavlink_sha256_calc
 1459              	.LVL172:
 184:mavlink/minimal/../mavlink_sha256.h **** 	}
 1460              		.loc 1 184 6 is_stmt 1 view .LVU549
 184:mavlink/minimal/../mavlink_sha256.h **** 	}
 1461              		.loc 1 184 13 is_stmt 0 view .LVU550
 1462 03fc A146     		mov	r9, r4
 1463 03fe DAE7     		b	.L49
 1464              	.LVL173:
 1465              	.L84:
 175:mavlink/minimal/../mavlink_sha256.h ****                 const uint8_t *p1 = (const uint8_t *)&u[i];
 1466              		.loc 1 175 13 view .LVU551
 1467 0400 0023     		movs	r3, #0
 1468 0402 F5E7     		b	.L51
 1469              	.LVL174:
 1470              	.L85:
 175:mavlink/minimal/../mavlink_sha256.h ****                 const uint8_t *p1 = (const uint8_t *)&u[i];
 1471              		.loc 1 175 13 view .LVU552
 1472              	.LBE97:
 1473              	.LBE99:
 1474              	.LBE95:
 1475              	.LBE94:
 211:mavlink/minimal/../mavlink_sha256.h **** 
 212:mavlink/minimal/../mavlink_sha256.h ****     // this ordering makes the result consistent with taking the first
 213:mavlink/minimal/../mavlink_sha256.h ****     // 6 bytes of more conventional sha256 functions. It assumes
 214:mavlink/minimal/../mavlink_sha256.h ****     // little-endian ordering of m->counter
 215:mavlink/minimal/../mavlink_sha256.h ****     result[0] = p[3];
 1476              		.loc 1 215 5 is_stmt 1 view .LVU553
 1477              		.loc 1 215 15 is_stmt 0 view .LVU554
 1478 0404 9DF8A330 		ldrb	r3, [sp, #163]	@ zero_extendqisi2
 1479 0408 009A     		ldr	r2, [sp]
 1480 040a D371     		strb	r3, [r2, #7]
 216:mavlink/minimal/../mavlink_sha256.h ****     result[1] = p[2];
 1481              		.loc 1 216 5 is_stmt 1 view .LVU555
 1482              		.loc 1 216 15 is_stmt 0 view .LVU556
 1483 040c 9DF8A230 		ldrb	r3, [sp, #162]	@ zero_extendqisi2
 1484 0410 7B70     		strb	r3, [r7, #1]
 217:mavlink/minimal/../mavlink_sha256.h ****     result[2] = p[1];
 1485              		.loc 1 217 5 is_stmt 1 view .LVU557
 1486              		.loc 1 217 15 is_stmt 0 view .LVU558
 1487 0412 9DF8A130 		ldrb	r3, [sp, #161]	@ zero_extendqisi2
 1488 0416 BB70     		strb	r3, [r7, #2]
 218:mavlink/minimal/../mavlink_sha256.h ****     result[3] = p[0];
 1489              		.loc 1 218 5 is_stmt 1 view .LVU559
 1490              		.loc 1 218 18 is_stmt 0 view .LVU560
 1491 0418 9DF8A030 		ldrb	r3, [sp, #160]	@ zero_extendqisi2
 1492              		.loc 1 218 15 view .LVU561
ARM GAS  /tmp/ccrjRHai.s 			page 39


 1493 041c FB70     		strb	r3, [r7, #3]
 219:mavlink/minimal/../mavlink_sha256.h ****     result[4] = p[7];
 1494              		.loc 1 219 5 is_stmt 1 view .LVU562
 1495              		.loc 1 219 15 is_stmt 0 view .LVU563
 1496 041e 9DF8A730 		ldrb	r3, [sp, #167]	@ zero_extendqisi2
 1497 0422 3B71     		strb	r3, [r7, #4]
 220:mavlink/minimal/../mavlink_sha256.h ****     result[5] = p[6];
 1498              		.loc 1 220 5 is_stmt 1 view .LVU564
 1499              		.loc 1 220 15 is_stmt 0 view .LVU565
 1500 0424 9DF8A630 		ldrb	r3, [sp, #166]	@ zero_extendqisi2
 1501 0428 7B71     		strb	r3, [r7, #5]
 1502              	.LBE93:
 1503              	.LBE92:
 100:mavlink/minimal/../mavlink_helpers.h **** }
 1504              		.loc 2 100 9 view .LVU566
 1505 042a 0D20     		movs	r0, #13
 1506              	.LBB101:
 1507              	.LBB100:
 221:mavlink/minimal/../mavlink_sha256.h **** }
 1508              		.loc 1 221 1 view .LVU567
 1509 042c FCE5     		b	.L12
 1510              	.LVL175:
 1511              	.L55:
 1512              		.loc 1 221 1 view .LVU568
 1513              	.LBE100:
 1514              	.LBE101:
  85:mavlink/minimal/../mavlink_helpers.h **** 	}
 1515              		.loc 2 85 13 view .LVU569
 1516 042e 0020     		movs	r0, #0
 1517              	.LVL176:
  85:mavlink/minimal/../mavlink_helpers.h **** 	}
 1518              		.loc 2 85 13 view .LVU570
 1519 0430 FAE5     		b	.L12
 1520              		.cfi_endproc
 1521              	.LFE766:
 1523 0432 00BF     		.section	.text.USBTask_Run,"ax",%progbits
 1524              		.align	1
 1525              		.global	USBTask_Run
 1526              		.syntax unified
 1527              		.thumb
 1528              		.thumb_func
 1530              	USBTask_Run:
 1531              	.LVL177:
 1532              	.LFB4308:
 1533              		.file 3 "Core/Src/freertos.c"
   1:Core/Src/freertos.c **** /* USER CODE BEGIN Header */
   2:Core/Src/freertos.c **** /**
   3:Core/Src/freertos.c ****   ******************************************************************************
   4:Core/Src/freertos.c ****   * File Name          : freertos.c
   5:Core/Src/freertos.c ****   * Description        : Code for freertos applications
   6:Core/Src/freertos.c ****   ******************************************************************************
   7:Core/Src/freertos.c ****   * @attention
   8:Core/Src/freertos.c ****   *
   9:Core/Src/freertos.c ****   * Copyright (c) 2025 STMicroelectronics.
  10:Core/Src/freertos.c ****   * All rights reserved.
  11:Core/Src/freertos.c ****   *
  12:Core/Src/freertos.c ****   * This software is licensed under terms that can be found in the LICENSE file
ARM GAS  /tmp/ccrjRHai.s 			page 40


  13:Core/Src/freertos.c ****   * in the root directory of this software component.
  14:Core/Src/freertos.c ****   * If no LICENSE file comes with this software, it is provided AS-IS.
  15:Core/Src/freertos.c ****   *
  16:Core/Src/freertos.c ****   ******************************************************************************
  17:Core/Src/freertos.c ****   */
  18:Core/Src/freertos.c **** /* USER CODE END Header */
  19:Core/Src/freertos.c **** 
  20:Core/Src/freertos.c **** /* Includes ------------------------------------------------------------------*/
  21:Core/Src/freertos.c **** #include "FreeRTOS.h"
  22:Core/Src/freertos.c **** #include "task.h"
  23:Core/Src/freertos.c **** #include "main.h"
  24:Core/Src/freertos.c **** #include "cmsis_os.h"
  25:Core/Src/freertos.c **** 
  26:Core/Src/freertos.c **** /* Private includes ----------------------------------------------------------*/
  27:Core/Src/freertos.c **** /* USER CODE BEGIN Includes */
  28:Core/Src/freertos.c **** #include "SensorTask.h"
  29:Core/Src/freertos.c **** #include "strings.h"
  30:Core/Src/freertos.c **** #include <stdio.h>
  31:Core/Src/freertos.c **** #include <stdlib.h>
  32:Core/Src/freertos.c **** #include "usbd_cdc_if.h"
  33:Core/Src/freertos.c **** #include "minimal/mavlink.h"
  34:Core/Src/freertos.c **** #include "common/mavlink.h"
  35:Core/Src/freertos.c **** #include "common/common.h"
  36:Core/Src/freertos.c **** 
  37:Core/Src/freertos.c **** /* USER CODE END Includes */
  38:Core/Src/freertos.c **** 
  39:Core/Src/freertos.c **** /* Private typedef -----------------------------------------------------------*/
  40:Core/Src/freertos.c **** /* USER CODE BEGIN PTD */
  41:Core/Src/freertos.c **** 
  42:Core/Src/freertos.c **** /* USER CODE END PTD */
  43:Core/Src/freertos.c **** 
  44:Core/Src/freertos.c **** /* Private define ------------------------------------------------------------*/
  45:Core/Src/freertos.c **** /* USER CODE BEGIN PD */
  46:Core/Src/freertos.c **** 
  47:Core/Src/freertos.c **** /* USER CODE END PD */
  48:Core/Src/freertos.c **** 
  49:Core/Src/freertos.c **** /* Private macro -------------------------------------------------------------*/
  50:Core/Src/freertos.c **** /* USER CODE BEGIN PM */
  51:Core/Src/freertos.c **** 
  52:Core/Src/freertos.c **** /* USER CODE END PM */
  53:Core/Src/freertos.c **** 
  54:Core/Src/freertos.c **** /* Private variables ---------------------------------------------------------*/
  55:Core/Src/freertos.c **** /* USER CODE BEGIN Variables */
  56:Core/Src/freertos.c **** uint8_t buf[MAVLINK_MAX_PACKET_LEN];
  57:Core/Src/freertos.c **** mavlink_message_t heart_beat;
  58:Core/Src/freertos.c **** mavlink_message_t attitude_msg;
  59:Core/Src/freertos.c **** uint16_t len;
  60:Core/Src/freertos.c **** 
  61:Core/Src/freertos.c **** /* USER CODE END Variables */
  62:Core/Src/freertos.c **** osThreadId USBTaskHandle;
  63:Core/Src/freertos.c **** 
  64:Core/Src/freertos.c **** /* Private function prototypes -----------------------------------------------*/
  65:Core/Src/freertos.c **** /* USER CODE BEGIN FunctionPrototypes */
  66:Core/Src/freertos.c **** 
  67:Core/Src/freertos.c **** /* USER CODE END FunctionPrototypes */
  68:Core/Src/freertos.c **** 
  69:Core/Src/freertos.c **** void USBTask_Run(void const * argument);
ARM GAS  /tmp/ccrjRHai.s 			page 41


  70:Core/Src/freertos.c **** 
  71:Core/Src/freertos.c **** extern void MX_USB_DEVICE_Init(void);
  72:Core/Src/freertos.c **** void MX_FREERTOS_Init(void); /* (MISRA C 2004 rule 8.1) */
  73:Core/Src/freertos.c **** 
  74:Core/Src/freertos.c **** /* GetIdleTaskMemory prototype (linked to static allocation support) */
  75:Core/Src/freertos.c **** void vApplicationGetIdleTaskMemory( StaticTask_t **ppxIdleTaskTCBBuffer, StackType_t **ppxIdleTaskS
  76:Core/Src/freertos.c **** 
  77:Core/Src/freertos.c **** /* GetTimerTaskMemory prototype (linked to static allocation support) */
  78:Core/Src/freertos.c **** void vApplicationGetTimerTaskMemory( StaticTask_t **ppxTimerTaskTCBBuffer, StackType_t **ppxTimerTa
  79:Core/Src/freertos.c **** 
  80:Core/Src/freertos.c **** /* Hook prototypes */
  81:Core/Src/freertos.c **** void vApplicationStackOverflowHook(xTaskHandle xTask, signed char *pcTaskName);
  82:Core/Src/freertos.c **** 
  83:Core/Src/freertos.c **** /* USER CODE BEGIN 4 */
  84:Core/Src/freertos.c **** __weak void vApplicationStackOverflowHook(xTaskHandle xTask, signed char *pcTaskName)
  85:Core/Src/freertos.c **** {
  86:Core/Src/freertos.c ****    /* Run time stack overflow checking is performed if
  87:Core/Src/freertos.c ****    configCHECK_FOR_STACK_OVERFLOW is defined to 1 or 2. This hook function is
  88:Core/Src/freertos.c ****    called if a stack overflow is detected. */
  89:Core/Src/freertos.c **** }
  90:Core/Src/freertos.c **** /* USER CODE END 4 */
  91:Core/Src/freertos.c **** 
  92:Core/Src/freertos.c **** /* USER CODE BEGIN GET_IDLE_TASK_MEMORY */
  93:Core/Src/freertos.c **** static StaticTask_t xIdleTaskTCBBuffer;
  94:Core/Src/freertos.c **** static StackType_t xIdleStack[configMINIMAL_STACK_SIZE];
  95:Core/Src/freertos.c **** 
  96:Core/Src/freertos.c **** void vApplicationGetIdleTaskMemory( StaticTask_t **ppxIdleTaskTCBBuffer, StackType_t **ppxIdleTaskS
  97:Core/Src/freertos.c **** {
  98:Core/Src/freertos.c ****   *ppxIdleTaskTCBBuffer = &xIdleTaskTCBBuffer;
  99:Core/Src/freertos.c ****   *ppxIdleTaskStackBuffer = &xIdleStack[0];
 100:Core/Src/freertos.c ****   *pulIdleTaskStackSize = configMINIMAL_STACK_SIZE;
 101:Core/Src/freertos.c ****   /* place for user code */
 102:Core/Src/freertos.c **** }
 103:Core/Src/freertos.c **** /* USER CODE END GET_IDLE_TASK_MEMORY */
 104:Core/Src/freertos.c **** 
 105:Core/Src/freertos.c **** /* USER CODE BEGIN GET_TIMER_TASK_MEMORY */
 106:Core/Src/freertos.c **** static StaticTask_t xTimerTaskTCBBuffer;
 107:Core/Src/freertos.c **** static StackType_t xTimerStack[configTIMER_TASK_STACK_DEPTH];
 108:Core/Src/freertos.c **** 
 109:Core/Src/freertos.c **** void vApplicationGetTimerTaskMemory( StaticTask_t **ppxTimerTaskTCBBuffer, StackType_t **ppxTimerTa
 110:Core/Src/freertos.c **** {
 111:Core/Src/freertos.c ****   *ppxTimerTaskTCBBuffer = &xTimerTaskTCBBuffer;
 112:Core/Src/freertos.c ****   *ppxTimerTaskStackBuffer = &xTimerStack[0];
 113:Core/Src/freertos.c ****   *pulTimerTaskStackSize = configTIMER_TASK_STACK_DEPTH;
 114:Core/Src/freertos.c ****   /* place for user code */
 115:Core/Src/freertos.c **** }
 116:Core/Src/freertos.c **** /* USER CODE END GET_TIMER_TASK_MEMORY */
 117:Core/Src/freertos.c **** 
 118:Core/Src/freertos.c **** /**
 119:Core/Src/freertos.c ****   * @brief  FreeRTOS initialization
 120:Core/Src/freertos.c ****   * @param  None
 121:Core/Src/freertos.c ****   * @retval None
 122:Core/Src/freertos.c ****   */
 123:Core/Src/freertos.c **** void MX_FREERTOS_Init(void) {
 124:Core/Src/freertos.c ****   /* USER CODE BEGIN Init */
 125:Core/Src/freertos.c **** 
 126:Core/Src/freertos.c ****   /* USER CODE END Init */
ARM GAS  /tmp/ccrjRHai.s 			page 42


 127:Core/Src/freertos.c **** 
 128:Core/Src/freertos.c ****   /* USER CODE BEGIN RTOS_MUTEX */
 129:Core/Src/freertos.c ****   /* add mutexes, ... */
 130:Core/Src/freertos.c ****   /* USER CODE END RTOS_MUTEX */
 131:Core/Src/freertos.c **** 
 132:Core/Src/freertos.c ****   /* USER CODE BEGIN RTOS_SEMAPHORES */
 133:Core/Src/freertos.c ****   /* add semaphores, ... */
 134:Core/Src/freertos.c ****   /* USER CODE END RTOS_SEMAPHORES */
 135:Core/Src/freertos.c **** 
 136:Core/Src/freertos.c ****   /* USER CODE BEGIN RTOS_TIMERS */
 137:Core/Src/freertos.c ****   /* start timers, add new ones, ... */
 138:Core/Src/freertos.c ****   /* USER CODE END RTOS_TIMERS */
 139:Core/Src/freertos.c **** 
 140:Core/Src/freertos.c ****   /* USER CODE BEGIN RTOS_QUEUES */
 141:Core/Src/freertos.c ****   /* add queues, ... */
 142:Core/Src/freertos.c ****   /* USER CODE END RTOS_QUEUES */
 143:Core/Src/freertos.c **** 
 144:Core/Src/freertos.c ****   /* Create the thread(s) */
 145:Core/Src/freertos.c ****   /* definition and creation of USBTask */
 146:Core/Src/freertos.c ****   osThreadDef(USBTask, USBTask_Run, osPriorityHigh, 0, 512);
 147:Core/Src/freertos.c ****   USBTaskHandle = osThreadCreate(osThread(USBTask), NULL);
 148:Core/Src/freertos.c **** 
 149:Core/Src/freertos.c ****   /* USER CODE BEGIN RTOS_THREADS */
 150:Core/Src/freertos.c ****   SensorTask_Init();
 151:Core/Src/freertos.c **** 
 152:Core/Src/freertos.c ****   /* add threads, ... */
 153:Core/Src/freertos.c ****   /* USER CODE END RTOS_THREADS */
 154:Core/Src/freertos.c **** 
 155:Core/Src/freertos.c **** }
 156:Core/Src/freertos.c **** 
 157:Core/Src/freertos.c **** /* USER CODE BEGIN Header_USBTask_Run */
 158:Core/Src/freertos.c **** /**
 159:Core/Src/freertos.c ****   * @brief  Function implementing the USBTask thread.
 160:Core/Src/freertos.c ****   * @param  argument: Not used
 161:Core/Src/freertos.c ****   * @retval None
 162:Core/Src/freertos.c ****   */
 163:Core/Src/freertos.c **** /* USER CODE END Header_USBTask_Run */
 164:Core/Src/freertos.c **** void USBTask_Run(void const * argument)
 165:Core/Src/freertos.c **** {
 1534              		.loc 3 165 1 is_stmt 1 view -0
 1535              		.cfi_startproc
 1536              		@ args = 0, pretend = 0, frame = 128
 1537              		@ frame_needed = 0, uses_anonymous_args = 0
 1538              		.loc 3 165 1 is_stmt 0 view .LVU572
 1539 0000 2DE9F041 		push	{r4, r5, r6, r7, r8, lr}
 1540              	.LCFI7:
 1541              		.cfi_def_cfa_offset 24
 1542              		.cfi_offset 4, -24
 1543              		.cfi_offset 5, -20
 1544              		.cfi_offset 6, -16
 1545              		.cfi_offset 7, -12
 1546              		.cfi_offset 8, -8
 1547              		.cfi_offset 14, -4
 1548 0004 A4B0     		sub	sp, sp, #144
 1549              	.LCFI8:
 1550              		.cfi_def_cfa_offset 168
 166:Core/Src/freertos.c ****   /* init code for USB_DEVICE */
ARM GAS  /tmp/ccrjRHai.s 			page 43


 167:Core/Src/freertos.c ****   MX_USB_DEVICE_Init();
 1551              		.loc 3 167 3 is_stmt 1 view .LVU573
 1552 0006 FFF7FEFF 		bl	MX_USB_DEVICE_Init
 1553              	.LVL178:
 168:Core/Src/freertos.c ****   /* USER CODE BEGIN USBTask_Run */
 169:Core/Src/freertos.c ****   IMU_Data_t imu;
 1554              		.loc 3 169 3 view .LVU574
 170:Core/Src/freertos.c ****   Barometer_Data_t baro;
 1555              		.loc 3 170 3 view .LVU575
 171:Core/Src/freertos.c ****   Attitude_Data_t attitude;
 1556              		.loc 3 171 3 view .LVU576
 172:Core/Src/freertos.c ****   uint32_t last_ms = HAL_GetTick();
 1557              		.loc 3 172 3 view .LVU577
 1558              		.loc 3 172 22 is_stmt 0 view .LVU578
 1559 000a FFF7FEFF 		bl	HAL_GetTick
 1560              	.LVL179:
 1561 000e 0446     		mov	r4, r0
 1562              	.LVL180:
 1563              		.loc 3 172 22 view .LVU579
 1564 0010 87E2     		b	.L128
 1565              	.LVL181:
 1566              	.L129:
 1567              	.LBB153:
 1568              	.LBB154:
 1569              	.LBB155:
 1570              	.LBB156:
 1571              	.LBB157:
 1572              	.LBB158:
 1573              	.LBB159:
 1574              	.LBB160:
 102:mavlink/minimal/../mavlink_helpers.h **** #endif
 103:mavlink/minimal/../mavlink_helpers.h **** 
 104:mavlink/minimal/../mavlink_helpers.h **** /**
 105:mavlink/minimal/../mavlink_helpers.h ****  * @brief Trim payload of any trailing zero-populated bytes (MAVLink 2 only).
 106:mavlink/minimal/../mavlink_helpers.h ****  *
 107:mavlink/minimal/../mavlink_helpers.h ****  * @param payload Serialised payload buffer.
 108:mavlink/minimal/../mavlink_helpers.h ****  * @param length Length of full-width payload buffer.
 109:mavlink/minimal/../mavlink_helpers.h ****  * @return Length of payload after zero-filled bytes are trimmed.
 110:mavlink/minimal/../mavlink_helpers.h ****  */
 111:mavlink/minimal/../mavlink_helpers.h **** MAVLINK_HELPER uint8_t _mav_trim_payload(const char *payload, uint8_t length)
 112:mavlink/minimal/../mavlink_helpers.h **** {
 113:mavlink/minimal/../mavlink_helpers.h **** 	while (length > 1 && payload[length-1] == 0) {
 114:mavlink/minimal/../mavlink_helpers.h **** 		length--;
 115:mavlink/minimal/../mavlink_helpers.h **** 	}
 116:mavlink/minimal/../mavlink_helpers.h **** 	return length;
 117:mavlink/minimal/../mavlink_helpers.h **** }
 118:mavlink/minimal/../mavlink_helpers.h **** 
 119:mavlink/minimal/../mavlink_helpers.h **** #ifndef MAVLINK_NO_SIGNATURE_CHECK
 120:mavlink/minimal/../mavlink_helpers.h **** /**
 121:mavlink/minimal/../mavlink_helpers.h ****  * @brief check a signature block for a packet
 122:mavlink/minimal/../mavlink_helpers.h ****  */
 123:mavlink/minimal/../mavlink_helpers.h **** MAVLINK_HELPER bool mavlink_signature_check(mavlink_signing_t *signing,
 124:mavlink/minimal/../mavlink_helpers.h **** 					    mavlink_signing_streams_t *signing_streams,
 125:mavlink/minimal/../mavlink_helpers.h **** 					    const mavlink_message_t *msg)
 126:mavlink/minimal/../mavlink_helpers.h **** {
 127:mavlink/minimal/../mavlink_helpers.h **** 	if (signing == NULL) {
 128:mavlink/minimal/../mavlink_helpers.h **** 		return true;
ARM GAS  /tmp/ccrjRHai.s 			page 44


 129:mavlink/minimal/../mavlink_helpers.h **** 	}
 130:mavlink/minimal/../mavlink_helpers.h ****         const uint8_t *p = (const uint8_t *)&msg->magic;
 131:mavlink/minimal/../mavlink_helpers.h **** 	const uint8_t *psig = msg->signature;
 132:mavlink/minimal/../mavlink_helpers.h ****         const uint8_t *incoming_signature = psig+7;
 133:mavlink/minimal/../mavlink_helpers.h **** 	mavlink_sha256_ctx ctx;
 134:mavlink/minimal/../mavlink_helpers.h **** 	uint8_t signature[6];
 135:mavlink/minimal/../mavlink_helpers.h **** 	uint16_t i;
 136:mavlink/minimal/../mavlink_helpers.h ****         
 137:mavlink/minimal/../mavlink_helpers.h **** 	mavlink_sha256_init(&ctx);
 138:mavlink/minimal/../mavlink_helpers.h **** 	mavlink_sha256_update(&ctx, signing->secret_key, sizeof(signing->secret_key));
 139:mavlink/minimal/../mavlink_helpers.h **** 	mavlink_sha256_update(&ctx, p, MAVLINK_NUM_HEADER_BYTES);
 140:mavlink/minimal/../mavlink_helpers.h **** 	mavlink_sha256_update(&ctx, _MAV_PAYLOAD(msg), msg->len);
 141:mavlink/minimal/../mavlink_helpers.h **** 	mavlink_sha256_update(&ctx, msg->ck, 2);
 142:mavlink/minimal/../mavlink_helpers.h **** 	mavlink_sha256_update(&ctx, psig, 1+6);
 143:mavlink/minimal/../mavlink_helpers.h **** 	mavlink_sha256_final_48(&ctx, signature);
 144:mavlink/minimal/../mavlink_helpers.h ****         if (memcmp(signature, incoming_signature, 6) != 0) {
 145:mavlink/minimal/../mavlink_helpers.h ****                 signing->last_status = MAVLINK_SIGNING_STATUS_BAD_SIGNATURE;
 146:mavlink/minimal/../mavlink_helpers.h **** 		return false;
 147:mavlink/minimal/../mavlink_helpers.h **** 	}
 148:mavlink/minimal/../mavlink_helpers.h **** 
 149:mavlink/minimal/../mavlink_helpers.h **** 	// now check timestamp
 150:mavlink/minimal/../mavlink_helpers.h **** 	union tstamp {
 151:mavlink/minimal/../mavlink_helpers.h **** 	    uint64_t t64;
 152:mavlink/minimal/../mavlink_helpers.h **** 	    uint8_t t8[8];
 153:mavlink/minimal/../mavlink_helpers.h **** 	} tstamp;
 154:mavlink/minimal/../mavlink_helpers.h **** 	uint8_t link_id = psig[0];
 155:mavlink/minimal/../mavlink_helpers.h **** 	tstamp.t64 = 0;
 156:mavlink/minimal/../mavlink_helpers.h **** 	memcpy(tstamp.t8, psig+1, 6);
 157:mavlink/minimal/../mavlink_helpers.h **** 
 158:mavlink/minimal/../mavlink_helpers.h **** 	if (signing_streams == NULL) {
 159:mavlink/minimal/../mavlink_helpers.h ****                 signing->last_status = MAVLINK_SIGNING_STATUS_NO_STREAMS;
 160:mavlink/minimal/../mavlink_helpers.h ****                 return false;
 161:mavlink/minimal/../mavlink_helpers.h **** 	}
 162:mavlink/minimal/../mavlink_helpers.h **** 	
 163:mavlink/minimal/../mavlink_helpers.h **** 	// find stream
 164:mavlink/minimal/../mavlink_helpers.h **** 	for (i=0; i<signing_streams->num_signing_streams; i++) {
 165:mavlink/minimal/../mavlink_helpers.h **** 		if (msg->sysid == signing_streams->stream[i].sysid &&
 166:mavlink/minimal/../mavlink_helpers.h **** 		    msg->compid == signing_streams->stream[i].compid &&
 167:mavlink/minimal/../mavlink_helpers.h **** 		    link_id == signing_streams->stream[i].link_id) {
 168:mavlink/minimal/../mavlink_helpers.h **** 			break;
 169:mavlink/minimal/../mavlink_helpers.h **** 		}
 170:mavlink/minimal/../mavlink_helpers.h **** 	}
 171:mavlink/minimal/../mavlink_helpers.h **** 	if (i == signing_streams->num_signing_streams) {
 172:mavlink/minimal/../mavlink_helpers.h **** 		if (signing_streams->num_signing_streams >= MAVLINK_MAX_SIGNING_STREAMS) {
 173:mavlink/minimal/../mavlink_helpers.h **** 			// over max number of streams
 174:mavlink/minimal/../mavlink_helpers.h ****                         signing->last_status = MAVLINK_SIGNING_STATUS_TOO_MANY_STREAMS;
 175:mavlink/minimal/../mavlink_helpers.h ****                         return false;
 176:mavlink/minimal/../mavlink_helpers.h **** 		}
 177:mavlink/minimal/../mavlink_helpers.h **** 		// new stream. Only accept if timestamp is not more than 1 minute old
 178:mavlink/minimal/../mavlink_helpers.h **** 		if (tstamp.t64 + 6000*1000UL < signing->timestamp) {
 179:mavlink/minimal/../mavlink_helpers.h ****                         signing->last_status = MAVLINK_SIGNING_STATUS_OLD_TIMESTAMP;
 180:mavlink/minimal/../mavlink_helpers.h ****                         return false;
 181:mavlink/minimal/../mavlink_helpers.h **** 		}
 182:mavlink/minimal/../mavlink_helpers.h **** 		// add new stream
 183:mavlink/minimal/../mavlink_helpers.h **** 		signing_streams->stream[i].sysid = msg->sysid;
 184:mavlink/minimal/../mavlink_helpers.h **** 		signing_streams->stream[i].compid = msg->compid;
 185:mavlink/minimal/../mavlink_helpers.h **** 		signing_streams->stream[i].link_id = link_id;
ARM GAS  /tmp/ccrjRHai.s 			page 45


 186:mavlink/minimal/../mavlink_helpers.h **** 		signing_streams->num_signing_streams++;
 187:mavlink/minimal/../mavlink_helpers.h **** 	} else {
 188:mavlink/minimal/../mavlink_helpers.h **** 		union tstamp last_tstamp;
 189:mavlink/minimal/../mavlink_helpers.h **** 		last_tstamp.t64 = 0;
 190:mavlink/minimal/../mavlink_helpers.h **** 		memcpy(last_tstamp.t8, signing_streams->stream[i].timestamp_bytes, 6);
 191:mavlink/minimal/../mavlink_helpers.h **** 		if (tstamp.t64 <= last_tstamp.t64) {
 192:mavlink/minimal/../mavlink_helpers.h **** 			// repeating old timestamp
 193:mavlink/minimal/../mavlink_helpers.h ****                         signing->last_status = MAVLINK_SIGNING_STATUS_REPLAY;
 194:mavlink/minimal/../mavlink_helpers.h ****                         return false;
 195:mavlink/minimal/../mavlink_helpers.h **** 		}
 196:mavlink/minimal/../mavlink_helpers.h **** 	}
 197:mavlink/minimal/../mavlink_helpers.h **** 
 198:mavlink/minimal/../mavlink_helpers.h **** 	// remember last timestamp
 199:mavlink/minimal/../mavlink_helpers.h **** 	memcpy(signing_streams->stream[i].timestamp_bytes, psig+1, 6);
 200:mavlink/minimal/../mavlink_helpers.h **** 
 201:mavlink/minimal/../mavlink_helpers.h **** 	// our next timestamp must be at least this timestamp
 202:mavlink/minimal/../mavlink_helpers.h **** 	if (tstamp.t64 > signing->timestamp) {
 203:mavlink/minimal/../mavlink_helpers.h **** 		signing->timestamp = tstamp.t64;
 204:mavlink/minimal/../mavlink_helpers.h **** 	}
 205:mavlink/minimal/../mavlink_helpers.h ****         signing->last_status = MAVLINK_SIGNING_STATUS_OK;
 206:mavlink/minimal/../mavlink_helpers.h ****         return true;
 207:mavlink/minimal/../mavlink_helpers.h **** }
 208:mavlink/minimal/../mavlink_helpers.h **** #endif
 209:mavlink/minimal/../mavlink_helpers.h **** 
 210:mavlink/minimal/../mavlink_helpers.h **** 
 211:mavlink/minimal/../mavlink_helpers.h **** /**
 212:mavlink/minimal/../mavlink_helpers.h ****  * @brief Finalize a MAVLink message with channel assignment
 213:mavlink/minimal/../mavlink_helpers.h ****  *
 214:mavlink/minimal/../mavlink_helpers.h ****  * This function calculates the checksum and sets length and aircraft id correctly.
 215:mavlink/minimal/../mavlink_helpers.h ****  * It assumes that the message id and the payload are already correctly set. This function
 216:mavlink/minimal/../mavlink_helpers.h ****  * can also be used if the message header has already been written before (as in mavlink_msg_xxx_pa
 217:mavlink/minimal/../mavlink_helpers.h ****  * instead of mavlink_msg_xxx_pack_headerless), it just introduces little extra overhead.
 218:mavlink/minimal/../mavlink_helpers.h ****  *
 219:mavlink/minimal/../mavlink_helpers.h ****  * @param msg Message to finalize
 220:mavlink/minimal/../mavlink_helpers.h ****  * @param system_id Id of the sending (this) system, 1-127
 221:mavlink/minimal/../mavlink_helpers.h ****  * @param length Message length
 222:mavlink/minimal/../mavlink_helpers.h ****  */
 223:mavlink/minimal/../mavlink_helpers.h **** MAVLINK_HELPER uint16_t mavlink_finalize_message_buffer(mavlink_message_t* msg, uint8_t system_id, 
 224:mavlink/minimal/../mavlink_helpers.h **** 						      mavlink_status_t* status, uint8_t min_length, uint8_t length, uint8_t crc_extra)
 225:mavlink/minimal/../mavlink_helpers.h **** {
 226:mavlink/minimal/../mavlink_helpers.h **** 	bool mavlink1 = (status->flags & MAVLINK_STATUS_FLAG_OUT_MAVLINK1) != 0;
 227:mavlink/minimal/../mavlink_helpers.h **** #ifndef MAVLINK_NO_SIGN_PACKET
 228:mavlink/minimal/../mavlink_helpers.h **** 	bool signing = 	(!mavlink1) && status->signing && (status->signing->flags & MAVLINK_SIGNING_FLAG_S
 1575              		.loc 2 228 49 view .LVU580
 1576 0012 0020     		movs	r0, #0
 1577              	.L90:
 1578              	.LVL182:
 229:mavlink/minimal/../mavlink_helpers.h **** #else
 230:mavlink/minimal/../mavlink_helpers.h **** 	bool signing = false;
 231:mavlink/minimal/../mavlink_helpers.h **** #endif
 232:mavlink/minimal/../mavlink_helpers.h **** 	uint8_t signature_len = signing? MAVLINK_SIGNATURE_BLOCK_LEN : 0;
 1579              		.loc 2 232 2 is_stmt 1 view .LVU581
 233:mavlink/minimal/../mavlink_helpers.h ****         uint8_t header_len = MAVLINK_CORE_HEADER_LEN+1;
 1580              		.loc 2 233 9 view .LVU582
 234:mavlink/minimal/../mavlink_helpers.h **** 	uint8_t buf[MAVLINK_CORE_HEADER_LEN+1];
 1581              		.loc 2 234 2 view .LVU583
 235:mavlink/minimal/../mavlink_helpers.h **** 	if (mavlink1) {
ARM GAS  /tmp/ccrjRHai.s 			page 46


 1582              		.loc 2 235 2 view .LVU584
 1583              		.loc 2 235 5 is_stmt 0 view .LVU585
 1584 0014 002C     		cmp	r4, #0
 1585 0016 38D0     		beq	.L91
 236:mavlink/minimal/../mavlink_helpers.h **** 		msg->magic = MAVLINK_STX_MAVLINK1;
 1586              		.loc 2 236 3 is_stmt 1 view .LVU586
 1587              		.loc 2 236 14 is_stmt 0 view .LVU587
 1588 0018 A74B     		ldr	r3, .L146
 1589 001a FE22     		movs	r2, #254
 1590 001c 9A70     		strb	r2, [r3, #2]
 237:mavlink/minimal/../mavlink_helpers.h **** 		header_len = MAVLINK_CORE_HEADER_MAVLINK1_LEN+1;
 1591              		.loc 2 237 3 is_stmt 1 view .LVU588
 1592              	.LVL183:
 1593              		.loc 2 237 14 is_stmt 0 view .LVU589
 1594 001e 0623     		movs	r3, #6
 1595              	.LVL184:
 1596              	.L92:
 238:mavlink/minimal/../mavlink_helpers.h **** 	} else {
 239:mavlink/minimal/../mavlink_helpers.h **** 		msg->magic = MAVLINK_STX;
 240:mavlink/minimal/../mavlink_helpers.h **** 	}
 241:mavlink/minimal/../mavlink_helpers.h **** 	msg->len = mavlink1?min_length:_mav_trim_payload(_MAV_PAYLOAD(msg), length);
 1597              		.loc 2 241 2 is_stmt 1 view .LVU590
 1598              		.loc 2 241 11 is_stmt 0 view .LVU591
 1599 0020 002C     		cmp	r4, #0
 1600 0022 41D0     		beq	.L132
 1601 0024 0922     		movs	r2, #9
 1602              	.L94:
 1603              		.loc 2 241 11 view .LVU592
 1604 0026 A449     		ldr	r1, .L146
 1605 0028 CA70     		strb	r2, [r1, #3]
 242:mavlink/minimal/../mavlink_helpers.h **** 	msg->sysid = system_id;
 1606              		.loc 2 242 2 is_stmt 1 view .LVU593
 1607              		.loc 2 242 13 is_stmt 0 view .LVU594
 1608 002a 0122     		movs	r2, #1
 1609 002c CA71     		strb	r2, [r1, #7]
 243:mavlink/minimal/../mavlink_helpers.h **** 	msg->compid = component_id;
 1610              		.loc 2 243 2 is_stmt 1 view .LVU595
 1611              		.loc 2 243 14 is_stmt 0 view .LVU596
 1612 002e 0A72     		strb	r2, [r1, #8]
 244:mavlink/minimal/../mavlink_helpers.h **** 	msg->incompat_flags = 0;
 1613              		.loc 2 244 2 is_stmt 1 view .LVU597
 1614              		.loc 2 244 22 is_stmt 0 view .LVU598
 1615 0030 0022     		movs	r2, #0
 1616 0032 0A71     		strb	r2, [r1, #4]
 245:mavlink/minimal/../mavlink_helpers.h **** 	if (signing) {
 1617              		.loc 2 245 2 is_stmt 1 view .LVU599
 1618              		.loc 2 245 5 is_stmt 0 view .LVU600
 1619 0034 10B1     		cbz	r0, .L96
 246:mavlink/minimal/../mavlink_helpers.h **** 		msg->incompat_flags |= MAVLINK_IFLAG_SIGNED;
 1620              		.loc 2 246 3 is_stmt 1 view .LVU601
 1621              		.loc 2 246 23 is_stmt 0 view .LVU602
 1622 0036 0A46     		mov	r2, r1
 1623 0038 0121     		movs	r1, #1
 1624 003a 1171     		strb	r1, [r2, #4]
 1625              	.L96:
 247:mavlink/minimal/../mavlink_helpers.h **** 	}
 248:mavlink/minimal/../mavlink_helpers.h **** 	msg->compat_flags = 0;
ARM GAS  /tmp/ccrjRHai.s 			page 47


 1626              		.loc 2 248 2 is_stmt 1 view .LVU603
 1627              		.loc 2 248 20 is_stmt 0 view .LVU604
 1628 003c 9E4A     		ldr	r2, .L146
 1629 003e 0021     		movs	r1, #0
 1630 0040 5171     		strb	r1, [r2, #5]
 249:mavlink/minimal/../mavlink_helpers.h **** 	msg->seq = status->current_tx_seq;
 1631              		.loc 2 249 2 is_stmt 1 view .LVU605
 1632              		.loc 2 249 19 is_stmt 0 view .LVU606
 1633 0042 9E4D     		ldr	r5, .L146+4
 1634 0044 A979     		ldrb	r1, [r5, #6]	@ zero_extendqisi2
 1635              		.loc 2 249 11 view .LVU607
 1636 0046 9171     		strb	r1, [r2, #6]
 250:mavlink/minimal/../mavlink_helpers.h **** 	status->current_tx_seq = status->current_tx_seq + 1;
 1637              		.loc 2 250 2 is_stmt 1 view .LVU608
 1638              		.loc 2 250 50 is_stmt 0 view .LVU609
 1639 0048 0131     		adds	r1, r1, #1
 1640              		.loc 2 250 25 view .LVU610
 1641 004a A971     		strb	r1, [r5, #6]
 251:mavlink/minimal/../mavlink_helpers.h **** 
 252:mavlink/minimal/../mavlink_helpers.h **** 	// form the header as a byte array for the crc
 253:mavlink/minimal/../mavlink_helpers.h **** 	buf[0] = msg->magic;
 1642              		.loc 2 253 2 is_stmt 1 view .LVU611
 1643              		.loc 2 253 14 is_stmt 0 view .LVU612
 1644 004c 9178     		ldrb	r1, [r2, #2]	@ zero_extendqisi2
 1645              		.loc 2 253 9 view .LVU613
 1646 004e 8DF81410 		strb	r1, [sp, #20]
 254:mavlink/minimal/../mavlink_helpers.h **** 	buf[1] = msg->len;
 1647              		.loc 2 254 2 is_stmt 1 view .LVU614
 1648              		.loc 2 254 14 is_stmt 0 view .LVU615
 1649 0052 D278     		ldrb	r2, [r2, #3]	@ zero_extendqisi2
 1650              		.loc 2 254 9 view .LVU616
 1651 0054 8DF81520 		strb	r2, [sp, #21]
 255:mavlink/minimal/../mavlink_helpers.h **** 	if (mavlink1) {
 1652              		.loc 2 255 2 is_stmt 1 view .LVU617
 1653              		.loc 2 255 5 is_stmt 0 view .LVU618
 1654 0058 44B3     		cbz	r4, .L97
 256:mavlink/minimal/../mavlink_helpers.h **** 		buf[2] = msg->seq;
 1655              		.loc 2 256 3 is_stmt 1 view .LVU619
 1656              		.loc 2 256 15 is_stmt 0 view .LVU620
 1657 005a 974A     		ldr	r2, .L146
 1658 005c 9179     		ldrb	r1, [r2, #6]	@ zero_extendqisi2
 1659              		.loc 2 256 10 view .LVU621
 1660 005e 8DF81610 		strb	r1, [sp, #22]
 257:mavlink/minimal/../mavlink_helpers.h **** 		buf[3] = msg->sysid;
 1661              		.loc 2 257 3 is_stmt 1 view .LVU622
 1662              		.loc 2 257 15 is_stmt 0 view .LVU623
 1663 0062 D179     		ldrb	r1, [r2, #7]	@ zero_extendqisi2
 1664              		.loc 2 257 10 view .LVU624
 1665 0064 8DF81710 		strb	r1, [sp, #23]
 258:mavlink/minimal/../mavlink_helpers.h **** 		buf[4] = msg->compid;
 1666              		.loc 2 258 3 is_stmt 1 view .LVU625
 1667              		.loc 2 258 15 is_stmt 0 view .LVU626
 1668 0068 117A     		ldrb	r1, [r2, #8]	@ zero_extendqisi2
 1669              		.loc 2 258 10 view .LVU627
 1670 006a 8DF81810 		strb	r1, [sp, #24]
 259:mavlink/minimal/../mavlink_helpers.h **** 		buf[5] = msg->msgid & 0xFF;
 1671              		.loc 2 259 3 is_stmt 1 view .LVU628
ARM GAS  /tmp/ccrjRHai.s 			page 48


 1672              		.loc 2 259 15 is_stmt 0 view .LVU629
 1673 006e 9268     		ldr	r2, [r2, #8]
 1674 0070 C2F31722 		ubfx	r2, r2, #8, #24
 1675              		.loc 2 259 10 view .LVU630
 1676 0074 8DF81920 		strb	r2, [sp, #25]
 1677              	.L98:
 260:mavlink/minimal/../mavlink_helpers.h **** 	} else {
 261:mavlink/minimal/../mavlink_helpers.h **** 		buf[2] = msg->incompat_flags;
 262:mavlink/minimal/../mavlink_helpers.h **** 		buf[3] = msg->compat_flags;
 263:mavlink/minimal/../mavlink_helpers.h **** 		buf[4] = msg->seq;
 264:mavlink/minimal/../mavlink_helpers.h **** 		buf[5] = msg->sysid;
 265:mavlink/minimal/../mavlink_helpers.h **** 		buf[6] = msg->compid;
 266:mavlink/minimal/../mavlink_helpers.h **** 		buf[7] = msg->msgid & 0xFF;
 267:mavlink/minimal/../mavlink_helpers.h **** 		buf[8] = (msg->msgid >> 8) & 0xFF;
 268:mavlink/minimal/../mavlink_helpers.h **** 		buf[9] = (msg->msgid >> 16) & 0xFF;
 269:mavlink/minimal/../mavlink_helpers.h **** 	}
 270:mavlink/minimal/../mavlink_helpers.h **** 	
 271:mavlink/minimal/../mavlink_helpers.h **** 	uint16_t checksum = crc_calculate(&buf[1], header_len-1);
 1678              		.loc 2 271 2 is_stmt 1 view .LVU631
 1679              		.loc 2 271 22 is_stmt 0 view .LVU632
 1680 0078 591E     		subs	r1, r3, #1
 1681 007a 89B2     		uxth	r1, r1
 1682              	.LVL185:
 1683              	.LBB161:
 1684              	.LBI161:
 1685              		.file 4 "mavlink/minimal/../checksum.h"
   1:mavlink/minimal/../checksum.h **** #pragma once
   2:mavlink/minimal/../checksum.h **** 
   3:mavlink/minimal/../checksum.h **** #if defined(MAVLINK_USE_CXX_NAMESPACE)
   4:mavlink/minimal/../checksum.h **** namespace mavlink {
   5:mavlink/minimal/../checksum.h **** #elif defined(__cplusplus)
   6:mavlink/minimal/../checksum.h **** extern "C" {
   7:mavlink/minimal/../checksum.h **** #endif
   8:mavlink/minimal/../checksum.h **** 
   9:mavlink/minimal/../checksum.h **** // Visual Studio versions before 2010 don't have stdint.h, so we just error out.
  10:mavlink/minimal/../checksum.h **** #if (defined _MSC_VER) && (_MSC_VER < 1600)
  11:mavlink/minimal/../checksum.h **** #error "The C-MAVLink implementation requires Visual Studio 2010 or greater"
  12:mavlink/minimal/../checksum.h **** #endif
  13:mavlink/minimal/../checksum.h **** 
  14:mavlink/minimal/../checksum.h **** #include <stdint.h>
  15:mavlink/minimal/../checksum.h **** 
  16:mavlink/minimal/../checksum.h **** /**
  17:mavlink/minimal/../checksum.h ****  *
  18:mavlink/minimal/../checksum.h ****  *  CALCULATE THE CHECKSUM
  19:mavlink/minimal/../checksum.h ****  *
  20:mavlink/minimal/../checksum.h ****  */
  21:mavlink/minimal/../checksum.h **** 
  22:mavlink/minimal/../checksum.h **** #define X25_INIT_CRC 0xffff
  23:mavlink/minimal/../checksum.h **** #define X25_VALIDATE_CRC 0xf0b8
  24:mavlink/minimal/../checksum.h **** 
  25:mavlink/minimal/../checksum.h **** #ifndef HAVE_CRC_ACCUMULATE
  26:mavlink/minimal/../checksum.h **** /**
  27:mavlink/minimal/../checksum.h ****  * @brief Accumulate the CRC16_MCRF4XX checksum by adding one char at a time.
  28:mavlink/minimal/../checksum.h ****  *
  29:mavlink/minimal/../checksum.h ****  * The checksum function adds the hash of one char at a time to the
  30:mavlink/minimal/../checksum.h ****  * 16 bit checksum (uint16_t).
  31:mavlink/minimal/../checksum.h ****  *
ARM GAS  /tmp/ccrjRHai.s 			page 49


  32:mavlink/minimal/../checksum.h ****  * @param data new char to hash
  33:mavlink/minimal/../checksum.h ****  * @param crcAccum the already accumulated checksum
  34:mavlink/minimal/../checksum.h ****  **/
  35:mavlink/minimal/../checksum.h **** static inline void crc_accumulate(uint8_t data, uint16_t *crcAccum)
  36:mavlink/minimal/../checksum.h **** {
  37:mavlink/minimal/../checksum.h ****         /*Accumulate one byte of data into the CRC*/
  38:mavlink/minimal/../checksum.h ****         uint8_t tmp;
  39:mavlink/minimal/../checksum.h **** 
  40:mavlink/minimal/../checksum.h ****         tmp = data ^ (uint8_t)(*crcAccum &0xff);
  41:mavlink/minimal/../checksum.h ****         tmp ^= (tmp<<4);
  42:mavlink/minimal/../checksum.h ****         *crcAccum = (*crcAccum>>8) ^ (tmp<<8) ^ (tmp <<3) ^ (tmp>>4);
  43:mavlink/minimal/../checksum.h **** }
  44:mavlink/minimal/../checksum.h **** #endif
  45:mavlink/minimal/../checksum.h **** 
  46:mavlink/minimal/../checksum.h **** 
  47:mavlink/minimal/../checksum.h **** /**
  48:mavlink/minimal/../checksum.h ****  * @brief Initialize the buffer for the MCRF4XX CRC16
  49:mavlink/minimal/../checksum.h ****  *
  50:mavlink/minimal/../checksum.h ****  * @param crcAccum the 16 bit MCRF4XX CRC16
  51:mavlink/minimal/../checksum.h ****  */
  52:mavlink/minimal/../checksum.h **** static inline void crc_init(uint16_t* crcAccum)
  53:mavlink/minimal/../checksum.h **** {
  54:mavlink/minimal/../checksum.h ****         *crcAccum = X25_INIT_CRC;
  55:mavlink/minimal/../checksum.h **** }
  56:mavlink/minimal/../checksum.h **** 
  57:mavlink/minimal/../checksum.h **** 
  58:mavlink/minimal/../checksum.h **** /**
  59:mavlink/minimal/../checksum.h ****  * @brief Calculates the CRC16_MCRF4XX checksum on a byte buffer
  60:mavlink/minimal/../checksum.h ****  *
  61:mavlink/minimal/../checksum.h ****  * @param  pBuffer buffer containing the byte array to hash
  62:mavlink/minimal/../checksum.h ****  * @param  length  length of the byte array
  63:mavlink/minimal/../checksum.h ****  * @return the checksum over the buffer bytes
  64:mavlink/minimal/../checksum.h ****  **/
  65:mavlink/minimal/../checksum.h **** static inline uint16_t crc_calculate(const uint8_t* pBuffer, uint16_t length)
 1686              		.loc 4 65 24 is_stmt 1 view .LVU633
 1687              	.LBB162:
  66:mavlink/minimal/../checksum.h **** {
  67:mavlink/minimal/../checksum.h ****         uint16_t crcTmp;
 1688              		.loc 4 67 9 view .LVU634
  68:mavlink/minimal/../checksum.h ****         crc_init(&crcTmp);
 1689              		.loc 4 68 9 view .LVU635
 1690              	.LBB163:
 1691              	.LBI163:
  52:mavlink/minimal/../checksum.h **** {
 1692              		.loc 4 52 20 view .LVU636
 1693              	.LBB164:
  54:mavlink/minimal/../checksum.h **** }
 1694              		.loc 4 54 9 view .LVU637
  54:mavlink/minimal/../checksum.h **** }
 1695              		.loc 4 54 19 is_stmt 0 view .LVU638
 1696 007c 4FF6FF72 		movw	r2, #65535
  55:mavlink/minimal/../checksum.h **** 
 1697              		.loc 4 55 1 view .LVU639
 1698 0080 0DF11504 		add	r4, sp, #21
 1699              	.LVL186:
  55:mavlink/minimal/../checksum.h **** 
 1700              		.loc 4 55 1 view .LVU640
ARM GAS  /tmp/ccrjRHai.s 			page 50


 1701 0084 3FE0     		b	.L99
 1702              	.LVL187:
 1703              	.L130:
  55:mavlink/minimal/../checksum.h **** 
 1704              		.loc 4 55 1 view .LVU641
 1705              	.LBE164:
 1706              	.LBE163:
 1707              	.LBE162:
 1708              	.LBE161:
 228:mavlink/minimal/../mavlink_helpers.h **** #else
 1709              		.loc 2 228 49 view .LVU642
 1710 0086 0020     		movs	r0, #0
 1711 0088 C4E7     		b	.L90
 1712              	.LVL188:
 1713              	.L91:
 239:mavlink/minimal/../mavlink_helpers.h **** 	}
 1714              		.loc 2 239 3 is_stmt 1 view .LVU643
 239:mavlink/minimal/../mavlink_helpers.h **** 	}
 1715              		.loc 2 239 14 is_stmt 0 view .LVU644
 1716 008a 8B4B     		ldr	r3, .L146
 1717 008c FD22     		movs	r2, #253
 1718 008e 9A70     		strb	r2, [r3, #2]
 233:mavlink/minimal/../mavlink_helpers.h **** 	uint8_t buf[MAVLINK_CORE_HEADER_LEN+1];
 1719              		.loc 2 233 17 view .LVU645
 1720 0090 0A23     		movs	r3, #10
 1721 0092 C5E7     		b	.L92
 1722              	.LVL189:
 1723              	.L95:
 1724              	.LBB168:
 1725              	.LBB169:
 114:mavlink/minimal/../mavlink_helpers.h **** 	}
 1726              		.loc 2 114 3 is_stmt 1 view .LVU646
 114:mavlink/minimal/../mavlink_helpers.h **** 	}
 1727              		.loc 2 114 9 is_stmt 0 view .LVU647
 1728 0094 013A     		subs	r2, r2, #1
 1729              	.LVL190:
 114:mavlink/minimal/../mavlink_helpers.h **** 	}
 1730              		.loc 2 114 9 view .LVU648
 1731 0096 D2B2     		uxtb	r2, r2
 1732              	.LVL191:
 1733              	.L93:
 113:mavlink/minimal/../mavlink_helpers.h **** 		length--;
 1734              		.loc 2 113 8 is_stmt 1 view .LVU649
 1735 0098 012A     		cmp	r2, #1
 1736 009a C4D9     		bls	.L94
 113:mavlink/minimal/../mavlink_helpers.h **** 		length--;
 1737              		.loc 2 113 30 is_stmt 0 view .LVU650
 1738 009c 8649     		ldr	r1, .L146
 1739 009e 1144     		add	r1, r1, r2
 1740 00a0 C97A     		ldrb	r1, [r1, #11]	@ zero_extendqisi2
 113:mavlink/minimal/../mavlink_helpers.h **** 		length--;
 1741              		.loc 2 113 20 view .LVU651
 1742 00a2 0029     		cmp	r1, #0
 1743 00a4 F6D0     		beq	.L95
 1744 00a6 BEE7     		b	.L94
 1745              	.LVL192:
 1746              	.L132:
ARM GAS  /tmp/ccrjRHai.s 			page 51


 113:mavlink/minimal/../mavlink_helpers.h **** 		length--;
 1747              		.loc 2 113 20 view .LVU652
 1748              	.LBE169:
 1749              	.LBE168:
 1750 00a8 0922     		movs	r2, #9
 1751 00aa F5E7     		b	.L93
 1752              	.L97:
 261:mavlink/minimal/../mavlink_helpers.h **** 		buf[3] = msg->compat_flags;
 1753              		.loc 2 261 3 is_stmt 1 view .LVU653
 261:mavlink/minimal/../mavlink_helpers.h **** 		buf[3] = msg->compat_flags;
 1754              		.loc 2 261 15 is_stmt 0 view .LVU654
 1755 00ac 824A     		ldr	r2, .L146
 1756 00ae 1179     		ldrb	r1, [r2, #4]	@ zero_extendqisi2
 261:mavlink/minimal/../mavlink_helpers.h **** 		buf[3] = msg->compat_flags;
 1757              		.loc 2 261 10 view .LVU655
 1758 00b0 8DF81610 		strb	r1, [sp, #22]
 262:mavlink/minimal/../mavlink_helpers.h **** 		buf[4] = msg->seq;
 1759              		.loc 2 262 3 is_stmt 1 view .LVU656
 262:mavlink/minimal/../mavlink_helpers.h **** 		buf[4] = msg->seq;
 1760              		.loc 2 262 15 is_stmt 0 view .LVU657
 1761 00b4 5179     		ldrb	r1, [r2, #5]	@ zero_extendqisi2
 262:mavlink/minimal/../mavlink_helpers.h **** 		buf[4] = msg->seq;
 1762              		.loc 2 262 10 view .LVU658
 1763 00b6 8DF81710 		strb	r1, [sp, #23]
 263:mavlink/minimal/../mavlink_helpers.h **** 		buf[5] = msg->sysid;
 1764              		.loc 2 263 3 is_stmt 1 view .LVU659
 263:mavlink/minimal/../mavlink_helpers.h **** 		buf[5] = msg->sysid;
 1765              		.loc 2 263 15 is_stmt 0 view .LVU660
 1766 00ba 9179     		ldrb	r1, [r2, #6]	@ zero_extendqisi2
 263:mavlink/minimal/../mavlink_helpers.h **** 		buf[5] = msg->sysid;
 1767              		.loc 2 263 10 view .LVU661
 1768 00bc 8DF81810 		strb	r1, [sp, #24]
 264:mavlink/minimal/../mavlink_helpers.h **** 		buf[6] = msg->compid;
 1769              		.loc 2 264 3 is_stmt 1 view .LVU662
 264:mavlink/minimal/../mavlink_helpers.h **** 		buf[6] = msg->compid;
 1770              		.loc 2 264 15 is_stmt 0 view .LVU663
 1771 00c0 D179     		ldrb	r1, [r2, #7]	@ zero_extendqisi2
 264:mavlink/minimal/../mavlink_helpers.h **** 		buf[6] = msg->compid;
 1772              		.loc 2 264 10 view .LVU664
 1773 00c2 8DF81910 		strb	r1, [sp, #25]
 265:mavlink/minimal/../mavlink_helpers.h **** 		buf[7] = msg->msgid & 0xFF;
 1774              		.loc 2 265 3 is_stmt 1 view .LVU665
 265:mavlink/minimal/../mavlink_helpers.h **** 		buf[7] = msg->msgid & 0xFF;
 1775              		.loc 2 265 15 is_stmt 0 view .LVU666
 1776 00c6 117A     		ldrb	r1, [r2, #8]	@ zero_extendqisi2
 265:mavlink/minimal/../mavlink_helpers.h **** 		buf[7] = msg->msgid & 0xFF;
 1777              		.loc 2 265 10 view .LVU667
 1778 00c8 8DF81A10 		strb	r1, [sp, #26]
 266:mavlink/minimal/../mavlink_helpers.h **** 		buf[8] = (msg->msgid >> 8) & 0xFF;
 1779              		.loc 2 266 3 is_stmt 1 view .LVU668
 266:mavlink/minimal/../mavlink_helpers.h **** 		buf[8] = (msg->msgid >> 8) & 0xFF;
 1780              		.loc 2 266 15 is_stmt 0 view .LVU669
 1781 00cc 9268     		ldr	r2, [r2, #8]
 1782 00ce C2F31722 		ubfx	r2, r2, #8, #24
 266:mavlink/minimal/../mavlink_helpers.h **** 		buf[8] = (msg->msgid >> 8) & 0xFF;
 1783              		.loc 2 266 10 view .LVU670
 1784 00d2 8DF81B20 		strb	r2, [sp, #27]
ARM GAS  /tmp/ccrjRHai.s 			page 52


 267:mavlink/minimal/../mavlink_helpers.h **** 		buf[9] = (msg->msgid >> 16) & 0xFF;
 1785              		.loc 2 267 3 is_stmt 1 view .LVU671
 267:mavlink/minimal/../mavlink_helpers.h **** 		buf[9] = (msg->msgid >> 16) & 0xFF;
 1786              		.loc 2 267 24 is_stmt 0 view .LVU672
 1787 00d6 1112     		asrs	r1, r2, #8
 267:mavlink/minimal/../mavlink_helpers.h **** 		buf[9] = (msg->msgid >> 16) & 0xFF;
 1788              		.loc 2 267 10 view .LVU673
 1789 00d8 8DF81C10 		strb	r1, [sp, #28]
 268:mavlink/minimal/../mavlink_helpers.h **** 	}
 1790              		.loc 2 268 3 is_stmt 1 view .LVU674
 268:mavlink/minimal/../mavlink_helpers.h **** 	}
 1791              		.loc 2 268 24 is_stmt 0 view .LVU675
 1792 00dc 1214     		asrs	r2, r2, #16
 268:mavlink/minimal/../mavlink_helpers.h **** 	}
 1793              		.loc 2 268 10 view .LVU676
 1794 00de 8DF81D20 		strb	r2, [sp, #29]
 1795 00e2 C9E7     		b	.L98
 1796              	.LVL193:
 1797              	.L100:
 1798              	.LBB170:
 1799              	.LBB167:
  69:mavlink/minimal/../checksum.h **** 	while (length--) {
  70:mavlink/minimal/../checksum.h ****                 crc_accumulate(*pBuffer++, &crcTmp);
 1800              		.loc 4 70 17 is_stmt 1 view .LVU677
 1801              		.loc 4 70 17 is_stmt 0 view .LVU678
 1802 00e4 14F8011B 		ldrb	r1, [r4], #1	@ zero_extendqisi2
 1803              	.LVL194:
 1804              	.LBB165:
 1805              	.LBI165:
  35:mavlink/minimal/../checksum.h **** {
 1806              		.loc 4 35 20 is_stmt 1 view .LVU679
 1807              	.LBB166:
  38:mavlink/minimal/../checksum.h **** 
 1808              		.loc 4 38 9 view .LVU680
  40:mavlink/minimal/../checksum.h ****         tmp ^= (tmp<<4);
 1809              		.loc 4 40 9 view .LVU681
  40:mavlink/minimal/../checksum.h ****         tmp ^= (tmp<<4);
 1810              		.loc 4 40 22 is_stmt 0 view .LVU682
 1811 00e8 D6B2     		uxtb	r6, r2
  40:mavlink/minimal/../checksum.h ****         tmp ^= (tmp<<4);
 1812              		.loc 4 40 13 view .LVU683
 1813 00ea 7140     		eors	r1, r1, r6
 1814              	.LVL195:
  41:mavlink/minimal/../checksum.h ****         *crcAccum = (*crcAccum>>8) ^ (tmp<<8) ^ (tmp <<3) ^ (tmp>>4);
 1815              		.loc 4 41 9 is_stmt 1 view .LVU684
  41:mavlink/minimal/../checksum.h ****         *crcAccum = (*crcAccum>>8) ^ (tmp<<8) ^ (tmp <<3) ^ (tmp>>4);
 1816              		.loc 4 41 13 is_stmt 0 view .LVU685
 1817 00ec 81EA0111 		eor	r1, r1, r1, lsl #4
 1818              	.LVL196:
  41:mavlink/minimal/../checksum.h ****         *crcAccum = (*crcAccum>>8) ^ (tmp<<8) ^ (tmp <<3) ^ (tmp>>4);
 1819              		.loc 4 41 13 view .LVU686
 1820 00f0 C9B2     		uxtb	r1, r1
 1821              	.LVL197:
  42:mavlink/minimal/../checksum.h **** }
 1822              		.loc 4 42 9 is_stmt 1 view .LVU687
  42:mavlink/minimal/../checksum.h **** }
 1823              		.loc 4 42 36 is_stmt 0 view .LVU688
ARM GAS  /tmp/ccrjRHai.s 			page 53


 1824 00f2 120A     		lsrs	r2, r2, #8
 1825              	.LVL198:
  42:mavlink/minimal/../checksum.h **** }
 1826              		.loc 4 42 36 view .LVU689
 1827 00f4 42EA0122 		orr	r2, r2, r1, lsl #8
 1828 00f8 12B2     		sxth	r2, r2
  42:mavlink/minimal/../checksum.h **** }
 1829              		.loc 4 42 47 view .LVU690
 1830 00fa 82EAC102 		eor	r2, r2, r1, lsl #3
  42:mavlink/minimal/../checksum.h **** }
 1831              		.loc 4 42 59 view .LVU691
 1832 00fe 82EA1112 		eor	r2, r2, r1, lsr #4
 1833 0102 92B2     		uxth	r2, r2
 1834              	.LVL199:
  42:mavlink/minimal/../checksum.h **** }
 1835              		.loc 4 42 59 view .LVU692
 1836              	.LBE166:
 1837              	.LBE165:
  69:mavlink/minimal/../checksum.h ****                 crc_accumulate(*pBuffer++, &crcTmp);
 1838              		.loc 4 69 15 view .LVU693
 1839 0104 2946     		mov	r1, r5
 1840              	.LVL200:
 1841              	.L99:
  69:mavlink/minimal/../checksum.h ****                 crc_accumulate(*pBuffer++, &crcTmp);
 1842              		.loc 4 69 8 is_stmt 1 view .LVU694
  69:mavlink/minimal/../checksum.h ****                 crc_accumulate(*pBuffer++, &crcTmp);
 1843              		.loc 4 69 15 is_stmt 0 view .LVU695
 1844 0106 4D1E     		subs	r5, r1, #1
 1845 0108 ADB2     		uxth	r5, r5
 1846              	.LVL201:
  69:mavlink/minimal/../checksum.h ****                 crc_accumulate(*pBuffer++, &crcTmp);
 1847              		.loc 4 69 8 view .LVU696
 1848 010a 0029     		cmp	r1, #0
 1849 010c EAD1     		bne	.L100
  71:mavlink/minimal/../checksum.h ****         }
  72:mavlink/minimal/../checksum.h ****         return crcTmp;
 1850              		.loc 4 72 9 is_stmt 1 view .LVU697
 1851              	.LVL202:
 1852              		.loc 4 72 9 is_stmt 0 view .LVU698
 1853              	.LBE167:
 1854              	.LBE170:
 272:mavlink/minimal/../mavlink_helpers.h **** 	crc_accumulate_buffer(&checksum, _MAV_PAYLOAD(msg), msg->len);
 1855              		.loc 2 272 2 is_stmt 1 view .LVU699
 1856              		.loc 2 272 57 is_stmt 0 view .LVU700
 1857 010e 6A4C     		ldr	r4, .L146
 1858              		.loc 2 272 2 view .LVU701
 1859 0110 E178     		ldrb	r1, [r4, #3]	@ zero_extendqisi2
 1860              	.LVL203:
 1861              	.LBB171:
 1862              	.LBI171:
  73:mavlink/minimal/../checksum.h **** }
  74:mavlink/minimal/../checksum.h **** 
  75:mavlink/minimal/../checksum.h **** 
  76:mavlink/minimal/../checksum.h **** /**
  77:mavlink/minimal/../checksum.h ****  * @brief Accumulate the MCRF4XX CRC16 by adding an array of bytes
  78:mavlink/minimal/../checksum.h ****  *
  79:mavlink/minimal/../checksum.h ****  * The checksum function adds the hash of one char at a time to the
ARM GAS  /tmp/ccrjRHai.s 			page 54


  80:mavlink/minimal/../checksum.h ****  * 16 bit checksum (uint16_t).
  81:mavlink/minimal/../checksum.h ****  *
  82:mavlink/minimal/../checksum.h ****  * @param data new bytes to hash
  83:mavlink/minimal/../checksum.h ****  * @param crcAccum the already accumulated checksum
  84:mavlink/minimal/../checksum.h ****  **/
  85:mavlink/minimal/../checksum.h **** static inline void crc_accumulate_buffer(uint16_t *crcAccum, const char *pBuffer, uint16_t length)
 1863              		.loc 4 85 20 is_stmt 1 view .LVU702
 1864              	.LBB172:
  86:mavlink/minimal/../checksum.h **** {
  87:mavlink/minimal/../checksum.h **** 	const uint8_t *p = (const uint8_t *)pBuffer;
 1865              		.loc 4 87 17 is_stmt 0 view .LVU703
 1866 0112 0C34     		adds	r4, r4, #12
 1867 0114 10E0     		b	.L101
 1868              	.LVL204:
 1869              	.L102:
  88:mavlink/minimal/../checksum.h **** 	while (length--) {
  89:mavlink/minimal/../checksum.h ****                 crc_accumulate(*p++, crcAccum);
 1870              		.loc 4 89 17 is_stmt 1 view .LVU704
 1871              		.loc 4 89 17 is_stmt 0 view .LVU705
 1872 0116 14F8011B 		ldrb	r1, [r4], #1	@ zero_extendqisi2
 1873              	.LVL205:
 1874              	.LBB173:
 1875              	.LBI173:
  35:mavlink/minimal/../checksum.h **** {
 1876              		.loc 4 35 20 is_stmt 1 view .LVU706
 1877              	.LBB174:
  38:mavlink/minimal/../checksum.h **** 
 1878              		.loc 4 38 9 view .LVU707
  40:mavlink/minimal/../checksum.h ****         tmp ^= (tmp<<4);
 1879              		.loc 4 40 9 view .LVU708
  40:mavlink/minimal/../checksum.h ****         tmp ^= (tmp<<4);
 1880              		.loc 4 40 22 is_stmt 0 view .LVU709
 1881 011a D6B2     		uxtb	r6, r2
  40:mavlink/minimal/../checksum.h ****         tmp ^= (tmp<<4);
 1882              		.loc 4 40 13 view .LVU710
 1883 011c 7140     		eors	r1, r1, r6
 1884              	.LVL206:
  41:mavlink/minimal/../checksum.h ****         *crcAccum = (*crcAccum>>8) ^ (tmp<<8) ^ (tmp <<3) ^ (tmp>>4);
 1885              		.loc 4 41 9 is_stmt 1 view .LVU711
  41:mavlink/minimal/../checksum.h ****         *crcAccum = (*crcAccum>>8) ^ (tmp<<8) ^ (tmp <<3) ^ (tmp>>4);
 1886              		.loc 4 41 13 is_stmt 0 view .LVU712
 1887 011e 81EA0111 		eor	r1, r1, r1, lsl #4
 1888              	.LVL207:
  41:mavlink/minimal/../checksum.h ****         *crcAccum = (*crcAccum>>8) ^ (tmp<<8) ^ (tmp <<3) ^ (tmp>>4);
 1889              		.loc 4 41 13 view .LVU713
 1890 0122 C9B2     		uxtb	r1, r1
 1891              	.LVL208:
  42:mavlink/minimal/../checksum.h **** }
 1892              		.loc 4 42 9 is_stmt 1 view .LVU714
  42:mavlink/minimal/../checksum.h **** }
 1893              		.loc 4 42 36 is_stmt 0 view .LVU715
 1894 0124 120A     		lsrs	r2, r2, #8
 1895              	.LVL209:
  42:mavlink/minimal/../checksum.h **** }
 1896              		.loc 4 42 36 view .LVU716
 1897 0126 82EA0122 		eor	r2, r2, r1, lsl #8
 1898 012a 12B2     		sxth	r2, r2
ARM GAS  /tmp/ccrjRHai.s 			page 55


  42:mavlink/minimal/../checksum.h **** }
 1899              		.loc 4 42 47 view .LVU717
 1900 012c 82EAC102 		eor	r2, r2, r1, lsl #3
  42:mavlink/minimal/../checksum.h **** }
 1901              		.loc 4 42 59 view .LVU718
 1902 0130 82EA1112 		eor	r2, r2, r1, lsr #4
 1903 0134 92B2     		uxth	r2, r2
 1904              	.LVL210:
  42:mavlink/minimal/../checksum.h **** }
 1905              		.loc 4 42 59 view .LVU719
 1906              	.LBE174:
 1907              	.LBE173:
  88:mavlink/minimal/../checksum.h ****                 crc_accumulate(*p++, crcAccum);
 1908              		.loc 4 88 15 view .LVU720
 1909 0136 2946     		mov	r1, r5
 1910              	.LVL211:
 1911              	.L101:
  88:mavlink/minimal/../checksum.h ****                 crc_accumulate(*p++, crcAccum);
 1912              		.loc 4 88 8 is_stmt 1 view .LVU721
  88:mavlink/minimal/../checksum.h ****                 crc_accumulate(*p++, crcAccum);
 1913              		.loc 4 88 15 is_stmt 0 view .LVU722
 1914 0138 4D1E     		subs	r5, r1, #1
 1915 013a ADB2     		uxth	r5, r5
 1916              	.LVL212:
  88:mavlink/minimal/../checksum.h ****                 crc_accumulate(*p++, crcAccum);
 1917              		.loc 4 88 8 view .LVU723
 1918 013c 0029     		cmp	r1, #0
 1919 013e EAD1     		bne	.L102
 1920              	.LVL213:
  88:mavlink/minimal/../checksum.h ****                 crc_accumulate(*p++, crcAccum);
 1921              		.loc 4 88 8 view .LVU724
 1922              	.LBE172:
 1923              	.LBE171:
 273:mavlink/minimal/../mavlink_helpers.h **** 	crc_accumulate(crc_extra, &checksum);
 1924              		.loc 2 273 2 is_stmt 1 view .LVU725
 1925              	.LBB175:
 1926              	.LBI175:
  35:mavlink/minimal/../checksum.h **** {
 1927              		.loc 4 35 20 view .LVU726
 1928              	.LBB176:
  38:mavlink/minimal/../checksum.h **** 
 1929              		.loc 4 38 9 view .LVU727
  40:mavlink/minimal/../checksum.h ****         tmp ^= (tmp<<4);
 1930              		.loc 4 40 9 view .LVU728
  40:mavlink/minimal/../checksum.h ****         tmp ^= (tmp<<4);
 1931              		.loc 4 40 22 is_stmt 0 view .LVU729
 1932 0140 D1B2     		uxtb	r1, r2
  40:mavlink/minimal/../checksum.h ****         tmp ^= (tmp<<4);
 1933              		.loc 4 40 13 view .LVU730
 1934 0142 81F03201 		eor	r1, r1, #50
 1935              	.LVL214:
  41:mavlink/minimal/../checksum.h ****         *crcAccum = (*crcAccum>>8) ^ (tmp<<8) ^ (tmp <<3) ^ (tmp>>4);
 1936              		.loc 4 41 9 is_stmt 1 view .LVU731
  41:mavlink/minimal/../checksum.h ****         *crcAccum = (*crcAccum>>8) ^ (tmp<<8) ^ (tmp <<3) ^ (tmp>>4);
 1937              		.loc 4 41 13 is_stmt 0 view .LVU732
 1938 0146 81EA0111 		eor	r1, r1, r1, lsl #4
 1939              	.LVL215:
ARM GAS  /tmp/ccrjRHai.s 			page 56


  41:mavlink/minimal/../checksum.h ****         *crcAccum = (*crcAccum>>8) ^ (tmp<<8) ^ (tmp <<3) ^ (tmp>>4);
 1940              		.loc 4 41 13 view .LVU733
 1941 014a C9B2     		uxtb	r1, r1
 1942              	.LVL216:
  42:mavlink/minimal/../checksum.h **** }
 1943              		.loc 4 42 9 is_stmt 1 view .LVU734
  42:mavlink/minimal/../checksum.h **** }
 1944              		.loc 4 42 36 is_stmt 0 view .LVU735
 1945 014c 120A     		lsrs	r2, r2, #8
 1946              	.LVL217:
  42:mavlink/minimal/../checksum.h **** }
 1947              		.loc 4 42 36 view .LVU736
 1948 014e 82EA0122 		eor	r2, r2, r1, lsl #8
 1949 0152 12B2     		sxth	r2, r2
  42:mavlink/minimal/../checksum.h **** }
 1950              		.loc 4 42 47 view .LVU737
 1951 0154 82EAC102 		eor	r2, r2, r1, lsl #3
  42:mavlink/minimal/../checksum.h **** }
 1952              		.loc 4 42 59 view .LVU738
 1953 0158 82EA1112 		eor	r2, r2, r1, lsr #4
 1954              	.LVL218:
  42:mavlink/minimal/../checksum.h **** }
 1955              		.loc 4 42 59 view .LVU739
 1956              	.LBE176:
 1957              	.LBE175:
 274:mavlink/minimal/../mavlink_helpers.h **** 	mavlink_ck_a(msg) = (uint8_t)(checksum & 0xFF);
 1958              		.loc 2 274 2 is_stmt 1 view .LVU740
 1959 015c 5649     		ldr	r1, .L146
 1960 015e CC78     		ldrb	r4, [r1, #3]	@ zero_extendqisi2
 1961 0160 01F10C05 		add	r5, r1, #12
 1962              		.loc 2 274 20 is_stmt 0 view .LVU741
 1963 0164 2A55     		strb	r2, [r5, r4]
 275:mavlink/minimal/../mavlink_helpers.h **** 	mavlink_ck_b(msg) = (uint8_t)(checksum >> 8);
 1964              		.loc 2 275 2 is_stmt 1 view .LVU742
 1965 0166 CC78     		ldrb	r4, [r1, #3]	@ zero_extendqisi2
 1966 0168 0134     		adds	r4, r4, #1
 1967              		.loc 2 275 22 is_stmt 0 view .LVU743
 1968 016a C2F30726 		ubfx	r6, r2, #8, #8
 1969              		.loc 2 275 20 view .LVU744
 1970 016e 2E55     		strb	r6, [r5, r4]
 276:mavlink/minimal/../mavlink_helpers.h **** 
 277:mavlink/minimal/../mavlink_helpers.h **** 	msg->checksum = checksum;
 1971              		.loc 2 277 2 is_stmt 1 view .LVU745
 1972              		.loc 2 277 16 is_stmt 0 view .LVU746
 1973 0170 0A80     		strh	r2, [r1]	@ movhi
 278:mavlink/minimal/../mavlink_helpers.h **** 
 279:mavlink/minimal/../mavlink_helpers.h **** #ifndef MAVLINK_NO_SIGN_PACKET
 280:mavlink/minimal/../mavlink_helpers.h **** 	if (signing) {
 1974              		.loc 2 280 2 is_stmt 1 view .LVU747
 1975              		.loc 2 280 5 is_stmt 0 view .LVU748
 1976 0172 68B9     		cbnz	r0, .L140
 1977              	.LVL219:
 1978              	.L103:
 281:mavlink/minimal/../mavlink_helpers.h **** 		mavlink_sign_packet(status->signing,
 282:mavlink/minimal/../mavlink_helpers.h **** 				    msg->signature,
 283:mavlink/minimal/../mavlink_helpers.h **** 				    (const uint8_t *)buf, header_len,
 284:mavlink/minimal/../mavlink_helpers.h **** 				    (const uint8_t *)_MAV_PAYLOAD(msg), msg->len,
ARM GAS  /tmp/ccrjRHai.s 			page 57


 285:mavlink/minimal/../mavlink_helpers.h **** 				    (const uint8_t *)_MAV_PAYLOAD(msg)+(uint16_t)msg->len);
 286:mavlink/minimal/../mavlink_helpers.h **** 	}
 287:mavlink/minimal/../mavlink_helpers.h **** #endif
 288:mavlink/minimal/../mavlink_helpers.h **** 
 289:mavlink/minimal/../mavlink_helpers.h **** 	return msg->len + header_len + 2 + signature_len;
 1979              		.loc 2 289 2 is_stmt 1 view .LVU749
 1980              		.loc 2 289 2 is_stmt 0 view .LVU750
 1981              	.LBE160:
 1982              	.LBE159:
 1983              	.LBE158:
 1984              	.LBE157:
 1985              	.LBE156:
 1986              	.LBE155:
 1987              	.LBE154:
 173:Core/Src/freertos.c **** 
 174:Core/Src/freertos.c ****   /* Infinite loop */
 175:Core/Src/freertos.c ****   for(;;)
 176:Core/Src/freertos.c ****   {
 177:Core/Src/freertos.c ****     SensorTask_GetIMU(&imu);
 178:Core/Src/freertos.c ****     SensorTask_GetBaro(&baro);
 179:Core/Src/freertos.c ****     SensorTask_GetAttitude(&attitude);
 180:Core/Src/freertos.c ****     
 181:Core/Src/freertos.c ****     char buffer[128];
 182:Core/Src/freertos.c ****     // snprintf(buffer, 128, "[IMU] Gyro(deg/s) >> X:%.2f, Y:%.2f, Z:%.2f | Acc(m/s2) >> X:%.2f, Y:
 183:Core/Src/freertos.c **** 
 184:Core/Src/freertos.c ****     // snprintf(buffer, 128, "[IMU] Pitch: %.2f, Roll: %.2f\r\n[BARO] Altitude: %.2fm, Pressure: %.
 185:Core/Src/freertos.c ****     // CDC_Transmit_FS(buffer, strlen(buffer));
 186:Core/Src/freertos.c **** 
 187:Core/Src/freertos.c ****     if(HAL_GetTick() - last_ms >= 1000)
 188:Core/Src/freertos.c ****     {
 189:Core/Src/freertos.c ****       mavlink_msg_heartbeat_pack(1, 1, &heart_beat, MAV_TYPE_QUADROTOR, MAV_AUTOPILOT_GENERIC, 0, 0
 190:Core/Src/freertos.c ****       len = mavlink_msg_to_send_buffer(buf, &heart_beat);
 1988              		.loc 3 190 7 is_stmt 1 view .LVU751
 1989              	.LBB195:
 1990              	.LBI195:
 290:mavlink/minimal/../mavlink_helpers.h **** }
 291:mavlink/minimal/../mavlink_helpers.h **** 
 292:mavlink/minimal/../mavlink_helpers.h **** MAVLINK_HELPER uint16_t mavlink_finalize_message_chan(mavlink_message_t* msg, uint8_t system_id, ui
 293:mavlink/minimal/../mavlink_helpers.h **** 						      uint8_t chan, uint8_t min_length, uint8_t length, uint8_t crc_extra)
 294:mavlink/minimal/../mavlink_helpers.h **** {
 295:mavlink/minimal/../mavlink_helpers.h **** 	mavlink_status_t *status = mavlink_get_channel_status(chan);
 296:mavlink/minimal/../mavlink_helpers.h **** 	return mavlink_finalize_message_buffer(msg, system_id, component_id, status, min_length, length, c
 297:mavlink/minimal/../mavlink_helpers.h **** }
 298:mavlink/minimal/../mavlink_helpers.h **** 
 299:mavlink/minimal/../mavlink_helpers.h **** /**
 300:mavlink/minimal/../mavlink_helpers.h ****  * @brief Finalize a MAVLink message with MAVLINK_COMM_0 as default channel
 301:mavlink/minimal/../mavlink_helpers.h ****  */
 302:mavlink/minimal/../mavlink_helpers.h **** MAVLINK_HELPER uint16_t mavlink_finalize_message(mavlink_message_t* msg, uint8_t system_id, uint8_t
 303:mavlink/minimal/../mavlink_helpers.h **** 						 uint8_t min_length, uint8_t length, uint8_t crc_extra)
 304:mavlink/minimal/../mavlink_helpers.h **** {
 305:mavlink/minimal/../mavlink_helpers.h ****     return mavlink_finalize_message_chan(msg, system_id, component_id, MAVLINK_COMM_0, min_length, 
 306:mavlink/minimal/../mavlink_helpers.h **** }
 307:mavlink/minimal/../mavlink_helpers.h **** 
 308:mavlink/minimal/../mavlink_helpers.h **** static inline void _mav_parse_error(mavlink_status_t *status)
 309:mavlink/minimal/../mavlink_helpers.h **** {
 310:mavlink/minimal/../mavlink_helpers.h ****     status->parse_error++;
 311:mavlink/minimal/../mavlink_helpers.h **** }
ARM GAS  /tmp/ccrjRHai.s 			page 58


 312:mavlink/minimal/../mavlink_helpers.h **** 
 313:mavlink/minimal/../mavlink_helpers.h **** #ifdef MAVLINK_USE_CONVENIENCE_FUNCTIONS
 314:mavlink/minimal/../mavlink_helpers.h **** MAVLINK_HELPER void _mavlink_send_uart(mavlink_channel_t chan, const char *buf, uint16_t len);
 315:mavlink/minimal/../mavlink_helpers.h **** 
 316:mavlink/minimal/../mavlink_helpers.h **** /**
 317:mavlink/minimal/../mavlink_helpers.h ****  * @brief Finalize a MAVLink message with channel assignment and send
 318:mavlink/minimal/../mavlink_helpers.h ****  */
 319:mavlink/minimal/../mavlink_helpers.h **** MAVLINK_HELPER void _mav_finalize_message_chan_send(mavlink_channel_t chan, uint32_t msgid,
 320:mavlink/minimal/../mavlink_helpers.h ****                                                     const char *packet, 
 321:mavlink/minimal/../mavlink_helpers.h **** 						    uint8_t min_length, uint8_t length, uint8_t crc_extra)
 322:mavlink/minimal/../mavlink_helpers.h **** {
 323:mavlink/minimal/../mavlink_helpers.h **** 	uint16_t checksum;
 324:mavlink/minimal/../mavlink_helpers.h **** 	uint8_t buf[MAVLINK_NUM_HEADER_BYTES];
 325:mavlink/minimal/../mavlink_helpers.h **** 	uint8_t ck[2];
 326:mavlink/minimal/../mavlink_helpers.h **** 	mavlink_status_t *status = mavlink_get_channel_status(chan);
 327:mavlink/minimal/../mavlink_helpers.h ****         uint8_t header_len = MAVLINK_CORE_HEADER_LEN;
 328:mavlink/minimal/../mavlink_helpers.h **** 	uint8_t signature_len = 0;
 329:mavlink/minimal/../mavlink_helpers.h **** 	uint8_t signature[MAVLINK_SIGNATURE_BLOCK_LEN];
 330:mavlink/minimal/../mavlink_helpers.h **** 	bool mavlink1 = (status->flags & MAVLINK_STATUS_FLAG_OUT_MAVLINK1) != 0;
 331:mavlink/minimal/../mavlink_helpers.h **** 	bool signing = 	(!mavlink1) && status->signing && (status->signing->flags & MAVLINK_SIGNING_FLAG_S
 332:mavlink/minimal/../mavlink_helpers.h **** 
 333:mavlink/minimal/../mavlink_helpers.h ****         if (mavlink1) {
 334:mavlink/minimal/../mavlink_helpers.h ****             length = min_length;
 335:mavlink/minimal/../mavlink_helpers.h ****             if (msgid > 255) {
 336:mavlink/minimal/../mavlink_helpers.h ****                 // can't send 16 bit messages
 337:mavlink/minimal/../mavlink_helpers.h ****                 _mav_parse_error(status);
 338:mavlink/minimal/../mavlink_helpers.h ****                 return;
 339:mavlink/minimal/../mavlink_helpers.h ****             }
 340:mavlink/minimal/../mavlink_helpers.h ****             header_len = MAVLINK_CORE_HEADER_MAVLINK1_LEN;
 341:mavlink/minimal/../mavlink_helpers.h ****             buf[0] = MAVLINK_STX_MAVLINK1;
 342:mavlink/minimal/../mavlink_helpers.h ****             buf[1] = length;
 343:mavlink/minimal/../mavlink_helpers.h ****             buf[2] = status->current_tx_seq;
 344:mavlink/minimal/../mavlink_helpers.h ****             buf[3] = mavlink_system.sysid;
 345:mavlink/minimal/../mavlink_helpers.h ****             buf[4] = mavlink_system.compid;
 346:mavlink/minimal/../mavlink_helpers.h ****             buf[5] = msgid & 0xFF;
 347:mavlink/minimal/../mavlink_helpers.h ****         } else {
 348:mavlink/minimal/../mavlink_helpers.h **** 	    uint8_t incompat_flags = 0;
 349:mavlink/minimal/../mavlink_helpers.h **** 	    if (signing) {
 350:mavlink/minimal/../mavlink_helpers.h **** 		incompat_flags |= MAVLINK_IFLAG_SIGNED;
 351:mavlink/minimal/../mavlink_helpers.h **** 	    }
 352:mavlink/minimal/../mavlink_helpers.h ****             length = _mav_trim_payload(packet, length);
 353:mavlink/minimal/../mavlink_helpers.h ****             buf[0] = MAVLINK_STX;
 354:mavlink/minimal/../mavlink_helpers.h ****             buf[1] = length;
 355:mavlink/minimal/../mavlink_helpers.h ****             buf[2] = incompat_flags;
 356:mavlink/minimal/../mavlink_helpers.h ****             buf[3] = 0; // compat_flags
 357:mavlink/minimal/../mavlink_helpers.h ****             buf[4] = status->current_tx_seq;
 358:mavlink/minimal/../mavlink_helpers.h ****             buf[5] = mavlink_system.sysid;
 359:mavlink/minimal/../mavlink_helpers.h ****             buf[6] = mavlink_system.compid;
 360:mavlink/minimal/../mavlink_helpers.h ****             buf[7] = msgid & 0xFF;
 361:mavlink/minimal/../mavlink_helpers.h ****             buf[8] = (msgid >> 8) & 0xFF;
 362:mavlink/minimal/../mavlink_helpers.h ****             buf[9] = (msgid >> 16) & 0xFF;
 363:mavlink/minimal/../mavlink_helpers.h ****         }
 364:mavlink/minimal/../mavlink_helpers.h **** 	status->current_tx_seq++;
 365:mavlink/minimal/../mavlink_helpers.h **** 	checksum = crc_calculate((const uint8_t*)&buf[1], header_len);
 366:mavlink/minimal/../mavlink_helpers.h **** 	crc_accumulate_buffer(&checksum, packet, length);
 367:mavlink/minimal/../mavlink_helpers.h **** 	crc_accumulate(crc_extra, &checksum);
 368:mavlink/minimal/../mavlink_helpers.h **** 	ck[0] = (uint8_t)(checksum & 0xFF);
ARM GAS  /tmp/ccrjRHai.s 			page 59


 369:mavlink/minimal/../mavlink_helpers.h **** 	ck[1] = (uint8_t)(checksum >> 8);
 370:mavlink/minimal/../mavlink_helpers.h **** 
 371:mavlink/minimal/../mavlink_helpers.h **** #ifndef MAVLINK_NO_SIGN_PACKET
 372:mavlink/minimal/../mavlink_helpers.h **** 	if (signing) {
 373:mavlink/minimal/../mavlink_helpers.h **** 		// possibly add a signature
 374:mavlink/minimal/../mavlink_helpers.h **** 		signature_len = mavlink_sign_packet(status->signing, signature, buf, header_len+1,
 375:mavlink/minimal/../mavlink_helpers.h **** 						    (const uint8_t *)packet, length, ck);
 376:mavlink/minimal/../mavlink_helpers.h **** 	}
 377:mavlink/minimal/../mavlink_helpers.h **** #endif
 378:mavlink/minimal/../mavlink_helpers.h **** 
 379:mavlink/minimal/../mavlink_helpers.h **** 	MAVLINK_START_UART_SEND(chan, header_len + 3 + (uint16_t)length + (uint16_t)signature_len);
 380:mavlink/minimal/../mavlink_helpers.h **** 	_mavlink_send_uart(chan, (const char *)buf, header_len+1);
 381:mavlink/minimal/../mavlink_helpers.h **** 	_mavlink_send_uart(chan, packet, length);
 382:mavlink/minimal/../mavlink_helpers.h **** 	_mavlink_send_uart(chan, (const char *)ck, 2);
 383:mavlink/minimal/../mavlink_helpers.h **** 	if (signature_len != 0) {
 384:mavlink/minimal/../mavlink_helpers.h **** 		_mavlink_send_uart(chan, (const char *)signature, signature_len);
 385:mavlink/minimal/../mavlink_helpers.h **** 	}
 386:mavlink/minimal/../mavlink_helpers.h **** 	MAVLINK_END_UART_SEND(chan, header_len + 3 + (uint16_t)length + (uint16_t)signature_len);
 387:mavlink/minimal/../mavlink_helpers.h **** }
 388:mavlink/minimal/../mavlink_helpers.h **** 
 389:mavlink/minimal/../mavlink_helpers.h **** /**
 390:mavlink/minimal/../mavlink_helpers.h ****  * @brief re-send a message over a uart channel
 391:mavlink/minimal/../mavlink_helpers.h ****  * this is more stack efficient than re-marshalling the message
 392:mavlink/minimal/../mavlink_helpers.h ****  * If the message is signed then the original signature is also sent
 393:mavlink/minimal/../mavlink_helpers.h ****  */
 394:mavlink/minimal/../mavlink_helpers.h **** MAVLINK_HELPER void _mavlink_resend_uart(mavlink_channel_t chan, const mavlink_message_t *msg)
 395:mavlink/minimal/../mavlink_helpers.h **** {
 396:mavlink/minimal/../mavlink_helpers.h **** 	uint8_t ck[2];
 397:mavlink/minimal/../mavlink_helpers.h **** 
 398:mavlink/minimal/../mavlink_helpers.h **** 	ck[0] = (uint8_t)(msg->checksum & 0xFF);
 399:mavlink/minimal/../mavlink_helpers.h **** 	ck[1] = (uint8_t)(msg->checksum >> 8);
 400:mavlink/minimal/../mavlink_helpers.h **** 	// XXX use the right sequence here
 401:mavlink/minimal/../mavlink_helpers.h **** 
 402:mavlink/minimal/../mavlink_helpers.h ****         uint8_t header_len;
 403:mavlink/minimal/../mavlink_helpers.h ****         uint8_t signature_len;
 404:mavlink/minimal/../mavlink_helpers.h ****         
 405:mavlink/minimal/../mavlink_helpers.h ****         if (msg->magic == MAVLINK_STX_MAVLINK1) {
 406:mavlink/minimal/../mavlink_helpers.h ****             header_len = MAVLINK_CORE_HEADER_MAVLINK1_LEN + 1;
 407:mavlink/minimal/../mavlink_helpers.h ****             signature_len = 0;
 408:mavlink/minimal/../mavlink_helpers.h ****             MAVLINK_START_UART_SEND(chan, header_len + msg->len + 2 + signature_len);
 409:mavlink/minimal/../mavlink_helpers.h ****             // we can't send the structure directly as it has extra mavlink2 elements in it
 410:mavlink/minimal/../mavlink_helpers.h ****             uint8_t buf[MAVLINK_CORE_HEADER_MAVLINK1_LEN + 1];
 411:mavlink/minimal/../mavlink_helpers.h ****             buf[0] = msg->magic;
 412:mavlink/minimal/../mavlink_helpers.h ****             buf[1] = msg->len;
 413:mavlink/minimal/../mavlink_helpers.h ****             buf[2] = msg->seq;
 414:mavlink/minimal/../mavlink_helpers.h ****             buf[3] = msg->sysid;
 415:mavlink/minimal/../mavlink_helpers.h ****             buf[4] = msg->compid;
 416:mavlink/minimal/../mavlink_helpers.h ****             buf[5] = msg->msgid & 0xFF;
 417:mavlink/minimal/../mavlink_helpers.h ****             _mavlink_send_uart(chan, (const char*)buf, header_len);
 418:mavlink/minimal/../mavlink_helpers.h ****         } else {
 419:mavlink/minimal/../mavlink_helpers.h ****             header_len = MAVLINK_CORE_HEADER_LEN + 1;
 420:mavlink/minimal/../mavlink_helpers.h ****             signature_len = (msg->incompat_flags & MAVLINK_IFLAG_SIGNED)?MAVLINK_SIGNATURE_BLOCK_LE
 421:mavlink/minimal/../mavlink_helpers.h ****             MAVLINK_START_UART_SEND(chan, header_len + msg->len + 2 + signature_len);
 422:mavlink/minimal/../mavlink_helpers.h ****             uint8_t buf[MAVLINK_CORE_HEADER_LEN + 1];
 423:mavlink/minimal/../mavlink_helpers.h ****             buf[0] = msg->magic;
 424:mavlink/minimal/../mavlink_helpers.h ****             buf[1] = msg->len;
 425:mavlink/minimal/../mavlink_helpers.h ****             buf[2] = msg->incompat_flags;
ARM GAS  /tmp/ccrjRHai.s 			page 60


 426:mavlink/minimal/../mavlink_helpers.h ****             buf[3] = msg->compat_flags;
 427:mavlink/minimal/../mavlink_helpers.h ****             buf[4] = msg->seq;
 428:mavlink/minimal/../mavlink_helpers.h ****             buf[5] = msg->sysid;
 429:mavlink/minimal/../mavlink_helpers.h ****             buf[6] = msg->compid;
 430:mavlink/minimal/../mavlink_helpers.h ****             buf[7] = msg->msgid & 0xFF;
 431:mavlink/minimal/../mavlink_helpers.h ****             buf[8] = (msg->msgid >> 8) & 0xFF;
 432:mavlink/minimal/../mavlink_helpers.h ****             buf[9] = (msg->msgid >> 16) & 0xFF;
 433:mavlink/minimal/../mavlink_helpers.h ****             _mavlink_send_uart(chan, (const char *)buf, header_len);
 434:mavlink/minimal/../mavlink_helpers.h ****         }
 435:mavlink/minimal/../mavlink_helpers.h **** 	_mavlink_send_uart(chan, _MAV_PAYLOAD(msg), msg->len);
 436:mavlink/minimal/../mavlink_helpers.h **** 	_mavlink_send_uart(chan, (const char *)ck, 2);
 437:mavlink/minimal/../mavlink_helpers.h ****         if (signature_len != 0) {
 438:mavlink/minimal/../mavlink_helpers.h **** 	    _mavlink_send_uart(chan, (const char *)msg->signature, MAVLINK_SIGNATURE_BLOCK_LEN);
 439:mavlink/minimal/../mavlink_helpers.h ****         }
 440:mavlink/minimal/../mavlink_helpers.h ****         MAVLINK_END_UART_SEND(chan, header_len + msg->len + 2 + signature_len);
 441:mavlink/minimal/../mavlink_helpers.h **** }
 442:mavlink/minimal/../mavlink_helpers.h **** #endif // MAVLINK_USE_CONVENIENCE_FUNCTIONS
 443:mavlink/minimal/../mavlink_helpers.h **** 
 444:mavlink/minimal/../mavlink_helpers.h **** /**
 445:mavlink/minimal/../mavlink_helpers.h ****  * @brief Pack a message to send it over a serial byte stream
 446:mavlink/minimal/../mavlink_helpers.h ****  */
 447:mavlink/minimal/../mavlink_helpers.h **** MAVLINK_HELPER uint16_t mavlink_msg_to_send_buffer(uint8_t *buf, const mavlink_message_t *msg)
 1991              		.loc 2 447 25 view .LVU752
 1992              	.LBB196:
 448:mavlink/minimal/../mavlink_helpers.h **** {
 449:mavlink/minimal/../mavlink_helpers.h **** 	uint8_t signature_len, header_len;
 1993              		.loc 2 449 2 view .LVU753
 450:mavlink/minimal/../mavlink_helpers.h **** 	uint8_t *ck;
 1994              		.loc 2 450 2 view .LVU754
 451:mavlink/minimal/../mavlink_helpers.h ****         uint8_t length = msg->len;
 1995              		.loc 2 451 9 view .LVU755
 1996              		.loc 2 451 17 is_stmt 0 view .LVU756
 1997 0174 504B     		ldr	r3, .L146
 1998 0176 DC78     		ldrb	r4, [r3, #3]	@ zero_extendqisi2
 1999              	.LVL220:
 452:mavlink/minimal/../mavlink_helpers.h ****         
 453:mavlink/minimal/../mavlink_helpers.h **** 	if (msg->magic == MAVLINK_STX_MAVLINK1) {
 2000              		.loc 2 453 2 is_stmt 1 view .LVU757
 2001              		.loc 2 453 9 is_stmt 0 view .LVU758
 2002 0178 9A78     		ldrb	r2, [r3, #2]	@ zero_extendqisi2
 2003              		.loc 2 453 5 view .LVU759
 2004 017a FE2A     		cmp	r2, #254
 2005 017c 15D0     		beq	.L141
 2006              	.LVL221:
 2007              	.L104:
 2008              	.LBB197:
 2009              	.LBB198:
 113:mavlink/minimal/../mavlink_helpers.h **** 		length--;
 2010              		.loc 2 113 8 is_stmt 1 view .LVU760
 2011 017e 012C     		cmp	r4, #1
 2012 0180 2DD9     		bls	.L106
 113:mavlink/minimal/../mavlink_helpers.h **** 		length--;
 2013              		.loc 2 113 30 is_stmt 0 view .LVU761
 2014 0182 4D4B     		ldr	r3, .L146
 2015 0184 2344     		add	r3, r3, r4
 2016 0186 DB7A     		ldrb	r3, [r3, #11]	@ zero_extendqisi2
 113:mavlink/minimal/../mavlink_helpers.h **** 		length--;
ARM GAS  /tmp/ccrjRHai.s 			page 61


 2017              		.loc 2 113 20 view .LVU762
 2018 0188 4BBB     		cbnz	r3, .L106
 114:mavlink/minimal/../mavlink_helpers.h **** 	}
 2019              		.loc 2 114 3 is_stmt 1 view .LVU763
 114:mavlink/minimal/../mavlink_helpers.h **** 	}
 2020              		.loc 2 114 9 is_stmt 0 view .LVU764
 2021 018a 013C     		subs	r4, r4, #1
 2022              	.LVL222:
 114:mavlink/minimal/../mavlink_helpers.h **** 	}
 2023              		.loc 2 114 9 view .LVU765
 2024 018c E4B2     		uxtb	r4, r4
 2025              	.LVL223:
 114:mavlink/minimal/../mavlink_helpers.h **** 	}
 2026              		.loc 2 114 9 view .LVU766
 2027 018e F6E7     		b	.L104
 2028              	.LVL224:
 2029              	.L140:
 114:mavlink/minimal/../mavlink_helpers.h **** 	}
 2030              		.loc 2 114 9 view .LVU767
 2031              	.LBE198:
 2032              	.LBE197:
 2033              	.LBE196:
 2034              	.LBE195:
 2035              	.LBB203:
 2036              	.LBB191:
 2037              	.LBB187:
 2038              	.LBB184:
 2039              	.LBB181:
 2040              	.LBB179:
 2041              	.LBB177:
 281:mavlink/minimal/../mavlink_helpers.h **** 				    msg->signature,
 2042              		.loc 2 281 3 is_stmt 1 view .LVU768
 2043 0190 C878     		ldrb	r0, [r1, #3]	@ zero_extendqisi2
 2044              	.LVL225:
 281:mavlink/minimal/../mavlink_helpers.h **** 				    msg->signature,
 2045              		.loc 2 281 3 is_stmt 0 view .LVU769
 2046 0192 2C18     		adds	r4, r5, r0
 2047 0194 0294     		str	r4, [sp, #8]
 2048 0196 0190     		str	r0, [sp, #4]
 2049 0198 0095     		str	r5, [sp]
 2050 019a 05AA     		add	r2, sp, #20
 2051              	.LVL226:
 281:mavlink/minimal/../mavlink_helpers.h **** 				    msg->signature,
 2052              		.loc 2 281 3 view .LVU770
 2053 019c 01F58B71 		add	r1, r1, #278
 281:mavlink/minimal/../mavlink_helpers.h **** 				    msg->signature,
 2054              		.loc 2 281 3 view .LVU771
 2055 01a0 4648     		ldr	r0, .L146+4
 2056 01a2 0069     		ldr	r0, [r0, #16]
 2057 01a4 FFF7FEFF 		bl	mavlink_sign_packet
 2058              	.LVL227:
 281:mavlink/minimal/../mavlink_helpers.h **** 				    msg->signature,
 2059              		.loc 2 281 3 view .LVU772
 2060 01a8 E4E7     		b	.L103
 2061              	.LVL228:
 2062              	.L141:
 281:mavlink/minimal/../mavlink_helpers.h **** 				    msg->signature,
ARM GAS  /tmp/ccrjRHai.s 			page 62


 2063              		.loc 2 281 3 view .LVU773
 2064              	.LBE177:
 2065              	.LBE179:
 2066              	.LBE181:
 2067              	.LBE184:
 2068              	.LBE187:
 2069              	.LBE191:
 2070              	.LBE203:
 2071              	.LBB204:
 2072              	.LBB201:
 454:mavlink/minimal/../mavlink_helpers.h **** 		signature_len = 0;
 2073              		.loc 2 454 3 is_stmt 1 view .LVU774
 455:mavlink/minimal/../mavlink_helpers.h **** 		header_len = MAVLINK_CORE_HEADER_MAVLINK1_LEN;
 2074              		.loc 2 455 3 view .LVU775
 456:mavlink/minimal/../mavlink_helpers.h **** 		buf[0] = msg->magic;
 2075              		.loc 2 456 3 view .LVU776
 2076              		.loc 2 456 10 is_stmt 0 view .LVU777
 2077 01aa 454D     		ldr	r5, .L146+8
 2078 01ac 2A70     		strb	r2, [r5]
 457:mavlink/minimal/../mavlink_helpers.h **** 		buf[1] = length;
 2079              		.loc 2 457 3 is_stmt 1 view .LVU778
 2080              		.loc 2 457 10 is_stmt 0 view .LVU779
 2081 01ae 6C70     		strb	r4, [r5, #1]
 458:mavlink/minimal/../mavlink_helpers.h **** 		buf[2] = msg->seq;
 2082              		.loc 2 458 3 is_stmt 1 view .LVU780
 2083              		.loc 2 458 15 is_stmt 0 view .LVU781
 2084 01b0 1E46     		mov	r6, r3
 2085 01b2 9B79     		ldrb	r3, [r3, #6]	@ zero_extendqisi2
 2086              		.loc 2 458 10 view .LVU782
 2087 01b4 AB70     		strb	r3, [r5, #2]
 459:mavlink/minimal/../mavlink_helpers.h **** 		buf[3] = msg->sysid;
 2088              		.loc 2 459 3 is_stmt 1 view .LVU783
 2089              		.loc 2 459 15 is_stmt 0 view .LVU784
 2090 01b6 F379     		ldrb	r3, [r6, #7]	@ zero_extendqisi2
 2091              		.loc 2 459 10 view .LVU785
 2092 01b8 EB70     		strb	r3, [r5, #3]
 460:mavlink/minimal/../mavlink_helpers.h **** 		buf[4] = msg->compid;
 2093              		.loc 2 460 3 is_stmt 1 view .LVU786
 2094              		.loc 2 460 15 is_stmt 0 view .LVU787
 2095 01ba 337A     		ldrb	r3, [r6, #8]	@ zero_extendqisi2
 2096              		.loc 2 460 10 view .LVU788
 2097 01bc 2B71     		strb	r3, [r5, #4]
 461:mavlink/minimal/../mavlink_helpers.h **** 		buf[5] = msg->msgid & 0xFF;
 2098              		.loc 2 461 3 is_stmt 1 view .LVU789
 2099              		.loc 2 461 15 is_stmt 0 view .LVU790
 2100 01be B368     		ldr	r3, [r6, #8]
 2101 01c0 C3F31723 		ubfx	r3, r3, #8, #24
 2102              		.loc 2 461 10 view .LVU791
 2103 01c4 6B71     		strb	r3, [r5, #5]
 462:mavlink/minimal/../mavlink_helpers.h **** 		memcpy(&buf[6], _MAV_PAYLOAD(msg), msg->len);
 2104              		.loc 2 462 3 is_stmt 1 view .LVU792
 2105 01c6 2246     		mov	r2, r4
 2106 01c8 06F10C01 		add	r1, r6, #12
 2107 01cc A81D     		adds	r0, r5, #6
 2108 01ce FFF7FEFF 		bl	memcpy
 2109              	.LVL229:
 463:mavlink/minimal/../mavlink_helpers.h **** 		ck = buf + header_len + 1 + (uint16_t)msg->len;
ARM GAS  /tmp/ccrjRHai.s 			page 63


 2110              		.loc 2 463 3 view .LVU793
 2111              		.loc 2 463 44 is_stmt 0 view .LVU794
 2112 01d2 F378     		ldrb	r3, [r6, #3]	@ zero_extendqisi2
 2113              		.loc 2 463 29 view .LVU795
 2114 01d4 0633     		adds	r3, r3, #6
 2115              		.loc 2 463 6 view .LVU796
 2116 01d6 E818     		adds	r0, r5, r3
 2117              	.LVL230:
 455:mavlink/minimal/../mavlink_helpers.h **** 		buf[0] = msg->magic;
 2118              		.loc 2 455 14 view .LVU797
 2119 01d8 0526     		movs	r6, #5
 454:mavlink/minimal/../mavlink_helpers.h **** 		header_len = MAVLINK_CORE_HEADER_MAVLINK1_LEN;
 2120              		.loc 2 454 17 view .LVU798
 2121 01da 0027     		movs	r7, #0
 2122 01dc 25E0     		b	.L105
 2123              	.LVL231:
 2124              	.L106:
 2125              	.LBB200:
 2126              	.LBB199:
 116:mavlink/minimal/../mavlink_helpers.h **** }
 2127              		.loc 2 116 2 is_stmt 1 view .LVU799
 116:mavlink/minimal/../mavlink_helpers.h **** }
 2128              		.loc 2 116 2 is_stmt 0 view .LVU800
 2129              	.LBE199:
 2130              	.LBE200:
 464:mavlink/minimal/../mavlink_helpers.h **** 	} else {
 465:mavlink/minimal/../mavlink_helpers.h **** 		length = _mav_trim_payload(_MAV_PAYLOAD(msg), length);
 466:mavlink/minimal/../mavlink_helpers.h **** 		header_len = MAVLINK_CORE_HEADER_LEN;
 2131              		.loc 2 466 3 is_stmt 1 view .LVU801
 467:mavlink/minimal/../mavlink_helpers.h **** 		buf[0] = msg->magic;
 2132              		.loc 2 467 3 view .LVU802
 2133              		.loc 2 467 10 is_stmt 0 view .LVU803
 2134 01de 384D     		ldr	r5, .L146+8
 2135 01e0 2A70     		strb	r2, [r5]
 468:mavlink/minimal/../mavlink_helpers.h **** 		buf[1] = length;
 2136              		.loc 2 468 3 is_stmt 1 view .LVU804
 2137              		.loc 2 468 10 is_stmt 0 view .LVU805
 2138 01e2 6C70     		strb	r4, [r5, #1]
 469:mavlink/minimal/../mavlink_helpers.h **** 		buf[2] = msg->incompat_flags;
 2139              		.loc 2 469 3 is_stmt 1 view .LVU806
 2140              		.loc 2 469 15 is_stmt 0 view .LVU807
 2141 01e4 344E     		ldr	r6, .L146
 2142 01e6 3379     		ldrb	r3, [r6, #4]	@ zero_extendqisi2
 2143              		.loc 2 469 10 view .LVU808
 2144 01e8 AB70     		strb	r3, [r5, #2]
 470:mavlink/minimal/../mavlink_helpers.h **** 		buf[3] = msg->compat_flags;
 2145              		.loc 2 470 3 is_stmt 1 view .LVU809
 2146              		.loc 2 470 15 is_stmt 0 view .LVU810
 2147 01ea 7379     		ldrb	r3, [r6, #5]	@ zero_extendqisi2
 2148              		.loc 2 470 10 view .LVU811
 2149 01ec EB70     		strb	r3, [r5, #3]
 471:mavlink/minimal/../mavlink_helpers.h **** 		buf[4] = msg->seq;
 2150              		.loc 2 471 3 is_stmt 1 view .LVU812
 2151              		.loc 2 471 15 is_stmt 0 view .LVU813
 2152 01ee B379     		ldrb	r3, [r6, #6]	@ zero_extendqisi2
 2153              		.loc 2 471 10 view .LVU814
 2154 01f0 2B71     		strb	r3, [r5, #4]
ARM GAS  /tmp/ccrjRHai.s 			page 64


 472:mavlink/minimal/../mavlink_helpers.h **** 		buf[5] = msg->sysid;
 2155              		.loc 2 472 3 is_stmt 1 view .LVU815
 2156              		.loc 2 472 15 is_stmt 0 view .LVU816
 2157 01f2 F379     		ldrb	r3, [r6, #7]	@ zero_extendqisi2
 2158              		.loc 2 472 10 view .LVU817
 2159 01f4 6B71     		strb	r3, [r5, #5]
 473:mavlink/minimal/../mavlink_helpers.h **** 		buf[6] = msg->compid;
 2160              		.loc 2 473 3 is_stmt 1 view .LVU818
 2161              		.loc 2 473 15 is_stmt 0 view .LVU819
 2162 01f6 337A     		ldrb	r3, [r6, #8]	@ zero_extendqisi2
 2163              		.loc 2 473 10 view .LVU820
 2164 01f8 AB71     		strb	r3, [r5, #6]
 474:mavlink/minimal/../mavlink_helpers.h **** 		buf[7] = msg->msgid & 0xFF;
 2165              		.loc 2 474 3 is_stmt 1 view .LVU821
 2166              		.loc 2 474 15 is_stmt 0 view .LVU822
 2167 01fa B368     		ldr	r3, [r6, #8]
 2168 01fc C3F31723 		ubfx	r3, r3, #8, #24
 2169              		.loc 2 474 10 view .LVU823
 2170 0200 EB71     		strb	r3, [r5, #7]
 475:mavlink/minimal/../mavlink_helpers.h **** 		buf[8] = (msg->msgid >> 8) & 0xFF;
 2171              		.loc 2 475 3 is_stmt 1 view .LVU824
 2172              		.loc 2 475 24 is_stmt 0 view .LVU825
 2173 0202 1A12     		asrs	r2, r3, #8
 2174              		.loc 2 475 10 view .LVU826
 2175 0204 2A72     		strb	r2, [r5, #8]
 476:mavlink/minimal/../mavlink_helpers.h **** 		buf[9] = (msg->msgid >> 16) & 0xFF;
 2176              		.loc 2 476 3 is_stmt 1 view .LVU827
 2177              		.loc 2 476 24 is_stmt 0 view .LVU828
 2178 0206 1B14     		asrs	r3, r3, #16
 2179              		.loc 2 476 10 view .LVU829
 2180 0208 6B72     		strb	r3, [r5, #9]
 477:mavlink/minimal/../mavlink_helpers.h **** 		memcpy(&buf[10], _MAV_PAYLOAD(msg), length);
 2181              		.loc 2 477 3 is_stmt 1 view .LVU830
 2182 020a 2246     		mov	r2, r4
 2183 020c 06F10C01 		add	r1, r6, #12
 2184 0210 05F10A00 		add	r0, r5, #10
 2185 0214 FFF7FEFF 		bl	memcpy
 2186              	.LVL232:
 478:mavlink/minimal/../mavlink_helpers.h **** 		ck = buf + header_len + 1 + (uint16_t)length;
 2187              		.loc 2 478 3 view .LVU831
 2188              		.loc 2 478 29 is_stmt 0 view .LVU832
 2189 0218 04F10A00 		add	r0, r4, #10
 2190              		.loc 2 478 6 view .LVU833
 2191 021c 2844     		add	r0, r0, r5
 2192              	.LVL233:
 479:mavlink/minimal/../mavlink_helpers.h **** 		signature_len = (msg->incompat_flags & MAVLINK_IFLAG_SIGNED)?MAVLINK_SIGNATURE_BLOCK_LEN:0;
 2193              		.loc 2 479 3 is_stmt 1 view .LVU834
 2194              		.loc 2 479 23 is_stmt 0 view .LVU835
 2195 021e 3179     		ldrb	r1, [r6, #4]	@ zero_extendqisi2
 2196              		.loc 2 479 17 view .LVU836
 2197 0220 11F00107 		ands	r7, r1, #1
 2198 0224 40D0     		beq	.L133
 466:mavlink/minimal/../mavlink_helpers.h **** 		buf[0] = msg->magic;
 2199              		.loc 2 466 14 view .LVU837
 2200 0226 0926     		movs	r6, #9
 2201              		.loc 2 479 17 view .LVU838
 2202 0228 0D27     		movs	r7, #13
ARM GAS  /tmp/ccrjRHai.s 			page 65


 2203              	.LVL234:
 2204              	.L105:
 480:mavlink/minimal/../mavlink_helpers.h **** 	}
 481:mavlink/minimal/../mavlink_helpers.h **** 	ck[0] = (uint8_t)(msg->checksum & 0xFF);
 2205              		.loc 2 481 2 is_stmt 1 view .LVU839
 2206              		.loc 2 481 23 is_stmt 0 view .LVU840
 2207 022a 234B     		ldr	r3, .L146
 2208 022c 1B88     		ldrh	r3, [r3]
 2209              		.loc 2 481 8 view .LVU841
 2210 022e 0370     		strb	r3, [r0]
 482:mavlink/minimal/../mavlink_helpers.h **** 	ck[1] = (uint8_t)(msg->checksum >> 8);
 2211              		.loc 2 482 2 is_stmt 1 view .LVU842
 2212              		.loc 2 482 10 is_stmt 0 view .LVU843
 2213 0230 1B0A     		lsrs	r3, r3, #8
 2214              		.loc 2 482 8 view .LVU844
 2215 0232 4370     		strb	r3, [r0, #1]
 483:mavlink/minimal/../mavlink_helpers.h **** 	if (signature_len > 0) {
 2216              		.loc 2 483 2 is_stmt 1 view .LVU845
 2217              		.loc 2 483 5 is_stmt 0 view .LVU846
 2218 0234 002F     		cmp	r7, #0
 2219 0236 39D1     		bne	.L142
 2220              	.LVL235:
 2221              	.L108:
 484:mavlink/minimal/../mavlink_helpers.h **** 		memcpy(&ck[2], msg->signature, signature_len);
 485:mavlink/minimal/../mavlink_helpers.h **** 	}
 486:mavlink/minimal/../mavlink_helpers.h **** 
 487:mavlink/minimal/../mavlink_helpers.h **** 	return header_len + 1 + 2 + (uint16_t)length + (uint16_t)signature_len;
 2222              		.loc 2 487 2 is_stmt 1 view .LVU847
 2223              		.loc 2 487 28 is_stmt 0 view .LVU848
 2224 0238 3119     		adds	r1, r6, r4
 2225              		.loc 2 487 47 view .LVU849
 2226 023a 3944     		add	r1, r1, r7
 2227 023c 0331     		adds	r1, r1, #3
 2228 023e 89B2     		uxth	r1, r1
 2229              	.LVL236:
 2230              		.loc 2 487 47 view .LVU850
 2231              	.LBE201:
 2232              	.LBE204:
 2233              		.loc 3 190 11 view .LVU851
 2234 0240 204B     		ldr	r3, .L146+12
 2235 0242 1980     		strh	r1, [r3]	@ movhi
 191:Core/Src/freertos.c ****       CDC_Transmit_FS(buf, len);
 2236              		.loc 3 191 7 is_stmt 1 view .LVU852
 2237 0244 1E48     		ldr	r0, .L146+8
 2238 0246 FFF7FEFF 		bl	CDC_Transmit_FS
 2239              	.LVL237:
 192:Core/Src/freertos.c ****       last_ms = HAL_GetTick();
 2240              		.loc 3 192 7 view .LVU853
 2241              		.loc 3 192 17 is_stmt 0 view .LVU854
 2242 024a FFF7FEFF 		bl	HAL_GetTick
 2243              	.LVL238:
 2244 024e 0446     		mov	r4, r0
 2245              	.LVL239:
 2246              	.L89:
 193:Core/Src/freertos.c ****     }
 194:Core/Src/freertos.c ****     mavlink_msg_attitude_pack(1, 1, &attitude_msg, HAL_GetTick(), attitude.roll, attitude.pitch, 0,
 2247              		.loc 3 194 5 is_stmt 1 view .LVU855
ARM GAS  /tmp/ccrjRHai.s 			page 66


 2248 0250 FFF7FEFF 		bl	HAL_GetTick
 2249              	.LVL240:
 2250              	.LBB205:
 2251              	.LBI205:
 2252              		.file 5 "mavlink/common/./mavlink_msg_attitude.h"
   1:mavlink/common/./mavlink_msg_attitude.h **** #pragma once
   2:mavlink/common/./mavlink_msg_attitude.h **** // MESSAGE ATTITUDE PACKING
   3:mavlink/common/./mavlink_msg_attitude.h **** 
   4:mavlink/common/./mavlink_msg_attitude.h **** #define MAVLINK_MSG_ID_ATTITUDE 30
   5:mavlink/common/./mavlink_msg_attitude.h **** 
   6:mavlink/common/./mavlink_msg_attitude.h **** 
   7:mavlink/common/./mavlink_msg_attitude.h **** typedef struct __mavlink_attitude_t {
   8:mavlink/common/./mavlink_msg_attitude.h ****  uint32_t time_boot_ms; /*< [ms] Timestamp (time since system boot).*/
   9:mavlink/common/./mavlink_msg_attitude.h ****  float roll; /*< [rad] Roll angle (-pi..+pi)*/
  10:mavlink/common/./mavlink_msg_attitude.h ****  float pitch; /*< [rad] Pitch angle (-pi..+pi)*/
  11:mavlink/common/./mavlink_msg_attitude.h ****  float yaw; /*< [rad] Yaw angle (-pi..+pi)*/
  12:mavlink/common/./mavlink_msg_attitude.h ****  float rollspeed; /*< [rad/s] Roll angular speed*/
  13:mavlink/common/./mavlink_msg_attitude.h ****  float pitchspeed; /*< [rad/s] Pitch angular speed*/
  14:mavlink/common/./mavlink_msg_attitude.h ****  float yawspeed; /*< [rad/s] Yaw angular speed*/
  15:mavlink/common/./mavlink_msg_attitude.h **** } mavlink_attitude_t;
  16:mavlink/common/./mavlink_msg_attitude.h **** 
  17:mavlink/common/./mavlink_msg_attitude.h **** #define MAVLINK_MSG_ID_ATTITUDE_LEN 28
  18:mavlink/common/./mavlink_msg_attitude.h **** #define MAVLINK_MSG_ID_ATTITUDE_MIN_LEN 28
  19:mavlink/common/./mavlink_msg_attitude.h **** #define MAVLINK_MSG_ID_30_LEN 28
  20:mavlink/common/./mavlink_msg_attitude.h **** #define MAVLINK_MSG_ID_30_MIN_LEN 28
  21:mavlink/common/./mavlink_msg_attitude.h **** 
  22:mavlink/common/./mavlink_msg_attitude.h **** #define MAVLINK_MSG_ID_ATTITUDE_CRC 39
  23:mavlink/common/./mavlink_msg_attitude.h **** #define MAVLINK_MSG_ID_30_CRC 39
  24:mavlink/common/./mavlink_msg_attitude.h **** 
  25:mavlink/common/./mavlink_msg_attitude.h **** 
  26:mavlink/common/./mavlink_msg_attitude.h **** 
  27:mavlink/common/./mavlink_msg_attitude.h **** #if MAVLINK_COMMAND_24BIT
  28:mavlink/common/./mavlink_msg_attitude.h **** #define MAVLINK_MESSAGE_INFO_ATTITUDE { \
  29:mavlink/common/./mavlink_msg_attitude.h ****     30, \
  30:mavlink/common/./mavlink_msg_attitude.h ****     "ATTITUDE", \
  31:mavlink/common/./mavlink_msg_attitude.h ****     7, \
  32:mavlink/common/./mavlink_msg_attitude.h ****     {  { "time_boot_ms", NULL, MAVLINK_TYPE_UINT32_T, 0, 0, offsetof(mavlink_attitude_t, time_boot_
  33:mavlink/common/./mavlink_msg_attitude.h ****          { "roll", NULL, MAVLINK_TYPE_FLOAT, 0, 4, offsetof(mavlink_attitude_t, roll) }, \
  34:mavlink/common/./mavlink_msg_attitude.h ****          { "pitch", NULL, MAVLINK_TYPE_FLOAT, 0, 8, offsetof(mavlink_attitude_t, pitch) }, \
  35:mavlink/common/./mavlink_msg_attitude.h ****          { "yaw", NULL, MAVLINK_TYPE_FLOAT, 0, 12, offsetof(mavlink_attitude_t, yaw) }, \
  36:mavlink/common/./mavlink_msg_attitude.h ****          { "rollspeed", NULL, MAVLINK_TYPE_FLOAT, 0, 16, offsetof(mavlink_attitude_t, rollspeed) },
  37:mavlink/common/./mavlink_msg_attitude.h ****          { "pitchspeed", NULL, MAVLINK_TYPE_FLOAT, 0, 20, offsetof(mavlink_attitude_t, pitchspeed) 
  38:mavlink/common/./mavlink_msg_attitude.h ****          { "yawspeed", NULL, MAVLINK_TYPE_FLOAT, 0, 24, offsetof(mavlink_attitude_t, yawspeed) }, \
  39:mavlink/common/./mavlink_msg_attitude.h ****          } \
  40:mavlink/common/./mavlink_msg_attitude.h **** }
  41:mavlink/common/./mavlink_msg_attitude.h **** #else
  42:mavlink/common/./mavlink_msg_attitude.h **** #define MAVLINK_MESSAGE_INFO_ATTITUDE { \
  43:mavlink/common/./mavlink_msg_attitude.h ****     "ATTITUDE", \
  44:mavlink/common/./mavlink_msg_attitude.h ****     7, \
  45:mavlink/common/./mavlink_msg_attitude.h ****     {  { "time_boot_ms", NULL, MAVLINK_TYPE_UINT32_T, 0, 0, offsetof(mavlink_attitude_t, time_boot_
  46:mavlink/common/./mavlink_msg_attitude.h ****          { "roll", NULL, MAVLINK_TYPE_FLOAT, 0, 4, offsetof(mavlink_attitude_t, roll) }, \
  47:mavlink/common/./mavlink_msg_attitude.h ****          { "pitch", NULL, MAVLINK_TYPE_FLOAT, 0, 8, offsetof(mavlink_attitude_t, pitch) }, \
  48:mavlink/common/./mavlink_msg_attitude.h ****          { "yaw", NULL, MAVLINK_TYPE_FLOAT, 0, 12, offsetof(mavlink_attitude_t, yaw) }, \
  49:mavlink/common/./mavlink_msg_attitude.h ****          { "rollspeed", NULL, MAVLINK_TYPE_FLOAT, 0, 16, offsetof(mavlink_attitude_t, rollspeed) },
  50:mavlink/common/./mavlink_msg_attitude.h ****          { "pitchspeed", NULL, MAVLINK_TYPE_FLOAT, 0, 20, offsetof(mavlink_attitude_t, pitchspeed) 
  51:mavlink/common/./mavlink_msg_attitude.h ****          { "yawspeed", NULL, MAVLINK_TYPE_FLOAT, 0, 24, offsetof(mavlink_attitude_t, yawspeed) }, \
  52:mavlink/common/./mavlink_msg_attitude.h ****          } \
ARM GAS  /tmp/ccrjRHai.s 			page 67


  53:mavlink/common/./mavlink_msg_attitude.h **** }
  54:mavlink/common/./mavlink_msg_attitude.h **** #endif
  55:mavlink/common/./mavlink_msg_attitude.h **** 
  56:mavlink/common/./mavlink_msg_attitude.h **** /**
  57:mavlink/common/./mavlink_msg_attitude.h ****  * @brief Pack a attitude message
  58:mavlink/common/./mavlink_msg_attitude.h ****  * @param system_id ID of this system
  59:mavlink/common/./mavlink_msg_attitude.h ****  * @param component_id ID of this component (e.g. 200 for IMU)
  60:mavlink/common/./mavlink_msg_attitude.h ****  * @param msg The MAVLink message to compress the data into
  61:mavlink/common/./mavlink_msg_attitude.h ****  *
  62:mavlink/common/./mavlink_msg_attitude.h ****  * @param time_boot_ms [ms] Timestamp (time since system boot).
  63:mavlink/common/./mavlink_msg_attitude.h ****  * @param roll [rad] Roll angle (-pi..+pi)
  64:mavlink/common/./mavlink_msg_attitude.h ****  * @param pitch [rad] Pitch angle (-pi..+pi)
  65:mavlink/common/./mavlink_msg_attitude.h ****  * @param yaw [rad] Yaw angle (-pi..+pi)
  66:mavlink/common/./mavlink_msg_attitude.h ****  * @param rollspeed [rad/s] Roll angular speed
  67:mavlink/common/./mavlink_msg_attitude.h ****  * @param pitchspeed [rad/s] Pitch angular speed
  68:mavlink/common/./mavlink_msg_attitude.h ****  * @param yawspeed [rad/s] Yaw angular speed
  69:mavlink/common/./mavlink_msg_attitude.h ****  * @return length of the message in bytes (excluding serial stream start sign)
  70:mavlink/common/./mavlink_msg_attitude.h ****  */
  71:mavlink/common/./mavlink_msg_attitude.h **** static inline uint16_t mavlink_msg_attitude_pack(uint8_t system_id, uint8_t component_id, mavlink_m
 2253              		.loc 5 71 24 view .LVU856
 2254              	.LBB206:
  72:mavlink/common/./mavlink_msg_attitude.h ****                                uint32_t time_boot_ms, float roll, float pitch, float yaw, float rol
  73:mavlink/common/./mavlink_msg_attitude.h **** {
  74:mavlink/common/./mavlink_msg_attitude.h **** #if MAVLINK_NEED_BYTE_SWAP || !MAVLINK_ALIGNED_FIELDS
  75:mavlink/common/./mavlink_msg_attitude.h ****     char buf[MAVLINK_MSG_ID_ATTITUDE_LEN];
  76:mavlink/common/./mavlink_msg_attitude.h ****     _mav_put_uint32_t(buf, 0, time_boot_ms);
  77:mavlink/common/./mavlink_msg_attitude.h ****     _mav_put_float(buf, 4, roll);
  78:mavlink/common/./mavlink_msg_attitude.h ****     _mav_put_float(buf, 8, pitch);
  79:mavlink/common/./mavlink_msg_attitude.h ****     _mav_put_float(buf, 12, yaw);
  80:mavlink/common/./mavlink_msg_attitude.h ****     _mav_put_float(buf, 16, rollspeed);
  81:mavlink/common/./mavlink_msg_attitude.h ****     _mav_put_float(buf, 20, pitchspeed);
  82:mavlink/common/./mavlink_msg_attitude.h ****     _mav_put_float(buf, 24, yawspeed);
  83:mavlink/common/./mavlink_msg_attitude.h **** 
  84:mavlink/common/./mavlink_msg_attitude.h ****         memcpy(_MAV_PAYLOAD_NON_CONST(msg), buf, MAVLINK_MSG_ID_ATTITUDE_LEN);
  85:mavlink/common/./mavlink_msg_attitude.h **** #else
  86:mavlink/common/./mavlink_msg_attitude.h ****     mavlink_attitude_t packet;
 2255              		.loc 5 86 5 view .LVU857
  87:mavlink/common/./mavlink_msg_attitude.h ****     packet.time_boot_ms = time_boot_ms;
 2256              		.loc 5 87 5 view .LVU858
 2257              		.loc 5 87 25 is_stmt 0 view .LVU859
 2258 0254 0890     		str	r0, [sp, #32]
  88:mavlink/common/./mavlink_msg_attitude.h ****     packet.roll = roll;
 2259              		.loc 5 88 5 is_stmt 1 view .LVU860
 2260              		.loc 5 88 17 is_stmt 0 view .LVU861
 2261 0256 109B     		ldr	r3, [sp, #64]	@ float
 2262 0258 0993     		str	r3, [sp, #36]	@ float
  89:mavlink/common/./mavlink_msg_attitude.h ****     packet.pitch = pitch;
 2263              		.loc 5 89 5 is_stmt 1 view .LVU862
 2264              		.loc 5 89 18 is_stmt 0 view .LVU863
 2265 025a 0F9B     		ldr	r3, [sp, #60]	@ float
 2266 025c 0A93     		str	r3, [sp, #40]	@ float
  90:mavlink/common/./mavlink_msg_attitude.h ****     packet.yaw = yaw;
 2267              		.loc 5 90 5 is_stmt 1 view .LVU864
 2268              		.loc 5 90 16 is_stmt 0 view .LVU865
 2269 025e 0023     		movs	r3, #0
 2270 0260 0B93     		str	r3, [sp, #44]	@ float
  91:mavlink/common/./mavlink_msg_attitude.h ****     packet.rollspeed = rollspeed;
ARM GAS  /tmp/ccrjRHai.s 			page 68


 2271              		.loc 5 91 5 is_stmt 1 view .LVU866
 2272              		.loc 5 91 22 is_stmt 0 view .LVU867
 2273 0262 1C9B     		ldr	r3, [sp, #112]	@ float
 2274 0264 0C93     		str	r3, [sp, #48]	@ float
  92:mavlink/common/./mavlink_msg_attitude.h ****     packet.pitchspeed = pitchspeed;
 2275              		.loc 5 92 5 is_stmt 1 view .LVU868
 2276              		.loc 5 92 23 is_stmt 0 view .LVU869
 2277 0266 1B9B     		ldr	r3, [sp, #108]	@ float
 2278 0268 0D93     		str	r3, [sp, #52]	@ float
  93:mavlink/common/./mavlink_msg_attitude.h ****     packet.yawspeed = yawspeed;
 2279              		.loc 5 93 5 is_stmt 1 view .LVU870
 2280              		.loc 5 93 21 is_stmt 0 view .LVU871
 2281 026a 1D9B     		ldr	r3, [sp, #116]	@ float
 2282 026c 0E93     		str	r3, [sp, #56]	@ float
  94:mavlink/common/./mavlink_msg_attitude.h **** 
  95:mavlink/common/./mavlink_msg_attitude.h ****         memcpy(_MAV_PAYLOAD_NON_CONST(msg), &packet, MAVLINK_MSG_ID_ATTITUDE_LEN);
 2283              		.loc 5 95 9 is_stmt 1 view .LVU872
 2284 026e 164F     		ldr	r7, .L146+16
 2285 0270 07F10C05 		add	r5, r7, #12
 2286 0274 08AE     		add	r6, sp, #32
 2287 0276 0FCE     		ldmia	r6!, {r0, r1, r2, r3}
 2288              		.loc 5 95 9 is_stmt 0 view .LVU873
 2289 0278 0FC5     		stmia	r5!, {r0, r1, r2, r3}
 2290 027a 96E80700 		ldm	r6, {r0, r1, r2}
 2291              	.LVL241:
 2292              		.loc 5 95 9 view .LVU874
 2293 027e 85E80700 		stm	r5, {r0, r1, r2}
  96:mavlink/common/./mavlink_msg_attitude.h **** #endif
  97:mavlink/common/./mavlink_msg_attitude.h **** 
  98:mavlink/common/./mavlink_msg_attitude.h ****     msg->msgid = MAVLINK_MSG_ID_ATTITUDE;
 2294              		.loc 5 98 5 is_stmt 1 view .LVU875
 2295              		.loc 5 98 16 is_stmt 0 view .LVU876
 2296 0282 0023     		movs	r3, #0
 2297 0284 1E22     		movs	r2, #30
 2298 0286 7A72     		strb	r2, [r7, #9]
 2299 0288 BB72     		strb	r3, [r7, #10]
 2300 028a FB72     		strb	r3, [r7, #11]
  99:mavlink/common/./mavlink_msg_attitude.h ****     return mavlink_finalize_message(msg, system_id, component_id, MAVLINK_MSG_ID_ATTITUDE_MIN_LEN, 
 2301              		.loc 5 99 5 is_stmt 1 view .LVU877
 2302              	.LVL242:
 2303              	.LBB207:
 2304              	.LBI207:
 302:mavlink/minimal/../mavlink_helpers.h **** 						 uint8_t min_length, uint8_t length, uint8_t crc_extra)
 2305              		.loc 2 302 25 view .LVU878
 2306              	.LBE207:
 2307              	.LBE206:
 2308              	.LBE205:
 2309              	.LBE153:
 305:mavlink/minimal/../mavlink_helpers.h **** }
 2310              		.loc 2 305 5 view .LVU879
 2311              	.LBB264:
 2312              	.LBB246:
 2313              	.LBB242:
 2314              	.LBB238:
 2315              	.LBB208:
 2316              	.LBI208:
 292:mavlink/minimal/../mavlink_helpers.h **** 						      uint8_t chan, uint8_t min_length, uint8_t length, uint8_t crc_extra)
ARM GAS  /tmp/ccrjRHai.s 			page 69


 2317              		.loc 2 292 25 view .LVU880
 2318              	.LBB209:
 295:mavlink/minimal/../mavlink_helpers.h **** 	return mavlink_finalize_message_buffer(msg, system_id, component_id, status, min_length, length, c
 2319              		.loc 2 295 2 view .LVU881
 295:mavlink/minimal/../mavlink_helpers.h **** 	return mavlink_finalize_message_buffer(msg, system_id, component_id, status, min_length, length, c
 2320              		.loc 2 295 2 is_stmt 0 view .LVU882
 2321              	.LBE209:
 2322              	.LBE208:
 2323              	.LBE238:
 2324              	.LBE242:
 2325              	.LBE246:
 2326              	.LBE264:
  29:mavlink/minimal/../mavlink_helpers.h **** #endif
 2327              		.loc 2 29 2 is_stmt 1 view .LVU883
  31:mavlink/minimal/../mavlink_helpers.h **** }
 2328              		.loc 2 31 2 view .LVU884
 2329              	.LBB265:
 2330              	.LBB247:
 2331              	.LBB243:
 2332              	.LBB239:
 2333              	.LBB235:
 2334              	.LBB232:
 296:mavlink/minimal/../mavlink_helpers.h **** }
 2335              		.loc 2 296 2 view .LVU885
 2336              	.LBB210:
 2337              	.LBI210:
 223:mavlink/minimal/../mavlink_helpers.h **** 						      mavlink_status_t* status, uint8_t min_length, uint8_t length, uint8_t crc_extra)
 2338              		.loc 2 223 25 view .LVU886
 2339              	.LBB211:
 226:mavlink/minimal/../mavlink_helpers.h **** #ifndef MAVLINK_NO_SIGN_PACKET
 2340              		.loc 2 226 2 view .LVU887
 226:mavlink/minimal/../mavlink_helpers.h **** #ifndef MAVLINK_NO_SIGN_PACKET
 2341              		.loc 2 226 25 is_stmt 0 view .LVU888
 2342 028c 0B4B     		ldr	r3, .L146+4
 2343 028e 1D7B     		ldrb	r5, [r3, #12]	@ zero_extendqisi2
 2344              	.LVL243:
 228:mavlink/minimal/../mavlink_helpers.h **** #else
 2345              		.loc 2 228 2 is_stmt 1 view .LVU889
 228:mavlink/minimal/../mavlink_helpers.h **** #else
 2346              		.loc 2 228 49 is_stmt 0 view .LVU890
 2347 0290 15F00205 		ands	r5, r5, #2
 2348              	.LVL244:
 228:mavlink/minimal/../mavlink_helpers.h **** #else
 2349              		.loc 2 228 49 view .LVU891
 2350 0294 1CD1     		bne	.L134
 228:mavlink/minimal/../mavlink_helpers.h **** #else
 2351              		.loc 2 228 39 view .LVU892
 2352 0296 1B69     		ldr	r3, [r3, #16]
 228:mavlink/minimal/../mavlink_helpers.h **** #else
 2353              		.loc 2 228 30 view .LVU893
 2354 0298 002B     		cmp	r3, #0
 2355 029a 53D0     		beq	.L135
 228:mavlink/minimal/../mavlink_helpers.h **** #else
 2356              		.loc 2 228 68 view .LVU894
 2357 029c 1B78     		ldrb	r3, [r3]	@ zero_extendqisi2
 228:mavlink/minimal/../mavlink_helpers.h **** #else
 2358              		.loc 2 228 49 view .LVU895
ARM GAS  /tmp/ccrjRHai.s 			page 70


 2359 029e 13F0010F 		tst	r3, #1
 2360 02a2 51D1     		bne	.L136
 2361 02a4 0020     		movs	r0, #0
 2362 02a6 14E0     		b	.L109
 2363              	.LVL245:
 2364              	.L133:
 228:mavlink/minimal/../mavlink_helpers.h **** #else
 2365              		.loc 2 228 49 view .LVU896
 2366              	.LBE211:
 2367              	.LBE210:
 2368              	.LBE232:
 2369              	.LBE235:
 2370              	.LBE239:
 2371              	.LBE243:
 2372              	.LBE247:
 2373              	.LBB248:
 2374              	.LBB202:
 466:mavlink/minimal/../mavlink_helpers.h **** 		buf[0] = msg->magic;
 2375              		.loc 2 466 14 view .LVU897
 2376 02a8 0926     		movs	r6, #9
 2377 02aa BEE7     		b	.L105
 2378              	.LVL246:
 2379              	.L142:
 484:mavlink/minimal/../mavlink_helpers.h **** 	}
 2380              		.loc 2 484 3 is_stmt 1 view .LVU898
 2381 02ac 3A46     		mov	r2, r7
 2382 02ae 0749     		ldr	r1, .L146+20
 2383 02b0 0230     		adds	r0, r0, #2
 2384              	.LVL247:
 484:mavlink/minimal/../mavlink_helpers.h **** 	}
 2385              		.loc 2 484 3 is_stmt 0 view .LVU899
 2386 02b2 FFF7FEFF 		bl	memcpy
 2387              	.LVL248:
 484:mavlink/minimal/../mavlink_helpers.h **** 	}
 2388              		.loc 2 484 3 view .LVU900
 2389 02b6 BFE7     		b	.L108
 2390              	.L147:
 2391              		.align	2
 2392              	.L146:
 2393 02b8 00000000 		.word	.LANCHOR1
 2394 02bc 00000000 		.word	.LANCHOR3
 2395 02c0 00000000 		.word	.LANCHOR4
 2396 02c4 00000000 		.word	.LANCHOR5
 2397 02c8 00000000 		.word	.LANCHOR2
 2398 02cc 16010000 		.word	.LANCHOR1+278
 2399              	.LVL249:
 2400              	.L134:
 484:mavlink/minimal/../mavlink_helpers.h **** 	}
 2401              		.loc 2 484 3 view .LVU901
 2402              	.LBE202:
 2403              	.LBE248:
 2404              	.LBB249:
 2405              	.LBB244:
 2406              	.LBB240:
 2407              	.LBB236:
 2408              	.LBB233:
 2409              	.LBB230:
ARM GAS  /tmp/ccrjRHai.s 			page 71


 2410              	.LBB228:
 228:mavlink/minimal/../mavlink_helpers.h **** #else
 2411              		.loc 2 228 49 view .LVU902
 2412 02d0 0020     		movs	r0, #0
 2413              	.L109:
 2414              	.LVL250:
 232:mavlink/minimal/../mavlink_helpers.h ****         uint8_t header_len = MAVLINK_CORE_HEADER_LEN+1;
 2415              		.loc 2 232 2 is_stmt 1 view .LVU903
 233:mavlink/minimal/../mavlink_helpers.h **** 	uint8_t buf[MAVLINK_CORE_HEADER_LEN+1];
 2416              		.loc 2 233 9 view .LVU904
 234:mavlink/minimal/../mavlink_helpers.h **** 	if (mavlink1) {
 2417              		.loc 2 234 2 view .LVU905
 235:mavlink/minimal/../mavlink_helpers.h **** 		msg->magic = MAVLINK_STX_MAVLINK1;
 2418              		.loc 2 235 2 view .LVU906
 235:mavlink/minimal/../mavlink_helpers.h **** 		msg->magic = MAVLINK_STX_MAVLINK1;
 2419              		.loc 2 235 5 is_stmt 0 view .LVU907
 2420 02d2 002D     		cmp	r5, #0
 2421 02d4 3AD0     		beq	.L110
 236:mavlink/minimal/../mavlink_helpers.h **** 		header_len = MAVLINK_CORE_HEADER_MAVLINK1_LEN+1;
 2422              		.loc 2 236 3 is_stmt 1 view .LVU908
 236:mavlink/minimal/../mavlink_helpers.h **** 		header_len = MAVLINK_CORE_HEADER_MAVLINK1_LEN+1;
 2423              		.loc 2 236 14 is_stmt 0 view .LVU909
 2424 02d6 B34B     		ldr	r3, .L148
 2425 02d8 FE22     		movs	r2, #254
 2426 02da 9A70     		strb	r2, [r3, #2]
 237:mavlink/minimal/../mavlink_helpers.h **** 	} else {
 2427              		.loc 2 237 3 is_stmt 1 view .LVU910
 2428              	.LVL251:
 237:mavlink/minimal/../mavlink_helpers.h **** 	} else {
 2429              		.loc 2 237 14 is_stmt 0 view .LVU911
 2430 02dc 0623     		movs	r3, #6
 2431              	.LVL252:
 2432              	.L111:
 241:mavlink/minimal/../mavlink_helpers.h **** 	msg->sysid = system_id;
 2433              		.loc 2 241 2 is_stmt 1 view .LVU912
 241:mavlink/minimal/../mavlink_helpers.h **** 	msg->sysid = system_id;
 2434              		.loc 2 241 11 is_stmt 0 view .LVU913
 2435 02de 002D     		cmp	r5, #0
 2436 02e0 43D0     		beq	.L137
 2437 02e2 1C22     		movs	r2, #28
 2438              	.L113:
 2439 02e4 AF49     		ldr	r1, .L148
 2440 02e6 CA70     		strb	r2, [r1, #3]
 242:mavlink/minimal/../mavlink_helpers.h **** 	msg->compid = component_id;
 2441              		.loc 2 242 2 is_stmt 1 view .LVU914
 242:mavlink/minimal/../mavlink_helpers.h **** 	msg->compid = component_id;
 2442              		.loc 2 242 13 is_stmt 0 view .LVU915
 2443 02e8 0122     		movs	r2, #1
 2444 02ea CA71     		strb	r2, [r1, #7]
 243:mavlink/minimal/../mavlink_helpers.h **** 	msg->incompat_flags = 0;
 2445              		.loc 2 243 2 is_stmt 1 view .LVU916
 243:mavlink/minimal/../mavlink_helpers.h **** 	msg->incompat_flags = 0;
 2446              		.loc 2 243 14 is_stmt 0 view .LVU917
 2447 02ec 0A72     		strb	r2, [r1, #8]
 244:mavlink/minimal/../mavlink_helpers.h **** 	if (signing) {
 2448              		.loc 2 244 2 is_stmt 1 view .LVU918
 244:mavlink/minimal/../mavlink_helpers.h **** 	if (signing) {
ARM GAS  /tmp/ccrjRHai.s 			page 72


 2449              		.loc 2 244 22 is_stmt 0 view .LVU919
 2450 02ee 0022     		movs	r2, #0
 2451 02f0 0A71     		strb	r2, [r1, #4]
 245:mavlink/minimal/../mavlink_helpers.h **** 		msg->incompat_flags |= MAVLINK_IFLAG_SIGNED;
 2452              		.loc 2 245 2 is_stmt 1 view .LVU920
 245:mavlink/minimal/../mavlink_helpers.h **** 		msg->incompat_flags |= MAVLINK_IFLAG_SIGNED;
 2453              		.loc 2 245 5 is_stmt 0 view .LVU921
 2454 02f2 10B1     		cbz	r0, .L115
 246:mavlink/minimal/../mavlink_helpers.h **** 	}
 2455              		.loc 2 246 3 is_stmt 1 view .LVU922
 246:mavlink/minimal/../mavlink_helpers.h **** 	}
 2456              		.loc 2 246 23 is_stmt 0 view .LVU923
 2457 02f4 0A46     		mov	r2, r1
 2458 02f6 0121     		movs	r1, #1
 2459 02f8 1171     		strb	r1, [r2, #4]
 2460              	.L115:
 248:mavlink/minimal/../mavlink_helpers.h **** 	msg->seq = status->current_tx_seq;
 2461              		.loc 2 248 2 is_stmt 1 view .LVU924
 248:mavlink/minimal/../mavlink_helpers.h **** 	msg->seq = status->current_tx_seq;
 2462              		.loc 2 248 20 is_stmt 0 view .LVU925
 2463 02fa AA4A     		ldr	r2, .L148
 2464 02fc 0021     		movs	r1, #0
 2465 02fe 5171     		strb	r1, [r2, #5]
 249:mavlink/minimal/../mavlink_helpers.h **** 	status->current_tx_seq = status->current_tx_seq + 1;
 2466              		.loc 2 249 2 is_stmt 1 view .LVU926
 249:mavlink/minimal/../mavlink_helpers.h **** 	status->current_tx_seq = status->current_tx_seq + 1;
 2467              		.loc 2 249 19 is_stmt 0 view .LVU927
 2468 0300 A94E     		ldr	r6, .L148+4
 2469              	.LVL253:
 249:mavlink/minimal/../mavlink_helpers.h **** 	status->current_tx_seq = status->current_tx_seq + 1;
 2470              		.loc 2 249 19 view .LVU928
 2471 0302 B179     		ldrb	r1, [r6, #6]	@ zero_extendqisi2
 249:mavlink/minimal/../mavlink_helpers.h **** 	status->current_tx_seq = status->current_tx_seq + 1;
 2472              		.loc 2 249 11 view .LVU929
 2473 0304 9171     		strb	r1, [r2, #6]
 250:mavlink/minimal/../mavlink_helpers.h **** 
 2474              		.loc 2 250 2 is_stmt 1 view .LVU930
 250:mavlink/minimal/../mavlink_helpers.h **** 
 2475              		.loc 2 250 50 is_stmt 0 view .LVU931
 2476 0306 0131     		adds	r1, r1, #1
 250:mavlink/minimal/../mavlink_helpers.h **** 
 2477              		.loc 2 250 25 view .LVU932
 2478 0308 B171     		strb	r1, [r6, #6]
 253:mavlink/minimal/../mavlink_helpers.h **** 	buf[1] = msg->len;
 2479              		.loc 2 253 2 is_stmt 1 view .LVU933
 253:mavlink/minimal/../mavlink_helpers.h **** 	buf[1] = msg->len;
 2480              		.loc 2 253 14 is_stmt 0 view .LVU934
 2481 030a 9178     		ldrb	r1, [r2, #2]	@ zero_extendqisi2
 253:mavlink/minimal/../mavlink_helpers.h **** 	buf[1] = msg->len;
 2482              		.loc 2 253 9 view .LVU935
 2483 030c 8DF81410 		strb	r1, [sp, #20]
 254:mavlink/minimal/../mavlink_helpers.h **** 	if (mavlink1) {
 2484              		.loc 2 254 2 is_stmt 1 view .LVU936
 254:mavlink/minimal/../mavlink_helpers.h **** 	if (mavlink1) {
 2485              		.loc 2 254 14 is_stmt 0 view .LVU937
 2486 0310 D278     		ldrb	r2, [r2, #3]	@ zero_extendqisi2
 254:mavlink/minimal/../mavlink_helpers.h **** 	if (mavlink1) {
ARM GAS  /tmp/ccrjRHai.s 			page 73


 2487              		.loc 2 254 9 view .LVU938
 2488 0312 8DF81520 		strb	r2, [sp, #21]
 255:mavlink/minimal/../mavlink_helpers.h **** 		buf[2] = msg->seq;
 2489              		.loc 2 255 2 is_stmt 1 view .LVU939
 255:mavlink/minimal/../mavlink_helpers.h **** 		buf[2] = msg->seq;
 2490              		.loc 2 255 5 is_stmt 0 view .LVU940
 2491 0316 55B3     		cbz	r5, .L116
 256:mavlink/minimal/../mavlink_helpers.h **** 		buf[3] = msg->sysid;
 2492              		.loc 2 256 3 is_stmt 1 view .LVU941
 256:mavlink/minimal/../mavlink_helpers.h **** 		buf[3] = msg->sysid;
 2493              		.loc 2 256 15 is_stmt 0 view .LVU942
 2494 0318 A24A     		ldr	r2, .L148
 2495 031a 9179     		ldrb	r1, [r2, #6]	@ zero_extendqisi2
 256:mavlink/minimal/../mavlink_helpers.h **** 		buf[3] = msg->sysid;
 2496              		.loc 2 256 10 view .LVU943
 2497 031c 8DF81610 		strb	r1, [sp, #22]
 257:mavlink/minimal/../mavlink_helpers.h **** 		buf[4] = msg->compid;
 2498              		.loc 2 257 3 is_stmt 1 view .LVU944
 257:mavlink/minimal/../mavlink_helpers.h **** 		buf[4] = msg->compid;
 2499              		.loc 2 257 15 is_stmt 0 view .LVU945
 2500 0320 D179     		ldrb	r1, [r2, #7]	@ zero_extendqisi2
 257:mavlink/minimal/../mavlink_helpers.h **** 		buf[4] = msg->compid;
 2501              		.loc 2 257 10 view .LVU946
 2502 0322 8DF81710 		strb	r1, [sp, #23]
 258:mavlink/minimal/../mavlink_helpers.h **** 		buf[5] = msg->msgid & 0xFF;
 2503              		.loc 2 258 3 is_stmt 1 view .LVU947
 258:mavlink/minimal/../mavlink_helpers.h **** 		buf[5] = msg->msgid & 0xFF;
 2504              		.loc 2 258 15 is_stmt 0 view .LVU948
 2505 0326 117A     		ldrb	r1, [r2, #8]	@ zero_extendqisi2
 258:mavlink/minimal/../mavlink_helpers.h **** 		buf[5] = msg->msgid & 0xFF;
 2506              		.loc 2 258 10 view .LVU949
 2507 0328 8DF81810 		strb	r1, [sp, #24]
 259:mavlink/minimal/../mavlink_helpers.h **** 	} else {
 2508              		.loc 2 259 3 is_stmt 1 view .LVU950
 259:mavlink/minimal/../mavlink_helpers.h **** 	} else {
 2509              		.loc 2 259 15 is_stmt 0 view .LVU951
 2510 032c 9268     		ldr	r2, [r2, #8]
 2511 032e C2F31722 		ubfx	r2, r2, #8, #24
 259:mavlink/minimal/../mavlink_helpers.h **** 	} else {
 2512              		.loc 2 259 10 view .LVU952
 2513 0332 8DF81920 		strb	r2, [sp, #25]
 2514              	.L117:
 271:mavlink/minimal/../mavlink_helpers.h **** 	crc_accumulate_buffer(&checksum, _MAV_PAYLOAD(msg), msg->len);
 2515              		.loc 2 271 2 is_stmt 1 view .LVU953
 271:mavlink/minimal/../mavlink_helpers.h **** 	crc_accumulate_buffer(&checksum, _MAV_PAYLOAD(msg), msg->len);
 2516              		.loc 2 271 22 is_stmt 0 view .LVU954
 2517 0336 591E     		subs	r1, r3, #1
 2518 0338 89B2     		uxth	r1, r1
 2519              	.LVL254:
 2520              	.LBB212:
 2521              	.LBI212:
  65:mavlink/minimal/../checksum.h **** {
 2522              		.loc 4 65 24 is_stmt 1 view .LVU955
 2523              	.LBB213:
  67:mavlink/minimal/../checksum.h ****         crc_init(&crcTmp);
 2524              		.loc 4 67 9 view .LVU956
  68:mavlink/minimal/../checksum.h **** 	while (length--) {
ARM GAS  /tmp/ccrjRHai.s 			page 74


 2525              		.loc 4 68 9 view .LVU957
 2526              	.LBB214:
 2527              	.LBI214:
  52:mavlink/minimal/../checksum.h **** {
 2528              		.loc 4 52 20 view .LVU958
 2529              	.LBB215:
  54:mavlink/minimal/../checksum.h **** }
 2530              		.loc 4 54 9 view .LVU959
  54:mavlink/minimal/../checksum.h **** }
 2531              		.loc 4 54 19 is_stmt 0 view .LVU960
 2532 033a 4FF6FF72 		movw	r2, #65535
  55:mavlink/minimal/../checksum.h **** 
 2533              		.loc 4 55 1 view .LVU961
 2534 033e 0DF1150C 		add	ip, sp, #21
 2535              	.LVL255:
  55:mavlink/minimal/../checksum.h **** 
 2536              		.loc 4 55 1 view .LVU962
 2537 0342 41E0     		b	.L118
 2538              	.LVL256:
 2539              	.L135:
  55:mavlink/minimal/../checksum.h **** 
 2540              		.loc 4 55 1 view .LVU963
 2541              	.LBE215:
 2542              	.LBE214:
 2543              	.LBE213:
 2544              	.LBE212:
 228:mavlink/minimal/../mavlink_helpers.h **** #else
 2545              		.loc 2 228 49 view .LVU964
 2546 0344 0020     		movs	r0, #0
 2547 0346 C4E7     		b	.L109
 2548              	.L136:
 2549 0348 0120     		movs	r0, #1
 2550 034a C2E7     		b	.L109
 2551              	.LVL257:
 2552              	.L110:
 239:mavlink/minimal/../mavlink_helpers.h **** 	}
 2553              		.loc 2 239 3 is_stmt 1 view .LVU965
 239:mavlink/minimal/../mavlink_helpers.h **** 	}
 2554              		.loc 2 239 14 is_stmt 0 view .LVU966
 2555 034c 954B     		ldr	r3, .L148
 2556 034e FD22     		movs	r2, #253
 2557 0350 9A70     		strb	r2, [r3, #2]
 233:mavlink/minimal/../mavlink_helpers.h **** 	uint8_t buf[MAVLINK_CORE_HEADER_LEN+1];
 2558              		.loc 2 233 17 view .LVU967
 2559 0352 0A23     		movs	r3, #10
 2560 0354 C3E7     		b	.L111
 2561              	.LVL258:
 2562              	.L114:
 2563              	.LBB219:
 2564              	.LBB220:
 114:mavlink/minimal/../mavlink_helpers.h **** 	}
 2565              		.loc 2 114 3 is_stmt 1 view .LVU968
 114:mavlink/minimal/../mavlink_helpers.h **** 	}
 2566              		.loc 2 114 9 is_stmt 0 view .LVU969
 2567 0356 013A     		subs	r2, r2, #1
 2568              	.LVL259:
 114:mavlink/minimal/../mavlink_helpers.h **** 	}
ARM GAS  /tmp/ccrjRHai.s 			page 75


 2569              		.loc 2 114 9 view .LVU970
 2570 0358 D2B2     		uxtb	r2, r2
 2571              	.LVL260:
 2572              	.L112:
 113:mavlink/minimal/../mavlink_helpers.h **** 		length--;
 2573              		.loc 2 113 8 is_stmt 1 view .LVU971
 2574 035a 012A     		cmp	r2, #1
 2575 035c C2D9     		bls	.L113
 113:mavlink/minimal/../mavlink_helpers.h **** 		length--;
 2576              		.loc 2 113 30 is_stmt 0 view .LVU972
 2577 035e 9149     		ldr	r1, .L148
 2578 0360 1144     		add	r1, r1, r2
 2579 0362 C97A     		ldrb	r1, [r1, #11]	@ zero_extendqisi2
 113:mavlink/minimal/../mavlink_helpers.h **** 		length--;
 2580              		.loc 2 113 20 view .LVU973
 2581 0364 0029     		cmp	r1, #0
 2582 0366 F6D0     		beq	.L114
 2583 0368 BCE7     		b	.L113
 2584              	.LVL261:
 2585              	.L137:
 113:mavlink/minimal/../mavlink_helpers.h **** 		length--;
 2586              		.loc 2 113 20 view .LVU974
 2587              	.LBE220:
 2588              	.LBE219:
 2589 036a 1C22     		movs	r2, #28
 2590 036c F5E7     		b	.L112
 2591              	.L116:
 261:mavlink/minimal/../mavlink_helpers.h **** 		buf[3] = msg->compat_flags;
 2592              		.loc 2 261 3 is_stmt 1 view .LVU975
 261:mavlink/minimal/../mavlink_helpers.h **** 		buf[3] = msg->compat_flags;
 2593              		.loc 2 261 15 is_stmt 0 view .LVU976
 2594 036e 8D4A     		ldr	r2, .L148
 2595 0370 1179     		ldrb	r1, [r2, #4]	@ zero_extendqisi2
 261:mavlink/minimal/../mavlink_helpers.h **** 		buf[3] = msg->compat_flags;
 2596              		.loc 2 261 10 view .LVU977
 2597 0372 8DF81610 		strb	r1, [sp, #22]
 262:mavlink/minimal/../mavlink_helpers.h **** 		buf[4] = msg->seq;
 2598              		.loc 2 262 3 is_stmt 1 view .LVU978
 262:mavlink/minimal/../mavlink_helpers.h **** 		buf[4] = msg->seq;
 2599              		.loc 2 262 15 is_stmt 0 view .LVU979
 2600 0376 5179     		ldrb	r1, [r2, #5]	@ zero_extendqisi2
 262:mavlink/minimal/../mavlink_helpers.h **** 		buf[4] = msg->seq;
 2601              		.loc 2 262 10 view .LVU980
 2602 0378 8DF81710 		strb	r1, [sp, #23]
 263:mavlink/minimal/../mavlink_helpers.h **** 		buf[5] = msg->sysid;
 2603              		.loc 2 263 3 is_stmt 1 view .LVU981
 263:mavlink/minimal/../mavlink_helpers.h **** 		buf[5] = msg->sysid;
 2604              		.loc 2 263 15 is_stmt 0 view .LVU982
 2605 037c 9179     		ldrb	r1, [r2, #6]	@ zero_extendqisi2
 263:mavlink/minimal/../mavlink_helpers.h **** 		buf[5] = msg->sysid;
 2606              		.loc 2 263 10 view .LVU983
 2607 037e 8DF81810 		strb	r1, [sp, #24]
 264:mavlink/minimal/../mavlink_helpers.h **** 		buf[6] = msg->compid;
 2608              		.loc 2 264 3 is_stmt 1 view .LVU984
 264:mavlink/minimal/../mavlink_helpers.h **** 		buf[6] = msg->compid;
 2609              		.loc 2 264 15 is_stmt 0 view .LVU985
 2610 0382 D179     		ldrb	r1, [r2, #7]	@ zero_extendqisi2
ARM GAS  /tmp/ccrjRHai.s 			page 76


 264:mavlink/minimal/../mavlink_helpers.h **** 		buf[6] = msg->compid;
 2611              		.loc 2 264 10 view .LVU986
 2612 0384 8DF81910 		strb	r1, [sp, #25]
 265:mavlink/minimal/../mavlink_helpers.h **** 		buf[7] = msg->msgid & 0xFF;
 2613              		.loc 2 265 3 is_stmt 1 view .LVU987
 265:mavlink/minimal/../mavlink_helpers.h **** 		buf[7] = msg->msgid & 0xFF;
 2614              		.loc 2 265 15 is_stmt 0 view .LVU988
 2615 0388 117A     		ldrb	r1, [r2, #8]	@ zero_extendqisi2
 265:mavlink/minimal/../mavlink_helpers.h **** 		buf[7] = msg->msgid & 0xFF;
 2616              		.loc 2 265 10 view .LVU989
 2617 038a 8DF81A10 		strb	r1, [sp, #26]
 266:mavlink/minimal/../mavlink_helpers.h **** 		buf[8] = (msg->msgid >> 8) & 0xFF;
 2618              		.loc 2 266 3 is_stmt 1 view .LVU990
 266:mavlink/minimal/../mavlink_helpers.h **** 		buf[8] = (msg->msgid >> 8) & 0xFF;
 2619              		.loc 2 266 15 is_stmt 0 view .LVU991
 2620 038e 9268     		ldr	r2, [r2, #8]
 2621 0390 C2F31722 		ubfx	r2, r2, #8, #24
 266:mavlink/minimal/../mavlink_helpers.h **** 		buf[8] = (msg->msgid >> 8) & 0xFF;
 2622              		.loc 2 266 10 view .LVU992
 2623 0394 8DF81B20 		strb	r2, [sp, #27]
 267:mavlink/minimal/../mavlink_helpers.h **** 		buf[9] = (msg->msgid >> 16) & 0xFF;
 2624              		.loc 2 267 3 is_stmt 1 view .LVU993
 267:mavlink/minimal/../mavlink_helpers.h **** 		buf[9] = (msg->msgid >> 16) & 0xFF;
 2625              		.loc 2 267 24 is_stmt 0 view .LVU994
 2626 0398 1112     		asrs	r1, r2, #8
 267:mavlink/minimal/../mavlink_helpers.h **** 		buf[9] = (msg->msgid >> 16) & 0xFF;
 2627              		.loc 2 267 10 view .LVU995
 2628 039a 8DF81C10 		strb	r1, [sp, #28]
 268:mavlink/minimal/../mavlink_helpers.h **** 	}
 2629              		.loc 2 268 3 is_stmt 1 view .LVU996
 268:mavlink/minimal/../mavlink_helpers.h **** 	}
 2630              		.loc 2 268 24 is_stmt 0 view .LVU997
 2631 039e 1214     		asrs	r2, r2, #16
 268:mavlink/minimal/../mavlink_helpers.h **** 	}
 2632              		.loc 2 268 10 view .LVU998
 2633 03a0 8DF81D20 		strb	r2, [sp, #29]
 2634 03a4 C7E7     		b	.L117
 2635              	.LVL262:
 2636              	.L119:
 2637              	.LBB221:
 2638              	.LBB218:
  70:mavlink/minimal/../checksum.h ****         }
 2639              		.loc 4 70 17 is_stmt 1 view .LVU999
  70:mavlink/minimal/../checksum.h ****         }
 2640              		.loc 4 70 17 is_stmt 0 view .LVU1000
 2641 03a6 1CF8011B 		ldrb	r1, [ip], #1	@ zero_extendqisi2
 2642              	.LVL263:
 2643              	.LBB216:
 2644              	.LBI216:
  35:mavlink/minimal/../checksum.h **** {
 2645              		.loc 4 35 20 is_stmt 1 view .LVU1001
 2646              	.LBB217:
  38:mavlink/minimal/../checksum.h **** 
 2647              		.loc 4 38 9 view .LVU1002
  40:mavlink/minimal/../checksum.h ****         tmp ^= (tmp<<4);
 2648              		.loc 4 40 9 view .LVU1003
  40:mavlink/minimal/../checksum.h ****         tmp ^= (tmp<<4);
ARM GAS  /tmp/ccrjRHai.s 			page 77


 2649              		.loc 4 40 22 is_stmt 0 view .LVU1004
 2650 03aa D5B2     		uxtb	r5, r2
  40:mavlink/minimal/../checksum.h ****         tmp ^= (tmp<<4);
 2651              		.loc 4 40 13 view .LVU1005
 2652 03ac 6940     		eors	r1, r1, r5
 2653              	.LVL264:
  41:mavlink/minimal/../checksum.h ****         *crcAccum = (*crcAccum>>8) ^ (tmp<<8) ^ (tmp <<3) ^ (tmp>>4);
 2654              		.loc 4 41 9 is_stmt 1 view .LVU1006
  41:mavlink/minimal/../checksum.h ****         *crcAccum = (*crcAccum>>8) ^ (tmp<<8) ^ (tmp <<3) ^ (tmp>>4);
 2655              		.loc 4 41 13 is_stmt 0 view .LVU1007
 2656 03ae 81EA0111 		eor	r1, r1, r1, lsl #4
 2657              	.LVL265:
  41:mavlink/minimal/../checksum.h ****         *crcAccum = (*crcAccum>>8) ^ (tmp<<8) ^ (tmp <<3) ^ (tmp>>4);
 2658              		.loc 4 41 13 view .LVU1008
 2659 03b2 C9B2     		uxtb	r1, r1
 2660              	.LVL266:
  42:mavlink/minimal/../checksum.h **** }
 2661              		.loc 4 42 9 is_stmt 1 view .LVU1009
  42:mavlink/minimal/../checksum.h **** }
 2662              		.loc 4 42 36 is_stmt 0 view .LVU1010
 2663 03b4 120A     		lsrs	r2, r2, #8
 2664              	.LVL267:
  42:mavlink/minimal/../checksum.h **** }
 2665              		.loc 4 42 36 view .LVU1011
 2666 03b6 42EA0122 		orr	r2, r2, r1, lsl #8
 2667 03ba 12B2     		sxth	r2, r2
  42:mavlink/minimal/../checksum.h **** }
 2668              		.loc 4 42 47 view .LVU1012
 2669 03bc 82EAC102 		eor	r2, r2, r1, lsl #3
  42:mavlink/minimal/../checksum.h **** }
 2670              		.loc 4 42 59 view .LVU1013
 2671 03c0 82EA1112 		eor	r2, r2, r1, lsr #4
 2672 03c4 92B2     		uxth	r2, r2
 2673              	.LVL268:
  42:mavlink/minimal/../checksum.h **** }
 2674              		.loc 4 42 59 view .LVU1014
 2675              	.LBE217:
 2676              	.LBE216:
  69:mavlink/minimal/../checksum.h ****                 crc_accumulate(*pBuffer++, &crcTmp);
 2677              		.loc 4 69 15 view .LVU1015
 2678 03c6 7146     		mov	r1, lr
 2679              	.LVL269:
 2680              	.L118:
  69:mavlink/minimal/../checksum.h ****                 crc_accumulate(*pBuffer++, &crcTmp);
 2681              		.loc 4 69 8 is_stmt 1 view .LVU1016
  69:mavlink/minimal/../checksum.h ****                 crc_accumulate(*pBuffer++, &crcTmp);
 2682              		.loc 4 69 15 is_stmt 0 view .LVU1017
 2683 03c8 01F1FF3E 		add	lr, r1, #-1
 2684 03cc 1FFA8EFE 		uxth	lr, lr
 2685              	.LVL270:
  69:mavlink/minimal/../checksum.h ****                 crc_accumulate(*pBuffer++, &crcTmp);
 2686              		.loc 4 69 8 view .LVU1018
 2687 03d0 0029     		cmp	r1, #0
 2688 03d2 E8D1     		bne	.L119
  72:mavlink/minimal/../checksum.h **** }
 2689              		.loc 4 72 9 is_stmt 1 view .LVU1019
 2690              	.LVL271:
ARM GAS  /tmp/ccrjRHai.s 			page 78


  72:mavlink/minimal/../checksum.h **** }
 2691              		.loc 4 72 9 is_stmt 0 view .LVU1020
 2692              	.LBE218:
 2693              	.LBE221:
 272:mavlink/minimal/../mavlink_helpers.h **** 	crc_accumulate(crc_extra, &checksum);
 2694              		.loc 2 272 2 is_stmt 1 view .LVU1021
 272:mavlink/minimal/../mavlink_helpers.h **** 	crc_accumulate(crc_extra, &checksum);
 2695              		.loc 2 272 57 is_stmt 0 view .LVU1022
 2696 03d4 7349     		ldr	r1, .L148
 272:mavlink/minimal/../mavlink_helpers.h **** 	crc_accumulate(crc_extra, &checksum);
 2697              		.loc 2 272 2 view .LVU1023
 2698 03d6 CD78     		ldrb	r5, [r1, #3]	@ zero_extendqisi2
 2699              	.LVL272:
 2700              	.LBB222:
 2701              	.LBI222:
  85:mavlink/minimal/../checksum.h **** {
 2702              		.loc 4 85 20 is_stmt 1 view .LVU1024
 2703              	.LBB223:
  87:mavlink/minimal/../checksum.h **** 	while (length--) {
 2704              		.loc 4 87 17 is_stmt 0 view .LVU1025
 2705 03d8 01F10C0C 		add	ip, r1, #12
 2706 03dc 10E0     		b	.L120
 2707              	.LVL273:
 2708              	.L121:
 2709              		.loc 4 89 17 is_stmt 1 view .LVU1026
 2710              		.loc 4 89 17 is_stmt 0 view .LVU1027
 2711 03de 1CF8011B 		ldrb	r1, [ip], #1	@ zero_extendqisi2
 2712              	.LVL274:
 2713              	.LBB224:
 2714              	.LBI224:
  35:mavlink/minimal/../checksum.h **** {
 2715              		.loc 4 35 20 is_stmt 1 view .LVU1028
 2716              	.LBB225:
  38:mavlink/minimal/../checksum.h **** 
 2717              		.loc 4 38 9 view .LVU1029
  40:mavlink/minimal/../checksum.h ****         tmp ^= (tmp<<4);
 2718              		.loc 4 40 9 view .LVU1030
  40:mavlink/minimal/../checksum.h ****         tmp ^= (tmp<<4);
 2719              		.loc 4 40 22 is_stmt 0 view .LVU1031
 2720 03e2 D5B2     		uxtb	r5, r2
  40:mavlink/minimal/../checksum.h ****         tmp ^= (tmp<<4);
 2721              		.loc 4 40 13 view .LVU1032
 2722 03e4 6940     		eors	r1, r1, r5
 2723              	.LVL275:
  41:mavlink/minimal/../checksum.h ****         *crcAccum = (*crcAccum>>8) ^ (tmp<<8) ^ (tmp <<3) ^ (tmp>>4);
 2724              		.loc 4 41 9 is_stmt 1 view .LVU1033
  41:mavlink/minimal/../checksum.h ****         *crcAccum = (*crcAccum>>8) ^ (tmp<<8) ^ (tmp <<3) ^ (tmp>>4);
 2725              		.loc 4 41 13 is_stmt 0 view .LVU1034
 2726 03e6 81EA0111 		eor	r1, r1, r1, lsl #4
 2727              	.LVL276:
  41:mavlink/minimal/../checksum.h ****         *crcAccum = (*crcAccum>>8) ^ (tmp<<8) ^ (tmp <<3) ^ (tmp>>4);
 2728              		.loc 4 41 13 view .LVU1035
 2729 03ea C9B2     		uxtb	r1, r1
 2730              	.LVL277:
  42:mavlink/minimal/../checksum.h **** }
 2731              		.loc 4 42 9 is_stmt 1 view .LVU1036
  42:mavlink/minimal/../checksum.h **** }
ARM GAS  /tmp/ccrjRHai.s 			page 79


 2732              		.loc 4 42 36 is_stmt 0 view .LVU1037
 2733 03ec 120A     		lsrs	r2, r2, #8
 2734              	.LVL278:
  42:mavlink/minimal/../checksum.h **** }
 2735              		.loc 4 42 36 view .LVU1038
 2736 03ee 82EA0122 		eor	r2, r2, r1, lsl #8
 2737 03f2 12B2     		sxth	r2, r2
  42:mavlink/minimal/../checksum.h **** }
 2738              		.loc 4 42 47 view .LVU1039
 2739 03f4 82EAC102 		eor	r2, r2, r1, lsl #3
  42:mavlink/minimal/../checksum.h **** }
 2740              		.loc 4 42 59 view .LVU1040
 2741 03f8 82EA1112 		eor	r2, r2, r1, lsr #4
 2742 03fc 92B2     		uxth	r2, r2
 2743              	.LVL279:
  42:mavlink/minimal/../checksum.h **** }
 2744              		.loc 4 42 59 view .LVU1041
 2745              	.LBE225:
 2746              	.LBE224:
  88:mavlink/minimal/../checksum.h ****                 crc_accumulate(*p++, crcAccum);
 2747              		.loc 4 88 15 view .LVU1042
 2748 03fe 7546     		mov	r5, lr
 2749              	.LVL280:
 2750              	.L120:
  88:mavlink/minimal/../checksum.h ****                 crc_accumulate(*p++, crcAccum);
 2751              		.loc 4 88 8 is_stmt 1 view .LVU1043
  88:mavlink/minimal/../checksum.h ****                 crc_accumulate(*p++, crcAccum);
 2752              		.loc 4 88 15 is_stmt 0 view .LVU1044
 2753 0400 05F1FF3E 		add	lr, r5, #-1
 2754 0404 1FFA8EFE 		uxth	lr, lr
 2755              	.LVL281:
  88:mavlink/minimal/../checksum.h ****                 crc_accumulate(*p++, crcAccum);
 2756              		.loc 4 88 8 view .LVU1045
 2757 0408 002D     		cmp	r5, #0
 2758 040a E8D1     		bne	.L121
 2759              	.LVL282:
  88:mavlink/minimal/../checksum.h ****                 crc_accumulate(*p++, crcAccum);
 2760              		.loc 4 88 8 view .LVU1046
 2761              	.LBE223:
 2762              	.LBE222:
 273:mavlink/minimal/../mavlink_helpers.h **** 	mavlink_ck_a(msg) = (uint8_t)(checksum & 0xFF);
 2763              		.loc 2 273 2 is_stmt 1 view .LVU1047
 2764              	.LBB226:
 2765              	.LBI226:
  35:mavlink/minimal/../checksum.h **** {
 2766              		.loc 4 35 20 view .LVU1048
 2767              	.LBB227:
  38:mavlink/minimal/../checksum.h **** 
 2768              		.loc 4 38 9 view .LVU1049
  40:mavlink/minimal/../checksum.h ****         tmp ^= (tmp<<4);
 2769              		.loc 4 40 9 view .LVU1050
  40:mavlink/minimal/../checksum.h ****         tmp ^= (tmp<<4);
 2770              		.loc 4 40 22 is_stmt 0 view .LVU1051
 2771 040c D1B2     		uxtb	r1, r2
  40:mavlink/minimal/../checksum.h ****         tmp ^= (tmp<<4);
 2772              		.loc 4 40 13 view .LVU1052
 2773 040e 81F02701 		eor	r1, r1, #39
ARM GAS  /tmp/ccrjRHai.s 			page 80


 2774              	.LVL283:
  41:mavlink/minimal/../checksum.h ****         *crcAccum = (*crcAccum>>8) ^ (tmp<<8) ^ (tmp <<3) ^ (tmp>>4);
 2775              		.loc 4 41 9 is_stmt 1 view .LVU1053
  41:mavlink/minimal/../checksum.h ****         *crcAccum = (*crcAccum>>8) ^ (tmp<<8) ^ (tmp <<3) ^ (tmp>>4);
 2776              		.loc 4 41 13 is_stmt 0 view .LVU1054
 2777 0412 81EA0111 		eor	r1, r1, r1, lsl #4
 2778              	.LVL284:
  41:mavlink/minimal/../checksum.h ****         *crcAccum = (*crcAccum>>8) ^ (tmp<<8) ^ (tmp <<3) ^ (tmp>>4);
 2779              		.loc 4 41 13 view .LVU1055
 2780 0416 C9B2     		uxtb	r1, r1
 2781              	.LVL285:
  42:mavlink/minimal/../checksum.h **** }
 2782              		.loc 4 42 9 is_stmt 1 view .LVU1056
  42:mavlink/minimal/../checksum.h **** }
 2783              		.loc 4 42 36 is_stmt 0 view .LVU1057
 2784 0418 120A     		lsrs	r2, r2, #8
 2785              	.LVL286:
  42:mavlink/minimal/../checksum.h **** }
 2786              		.loc 4 42 36 view .LVU1058
 2787 041a 82EA0122 		eor	r2, r2, r1, lsl #8
 2788 041e 12B2     		sxth	r2, r2
  42:mavlink/minimal/../checksum.h **** }
 2789              		.loc 4 42 47 view .LVU1059
 2790 0420 82EAC102 		eor	r2, r2, r1, lsl #3
  42:mavlink/minimal/../checksum.h **** }
 2791              		.loc 4 42 59 view .LVU1060
 2792 0424 82EA1112 		eor	r2, r2, r1, lsr #4
 2793              	.LVL287:
  42:mavlink/minimal/../checksum.h **** }
 2794              		.loc 4 42 59 view .LVU1061
 2795              	.LBE227:
 2796              	.LBE226:
 274:mavlink/minimal/../mavlink_helpers.h **** 	mavlink_ck_b(msg) = (uint8_t)(checksum >> 8);
 2797              		.loc 2 274 2 is_stmt 1 view .LVU1062
 2798 0428 5E49     		ldr	r1, .L148
 2799 042a CD78     		ldrb	r5, [r1, #3]	@ zero_extendqisi2
 2800 042c 01F10C06 		add	r6, r1, #12
 274:mavlink/minimal/../mavlink_helpers.h **** 	mavlink_ck_b(msg) = (uint8_t)(checksum >> 8);
 2801              		.loc 2 274 20 is_stmt 0 view .LVU1063
 2802 0430 7255     		strb	r2, [r6, r5]
 275:mavlink/minimal/../mavlink_helpers.h **** 
 2803              		.loc 2 275 2 is_stmt 1 view .LVU1064
 2804 0432 CD78     		ldrb	r5, [r1, #3]	@ zero_extendqisi2
 2805 0434 0135     		adds	r5, r5, #1
 275:mavlink/minimal/../mavlink_helpers.h **** 
 2806              		.loc 2 275 22 is_stmt 0 view .LVU1065
 2807 0436 C2F30727 		ubfx	r7, r2, #8, #8
 275:mavlink/minimal/../mavlink_helpers.h **** 
 2808              		.loc 2 275 20 view .LVU1066
 2809 043a 7755     		strb	r7, [r6, r5]
 277:mavlink/minimal/../mavlink_helpers.h **** 
 2810              		.loc 2 277 2 is_stmt 1 view .LVU1067
 277:mavlink/minimal/../mavlink_helpers.h **** 
 2811              		.loc 2 277 16 is_stmt 0 view .LVU1068
 2812 043c 0A80     		strh	r2, [r1]	@ movhi
 280:mavlink/minimal/../mavlink_helpers.h **** 		mavlink_sign_packet(status->signing,
 2813              		.loc 2 280 2 is_stmt 1 view .LVU1069
ARM GAS  /tmp/ccrjRHai.s 			page 81


 280:mavlink/minimal/../mavlink_helpers.h **** 		mavlink_sign_packet(status->signing,
 2814              		.loc 2 280 5 is_stmt 0 view .LVU1070
 2815 043e 68B9     		cbnz	r0, .L143
 2816              	.LVL288:
 2817              	.L122:
 289:mavlink/minimal/../mavlink_helpers.h **** }
 2818              		.loc 2 289 2 is_stmt 1 view .LVU1071
 289:mavlink/minimal/../mavlink_helpers.h **** }
 2819              		.loc 2 289 2 is_stmt 0 view .LVU1072
 2820              	.LBE228:
 2821              	.LBE230:
 2822              	.LBE233:
 2823              	.LBE236:
 2824              	.LBE240:
 2825              	.LBE244:
 2826              	.LBE249:
 195:Core/Src/freertos.c ****     len = mavlink_msg_to_send_buffer(buf, &attitude_msg);
 2827              		.loc 3 195 5 is_stmt 1 view .LVU1073
 2828              	.LBB250:
 2829              	.LBI250:
 447:mavlink/minimal/../mavlink_helpers.h **** {
 2830              		.loc 2 447 25 view .LVU1074
 2831              	.LBB251:
 449:mavlink/minimal/../mavlink_helpers.h **** 	uint8_t *ck;
 2832              		.loc 2 449 2 view .LVU1075
 450:mavlink/minimal/../mavlink_helpers.h ****         uint8_t length = msg->len;
 2833              		.loc 2 450 2 view .LVU1076
 451:mavlink/minimal/../mavlink_helpers.h ****         
 2834              		.loc 2 451 9 view .LVU1077
 451:mavlink/minimal/../mavlink_helpers.h ****         
 2835              		.loc 2 451 17 is_stmt 0 view .LVU1078
 2836 0440 584B     		ldr	r3, .L148
 2837 0442 DD78     		ldrb	r5, [r3, #3]	@ zero_extendqisi2
 2838              	.LVL289:
 453:mavlink/minimal/../mavlink_helpers.h **** 		signature_len = 0;
 2839              		.loc 2 453 2 is_stmt 1 view .LVU1079
 453:mavlink/minimal/../mavlink_helpers.h **** 		signature_len = 0;
 2840              		.loc 2 453 9 is_stmt 0 view .LVU1080
 2841 0444 9A78     		ldrb	r2, [r3, #2]	@ zero_extendqisi2
 453:mavlink/minimal/../mavlink_helpers.h **** 		signature_len = 0;
 2842              		.loc 2 453 5 view .LVU1081
 2843 0446 FE2A     		cmp	r2, #254
 2844 0448 15D0     		beq	.L144
 2845              	.LVL290:
 2846              	.L123:
 2847              	.LBB252:
 2848              	.LBB253:
 113:mavlink/minimal/../mavlink_helpers.h **** 		length--;
 2849              		.loc 2 113 8 is_stmt 1 view .LVU1082
 2850 044a 012D     		cmp	r5, #1
 2851 044c 2ED9     		bls	.L125
 113:mavlink/minimal/../mavlink_helpers.h **** 		length--;
 2852              		.loc 2 113 30 is_stmt 0 view .LVU1083
 2853 044e 554B     		ldr	r3, .L148
 2854 0450 2B44     		add	r3, r3, r5
 2855 0452 DB7A     		ldrb	r3, [r3, #11]	@ zero_extendqisi2
 113:mavlink/minimal/../mavlink_helpers.h **** 		length--;
ARM GAS  /tmp/ccrjRHai.s 			page 82


 2856              		.loc 2 113 20 view .LVU1084
 2857 0454 53BB     		cbnz	r3, .L125
 114:mavlink/minimal/../mavlink_helpers.h **** 	}
 2858              		.loc 2 114 3 is_stmt 1 view .LVU1085
 114:mavlink/minimal/../mavlink_helpers.h **** 	}
 2859              		.loc 2 114 9 is_stmt 0 view .LVU1086
 2860 0456 013D     		subs	r5, r5, #1
 2861              	.LVL291:
 114:mavlink/minimal/../mavlink_helpers.h **** 	}
 2862              		.loc 2 114 9 view .LVU1087
 2863 0458 EDB2     		uxtb	r5, r5
 2864              	.LVL292:
 114:mavlink/minimal/../mavlink_helpers.h **** 	}
 2865              		.loc 2 114 9 view .LVU1088
 2866 045a F6E7     		b	.L123
 2867              	.LVL293:
 2868              	.L143:
 114:mavlink/minimal/../mavlink_helpers.h **** 	}
 2869              		.loc 2 114 9 view .LVU1089
 2870              	.LBE253:
 2871              	.LBE252:
 2872              	.LBE251:
 2873              	.LBE250:
 2874              	.LBB258:
 2875              	.LBB245:
 2876              	.LBB241:
 2877              	.LBB237:
 2878              	.LBB234:
 2879              	.LBB231:
 2880              	.LBB229:
 281:mavlink/minimal/../mavlink_helpers.h **** 				    msg->signature,
 2881              		.loc 2 281 3 is_stmt 1 view .LVU1090
 2882 045c C878     		ldrb	r0, [r1, #3]	@ zero_extendqisi2
 2883              	.LVL294:
 281:mavlink/minimal/../mavlink_helpers.h **** 				    msg->signature,
 2884              		.loc 2 281 3 is_stmt 0 view .LVU1091
 2885 045e 3518     		adds	r5, r6, r0
 2886 0460 0295     		str	r5, [sp, #8]
 2887 0462 0190     		str	r0, [sp, #4]
 2888 0464 0096     		str	r6, [sp]
 2889 0466 05AA     		add	r2, sp, #20
 2890              	.LVL295:
 281:mavlink/minimal/../mavlink_helpers.h **** 				    msg->signature,
 2891              		.loc 2 281 3 view .LVU1092
 2892 0468 01F58B71 		add	r1, r1, #278
 281:mavlink/minimal/../mavlink_helpers.h **** 				    msg->signature,
 2893              		.loc 2 281 3 view .LVU1093
 2894 046c 4E48     		ldr	r0, .L148+4
 2895 046e 0069     		ldr	r0, [r0, #16]
 2896 0470 FFF7FEFF 		bl	mavlink_sign_packet
 2897              	.LVL296:
 281:mavlink/minimal/../mavlink_helpers.h **** 				    msg->signature,
 2898              		.loc 2 281 3 view .LVU1094
 2899 0474 E4E7     		b	.L122
 2900              	.LVL297:
 2901              	.L144:
 281:mavlink/minimal/../mavlink_helpers.h **** 				    msg->signature,
ARM GAS  /tmp/ccrjRHai.s 			page 83


 2902              		.loc 2 281 3 view .LVU1095
 2903              	.LBE229:
 2904              	.LBE231:
 2905              	.LBE234:
 2906              	.LBE237:
 2907              	.LBE241:
 2908              	.LBE245:
 2909              	.LBE258:
 2910              	.LBB259:
 2911              	.LBB256:
 454:mavlink/minimal/../mavlink_helpers.h **** 		header_len = MAVLINK_CORE_HEADER_MAVLINK1_LEN;
 2912              		.loc 2 454 3 is_stmt 1 view .LVU1096
 455:mavlink/minimal/../mavlink_helpers.h **** 		buf[0] = msg->magic;
 2913              		.loc 2 455 3 view .LVU1097
 456:mavlink/minimal/../mavlink_helpers.h **** 		buf[1] = length;
 2914              		.loc 2 456 3 view .LVU1098
 456:mavlink/minimal/../mavlink_helpers.h **** 		buf[1] = length;
 2915              		.loc 2 456 10 is_stmt 0 view .LVU1099
 2916 0476 4D4E     		ldr	r6, .L148+8
 2917 0478 3270     		strb	r2, [r6]
 457:mavlink/minimal/../mavlink_helpers.h **** 		buf[2] = msg->seq;
 2918              		.loc 2 457 3 is_stmt 1 view .LVU1100
 457:mavlink/minimal/../mavlink_helpers.h **** 		buf[2] = msg->seq;
 2919              		.loc 2 457 10 is_stmt 0 view .LVU1101
 2920 047a 7570     		strb	r5, [r6, #1]
 458:mavlink/minimal/../mavlink_helpers.h **** 		buf[3] = msg->sysid;
 2921              		.loc 2 458 3 is_stmt 1 view .LVU1102
 458:mavlink/minimal/../mavlink_helpers.h **** 		buf[3] = msg->sysid;
 2922              		.loc 2 458 15 is_stmt 0 view .LVU1103
 2923 047c 1F46     		mov	r7, r3
 2924 047e 9B79     		ldrb	r3, [r3, #6]	@ zero_extendqisi2
 458:mavlink/minimal/../mavlink_helpers.h **** 		buf[3] = msg->sysid;
 2925              		.loc 2 458 10 view .LVU1104
 2926 0480 B370     		strb	r3, [r6, #2]
 459:mavlink/minimal/../mavlink_helpers.h **** 		buf[4] = msg->compid;
 2927              		.loc 2 459 3 is_stmt 1 view .LVU1105
 459:mavlink/minimal/../mavlink_helpers.h **** 		buf[4] = msg->compid;
 2928              		.loc 2 459 15 is_stmt 0 view .LVU1106
 2929 0482 FB79     		ldrb	r3, [r7, #7]	@ zero_extendqisi2
 459:mavlink/minimal/../mavlink_helpers.h **** 		buf[4] = msg->compid;
 2930              		.loc 2 459 10 view .LVU1107
 2931 0484 F370     		strb	r3, [r6, #3]
 460:mavlink/minimal/../mavlink_helpers.h **** 		buf[5] = msg->msgid & 0xFF;
 2932              		.loc 2 460 3 is_stmt 1 view .LVU1108
 460:mavlink/minimal/../mavlink_helpers.h **** 		buf[5] = msg->msgid & 0xFF;
 2933              		.loc 2 460 15 is_stmt 0 view .LVU1109
 2934 0486 3B7A     		ldrb	r3, [r7, #8]	@ zero_extendqisi2
 460:mavlink/minimal/../mavlink_helpers.h **** 		buf[5] = msg->msgid & 0xFF;
 2935              		.loc 2 460 10 view .LVU1110
 2936 0488 3371     		strb	r3, [r6, #4]
 461:mavlink/minimal/../mavlink_helpers.h **** 		memcpy(&buf[6], _MAV_PAYLOAD(msg), msg->len);
 2937              		.loc 2 461 3 is_stmt 1 view .LVU1111
 461:mavlink/minimal/../mavlink_helpers.h **** 		memcpy(&buf[6], _MAV_PAYLOAD(msg), msg->len);
 2938              		.loc 2 461 15 is_stmt 0 view .LVU1112
 2939 048a BB68     		ldr	r3, [r7, #8]
 2940 048c C3F31723 		ubfx	r3, r3, #8, #24
 461:mavlink/minimal/../mavlink_helpers.h **** 		memcpy(&buf[6], _MAV_PAYLOAD(msg), msg->len);
ARM GAS  /tmp/ccrjRHai.s 			page 84


 2941              		.loc 2 461 10 view .LVU1113
 2942 0490 7371     		strb	r3, [r6, #5]
 462:mavlink/minimal/../mavlink_helpers.h **** 		ck = buf + header_len + 1 + (uint16_t)msg->len;
 2943              		.loc 2 462 3 is_stmt 1 view .LVU1114
 2944 0492 2A46     		mov	r2, r5
 2945 0494 07F10C01 		add	r1, r7, #12
 2946 0498 B01D     		adds	r0, r6, #6
 2947 049a FFF7FEFF 		bl	memcpy
 2948              	.LVL298:
 463:mavlink/minimal/../mavlink_helpers.h **** 	} else {
 2949              		.loc 2 463 3 view .LVU1115
 463:mavlink/minimal/../mavlink_helpers.h **** 	} else {
 2950              		.loc 2 463 44 is_stmt 0 view .LVU1116
 2951 049e F878     		ldrb	r0, [r7, #3]	@ zero_extendqisi2
 463:mavlink/minimal/../mavlink_helpers.h **** 	} else {
 2952              		.loc 2 463 29 view .LVU1117
 2953 04a0 0630     		adds	r0, r0, #6
 463:mavlink/minimal/../mavlink_helpers.h **** 	} else {
 2954              		.loc 2 463 6 view .LVU1118
 2955 04a2 3044     		add	r0, r0, r6
 2956              	.LVL299:
 455:mavlink/minimal/../mavlink_helpers.h **** 		buf[0] = msg->magic;
 2957              		.loc 2 455 14 view .LVU1119
 2958 04a4 0527     		movs	r7, #5
 454:mavlink/minimal/../mavlink_helpers.h **** 		header_len = MAVLINK_CORE_HEADER_MAVLINK1_LEN;
 2959              		.loc 2 454 17 view .LVU1120
 2960 04a6 4FF00008 		mov	r8, #0
 2961 04aa 26E0     		b	.L124
 2962              	.LVL300:
 2963              	.L125:
 2964              	.LBB255:
 2965              	.LBB254:
 116:mavlink/minimal/../mavlink_helpers.h **** }
 2966              		.loc 2 116 2 is_stmt 1 view .LVU1121
 116:mavlink/minimal/../mavlink_helpers.h **** }
 2967              		.loc 2 116 2 is_stmt 0 view .LVU1122
 2968              	.LBE254:
 2969              	.LBE255:
 466:mavlink/minimal/../mavlink_helpers.h **** 		buf[0] = msg->magic;
 2970              		.loc 2 466 3 is_stmt 1 view .LVU1123
 467:mavlink/minimal/../mavlink_helpers.h **** 		buf[1] = length;
 2971              		.loc 2 467 3 view .LVU1124
 467:mavlink/minimal/../mavlink_helpers.h **** 		buf[1] = length;
 2972              		.loc 2 467 10 is_stmt 0 view .LVU1125
 2973 04ac 3F4E     		ldr	r6, .L148+8
 2974 04ae 3270     		strb	r2, [r6]
 468:mavlink/minimal/../mavlink_helpers.h **** 		buf[2] = msg->incompat_flags;
 2975              		.loc 2 468 3 is_stmt 1 view .LVU1126
 468:mavlink/minimal/../mavlink_helpers.h **** 		buf[2] = msg->incompat_flags;
 2976              		.loc 2 468 10 is_stmt 0 view .LVU1127
 2977 04b0 7570     		strb	r5, [r6, #1]
 469:mavlink/minimal/../mavlink_helpers.h **** 		buf[3] = msg->compat_flags;
 2978              		.loc 2 469 3 is_stmt 1 view .LVU1128
 469:mavlink/minimal/../mavlink_helpers.h **** 		buf[3] = msg->compat_flags;
 2979              		.loc 2 469 15 is_stmt 0 view .LVU1129
 2980 04b2 3C4F     		ldr	r7, .L148
 2981 04b4 3B79     		ldrb	r3, [r7, #4]	@ zero_extendqisi2
ARM GAS  /tmp/ccrjRHai.s 			page 85


 469:mavlink/minimal/../mavlink_helpers.h **** 		buf[3] = msg->compat_flags;
 2982              		.loc 2 469 10 view .LVU1130
 2983 04b6 B370     		strb	r3, [r6, #2]
 470:mavlink/minimal/../mavlink_helpers.h **** 		buf[4] = msg->seq;
 2984              		.loc 2 470 3 is_stmt 1 view .LVU1131
 470:mavlink/minimal/../mavlink_helpers.h **** 		buf[4] = msg->seq;
 2985              		.loc 2 470 15 is_stmt 0 view .LVU1132
 2986 04b8 7B79     		ldrb	r3, [r7, #5]	@ zero_extendqisi2
 470:mavlink/minimal/../mavlink_helpers.h **** 		buf[4] = msg->seq;
 2987              		.loc 2 470 10 view .LVU1133
 2988 04ba F370     		strb	r3, [r6, #3]
 471:mavlink/minimal/../mavlink_helpers.h **** 		buf[5] = msg->sysid;
 2989              		.loc 2 471 3 is_stmt 1 view .LVU1134
 471:mavlink/minimal/../mavlink_helpers.h **** 		buf[5] = msg->sysid;
 2990              		.loc 2 471 15 is_stmt 0 view .LVU1135
 2991 04bc BB79     		ldrb	r3, [r7, #6]	@ zero_extendqisi2
 471:mavlink/minimal/../mavlink_helpers.h **** 		buf[5] = msg->sysid;
 2992              		.loc 2 471 10 view .LVU1136
 2993 04be 3371     		strb	r3, [r6, #4]
 472:mavlink/minimal/../mavlink_helpers.h **** 		buf[6] = msg->compid;
 2994              		.loc 2 472 3 is_stmt 1 view .LVU1137
 472:mavlink/minimal/../mavlink_helpers.h **** 		buf[6] = msg->compid;
 2995              		.loc 2 472 15 is_stmt 0 view .LVU1138
 2996 04c0 FB79     		ldrb	r3, [r7, #7]	@ zero_extendqisi2
 472:mavlink/minimal/../mavlink_helpers.h **** 		buf[6] = msg->compid;
 2997              		.loc 2 472 10 view .LVU1139
 2998 04c2 7371     		strb	r3, [r6, #5]
 473:mavlink/minimal/../mavlink_helpers.h **** 		buf[7] = msg->msgid & 0xFF;
 2999              		.loc 2 473 3 is_stmt 1 view .LVU1140
 473:mavlink/minimal/../mavlink_helpers.h **** 		buf[7] = msg->msgid & 0xFF;
 3000              		.loc 2 473 15 is_stmt 0 view .LVU1141
 3001 04c4 3B7A     		ldrb	r3, [r7, #8]	@ zero_extendqisi2
 473:mavlink/minimal/../mavlink_helpers.h **** 		buf[7] = msg->msgid & 0xFF;
 3002              		.loc 2 473 10 view .LVU1142
 3003 04c6 B371     		strb	r3, [r6, #6]
 474:mavlink/minimal/../mavlink_helpers.h **** 		buf[8] = (msg->msgid >> 8) & 0xFF;
 3004              		.loc 2 474 3 is_stmt 1 view .LVU1143
 474:mavlink/minimal/../mavlink_helpers.h **** 		buf[8] = (msg->msgid >> 8) & 0xFF;
 3005              		.loc 2 474 15 is_stmt 0 view .LVU1144
 3006 04c8 BB68     		ldr	r3, [r7, #8]
 3007 04ca C3F31723 		ubfx	r3, r3, #8, #24
 474:mavlink/minimal/../mavlink_helpers.h **** 		buf[8] = (msg->msgid >> 8) & 0xFF;
 3008              		.loc 2 474 10 view .LVU1145
 3009 04ce F371     		strb	r3, [r6, #7]
 475:mavlink/minimal/../mavlink_helpers.h **** 		buf[9] = (msg->msgid >> 16) & 0xFF;
 3010              		.loc 2 475 3 is_stmt 1 view .LVU1146
 475:mavlink/minimal/../mavlink_helpers.h **** 		buf[9] = (msg->msgid >> 16) & 0xFF;
 3011              		.loc 2 475 24 is_stmt 0 view .LVU1147
 3012 04d0 1A12     		asrs	r2, r3, #8
 475:mavlink/minimal/../mavlink_helpers.h **** 		buf[9] = (msg->msgid >> 16) & 0xFF;
 3013              		.loc 2 475 10 view .LVU1148
 3014 04d2 3272     		strb	r2, [r6, #8]
 476:mavlink/minimal/../mavlink_helpers.h **** 		memcpy(&buf[10], _MAV_PAYLOAD(msg), length);
 3015              		.loc 2 476 3 is_stmt 1 view .LVU1149
 476:mavlink/minimal/../mavlink_helpers.h **** 		memcpy(&buf[10], _MAV_PAYLOAD(msg), length);
 3016              		.loc 2 476 24 is_stmt 0 view .LVU1150
 3017 04d4 1B14     		asrs	r3, r3, #16
ARM GAS  /tmp/ccrjRHai.s 			page 86


 476:mavlink/minimal/../mavlink_helpers.h **** 		memcpy(&buf[10], _MAV_PAYLOAD(msg), length);
 3018              		.loc 2 476 10 view .LVU1151
 3019 04d6 7372     		strb	r3, [r6, #9]
 477:mavlink/minimal/../mavlink_helpers.h **** 		ck = buf + header_len + 1 + (uint16_t)length;
 3020              		.loc 2 477 3 is_stmt 1 view .LVU1152
 3021 04d8 2A46     		mov	r2, r5
 3022 04da 07F10C01 		add	r1, r7, #12
 3023 04de 06F10A00 		add	r0, r6, #10
 3024 04e2 FFF7FEFF 		bl	memcpy
 3025              	.LVL301:
 478:mavlink/minimal/../mavlink_helpers.h **** 		signature_len = (msg->incompat_flags & MAVLINK_IFLAG_SIGNED)?MAVLINK_SIGNATURE_BLOCK_LEN:0;
 3026              		.loc 2 478 3 view .LVU1153
 478:mavlink/minimal/../mavlink_helpers.h **** 		signature_len = (msg->incompat_flags & MAVLINK_IFLAG_SIGNED)?MAVLINK_SIGNATURE_BLOCK_LEN:0;
 3027              		.loc 2 478 29 is_stmt 0 view .LVU1154
 3028 04e6 05F10A00 		add	r0, r5, #10
 478:mavlink/minimal/../mavlink_helpers.h **** 		signature_len = (msg->incompat_flags & MAVLINK_IFLAG_SIGNED)?MAVLINK_SIGNATURE_BLOCK_LEN:0;
 3029              		.loc 2 478 6 view .LVU1155
 3030 04ea 3044     		add	r0, r0, r6
 3031              	.LVL302:
 479:mavlink/minimal/../mavlink_helpers.h **** 	}
 3032              		.loc 2 479 3 is_stmt 1 view .LVU1156
 479:mavlink/minimal/../mavlink_helpers.h **** 	}
 3033              		.loc 2 479 23 is_stmt 0 view .LVU1157
 3034 04ec 3979     		ldrb	r1, [r7, #4]	@ zero_extendqisi2
 479:mavlink/minimal/../mavlink_helpers.h **** 	}
 3035              		.loc 2 479 17 view .LVU1158
 3036 04ee 11F00108 		ands	r8, r1, #1
 3037 04f2 4FD0     		beq	.L138
 466:mavlink/minimal/../mavlink_helpers.h **** 		buf[0] = msg->magic;
 3038              		.loc 2 466 14 view .LVU1159
 3039 04f4 0927     		movs	r7, #9
 479:mavlink/minimal/../mavlink_helpers.h **** 	}
 3040              		.loc 2 479 17 view .LVU1160
 3041 04f6 4FF00D08 		mov	r8, #13
 3042              	.LVL303:
 3043              	.L124:
 481:mavlink/minimal/../mavlink_helpers.h **** 	ck[1] = (uint8_t)(msg->checksum >> 8);
 3044              		.loc 2 481 2 is_stmt 1 view .LVU1161
 481:mavlink/minimal/../mavlink_helpers.h **** 	ck[1] = (uint8_t)(msg->checksum >> 8);
 3045              		.loc 2 481 23 is_stmt 0 view .LVU1162
 3046 04fa 2A4B     		ldr	r3, .L148
 3047 04fc 1B88     		ldrh	r3, [r3]
 481:mavlink/minimal/../mavlink_helpers.h **** 	ck[1] = (uint8_t)(msg->checksum >> 8);
 3048              		.loc 2 481 8 view .LVU1163
 3049 04fe 0370     		strb	r3, [r0]
 482:mavlink/minimal/../mavlink_helpers.h **** 	if (signature_len > 0) {
 3050              		.loc 2 482 2 is_stmt 1 view .LVU1164
 482:mavlink/minimal/../mavlink_helpers.h **** 	if (signature_len > 0) {
 3051              		.loc 2 482 10 is_stmt 0 view .LVU1165
 3052 0500 1B0A     		lsrs	r3, r3, #8
 482:mavlink/minimal/../mavlink_helpers.h **** 	if (signature_len > 0) {
 3053              		.loc 2 482 8 view .LVU1166
 3054 0502 4370     		strb	r3, [r0, #1]
 483:mavlink/minimal/../mavlink_helpers.h **** 		memcpy(&ck[2], msg->signature, signature_len);
 3055              		.loc 2 483 2 is_stmt 1 view .LVU1167
 483:mavlink/minimal/../mavlink_helpers.h **** 		memcpy(&ck[2], msg->signature, signature_len);
 3056              		.loc 2 483 5 is_stmt 0 view .LVU1168
ARM GAS  /tmp/ccrjRHai.s 			page 87


 3057 0504 B8F1000F 		cmp	r8, #0
 3058 0508 46D1     		bne	.L145
 3059              	.LVL304:
 3060              	.L127:
 3061              		.loc 2 487 2 is_stmt 1 view .LVU1169
 3062              		.loc 2 487 28 is_stmt 0 view .LVU1170
 3063 050a 7919     		adds	r1, r7, r5
 3064              		.loc 2 487 47 view .LVU1171
 3065 050c 4144     		add	r1, r1, r8
 3066 050e 0331     		adds	r1, r1, #3
 3067 0510 89B2     		uxth	r1, r1
 3068              	.LVL305:
 3069              		.loc 2 487 47 view .LVU1172
 3070              	.LBE256:
 3071              	.LBE259:
 3072              		.loc 3 195 9 view .LVU1173
 3073 0512 274B     		ldr	r3, .L148+12
 3074 0514 1980     		strh	r1, [r3]	@ movhi
 196:Core/Src/freertos.c ****     CDC_Transmit_FS(buf, len);
 3075              		.loc 3 196 5 is_stmt 1 view .LVU1174
 3076 0516 2548     		ldr	r0, .L148+8
 3077 0518 FFF7FEFF 		bl	CDC_Transmit_FS
 3078              	.LVL306:
 197:Core/Src/freertos.c **** 
 198:Core/Src/freertos.c **** 
 199:Core/Src/freertos.c **** 
 200:Core/Src/freertos.c ****     
 201:Core/Src/freertos.c ****     osDelay(50); // 20Hz
 3079              		.loc 3 201 5 view .LVU1175
 3080 051c 3220     		movs	r0, #50
 3081 051e FFF7FEFF 		bl	osDelay
 3082              	.LVL307:
 3083              	.LBE265:
 175:Core/Src/freertos.c ****   {
 3084              		.loc 3 175 8 view .LVU1176
 3085              	.L128:
 175:Core/Src/freertos.c ****   {
 3086              		.loc 3 175 3 view .LVU1177
 3087              	.LBB266:
 177:Core/Src/freertos.c ****     SensorTask_GetBaro(&baro);
 3088              		.loc 3 177 5 view .LVU1178
 3089 0522 18A8     		add	r0, sp, #96
 3090 0524 FFF7FEFF 		bl	SensorTask_GetIMU
 3091              	.LVL308:
 178:Core/Src/freertos.c ****     SensorTask_GetAttitude(&attitude);
 3092              		.loc 3 178 5 view .LVU1179
 3093 0528 13A8     		add	r0, sp, #76
 3094 052a FFF7FEFF 		bl	SensorTask_GetBaro
 3095              	.LVL309:
 179:Core/Src/freertos.c ****     
 3096              		.loc 3 179 5 view .LVU1180
 3097 052e 0FA8     		add	r0, sp, #60
 3098 0530 FFF7FEFF 		bl	SensorTask_GetAttitude
 3099              	.LVL310:
 181:Core/Src/freertos.c ****     // snprintf(buffer, 128, "[IMU] Gyro(deg/s) >> X:%.2f, Y:%.2f, Z:%.2f | Acc(m/s2) >> X:%.2f, Y:
 3100              		.loc 3 181 5 view .LVU1181
 187:Core/Src/freertos.c ****     {
ARM GAS  /tmp/ccrjRHai.s 			page 88


 3101              		.loc 3 187 5 view .LVU1182
 187:Core/Src/freertos.c ****     {
 3102              		.loc 3 187 8 is_stmt 0 view .LVU1183
 3103 0534 FFF7FEFF 		bl	HAL_GetTick
 3104              	.LVL311:
 187:Core/Src/freertos.c ****     {
 3105              		.loc 3 187 22 view .LVU1184
 3106 0538 001B     		subs	r0, r0, r4
 187:Core/Src/freertos.c ****     {
 3107              		.loc 3 187 7 view .LVU1185
 3108 053a B0F57A7F 		cmp	r0, #1000
 3109 053e FFF487AE 		bcc	.L89
 189:Core/Src/freertos.c ****       len = mavlink_msg_to_send_buffer(buf, &heart_beat);
 3110              		.loc 3 189 7 is_stmt 1 view .LVU1186
 3111              	.LVL312:
 3112              	.LBB260:
 3113              	.LBI154:
 3114              		.file 6 "mavlink/minimal/./mavlink_msg_heartbeat.h"
   1:mavlink/minimal/./mavlink_msg_heartbeat.h **** #pragma once
   2:mavlink/minimal/./mavlink_msg_heartbeat.h **** // MESSAGE HEARTBEAT PACKING
   3:mavlink/minimal/./mavlink_msg_heartbeat.h **** 
   4:mavlink/minimal/./mavlink_msg_heartbeat.h **** #define MAVLINK_MSG_ID_HEARTBEAT 0
   5:mavlink/minimal/./mavlink_msg_heartbeat.h **** 
   6:mavlink/minimal/./mavlink_msg_heartbeat.h **** 
   7:mavlink/minimal/./mavlink_msg_heartbeat.h **** typedef struct __mavlink_heartbeat_t {
   8:mavlink/minimal/./mavlink_msg_heartbeat.h ****  uint32_t custom_mode; /*<  A bitfield for use for autopilot-specific flags*/
   9:mavlink/minimal/./mavlink_msg_heartbeat.h ****  uint8_t type; /*<  Vehicle or component type. For a flight controller component the vehicle type (
  10:mavlink/minimal/./mavlink_msg_heartbeat.h ****  uint8_t autopilot; /*<  Autopilot type / class. Use MAV_AUTOPILOT_INVALID for components that are 
  11:mavlink/minimal/./mavlink_msg_heartbeat.h ****  uint8_t base_mode; /*<  System mode bitmap.*/
  12:mavlink/minimal/./mavlink_msg_heartbeat.h ****  uint8_t system_status; /*<  System status flag.*/
  13:mavlink/minimal/./mavlink_msg_heartbeat.h ****  uint8_t mavlink_version; /*<  MAVLink version, not writable by user, gets added by protocol becaus
  14:mavlink/minimal/./mavlink_msg_heartbeat.h **** } mavlink_heartbeat_t;
  15:mavlink/minimal/./mavlink_msg_heartbeat.h **** 
  16:mavlink/minimal/./mavlink_msg_heartbeat.h **** #define MAVLINK_MSG_ID_HEARTBEAT_LEN 9
  17:mavlink/minimal/./mavlink_msg_heartbeat.h **** #define MAVLINK_MSG_ID_HEARTBEAT_MIN_LEN 9
  18:mavlink/minimal/./mavlink_msg_heartbeat.h **** #define MAVLINK_MSG_ID_0_LEN 9
  19:mavlink/minimal/./mavlink_msg_heartbeat.h **** #define MAVLINK_MSG_ID_0_MIN_LEN 9
  20:mavlink/minimal/./mavlink_msg_heartbeat.h **** 
  21:mavlink/minimal/./mavlink_msg_heartbeat.h **** #define MAVLINK_MSG_ID_HEARTBEAT_CRC 50
  22:mavlink/minimal/./mavlink_msg_heartbeat.h **** #define MAVLINK_MSG_ID_0_CRC 50
  23:mavlink/minimal/./mavlink_msg_heartbeat.h **** 
  24:mavlink/minimal/./mavlink_msg_heartbeat.h **** 
  25:mavlink/minimal/./mavlink_msg_heartbeat.h **** 
  26:mavlink/minimal/./mavlink_msg_heartbeat.h **** #if MAVLINK_COMMAND_24BIT
  27:mavlink/minimal/./mavlink_msg_heartbeat.h **** #define MAVLINK_MESSAGE_INFO_HEARTBEAT { \
  28:mavlink/minimal/./mavlink_msg_heartbeat.h ****     0, \
  29:mavlink/minimal/./mavlink_msg_heartbeat.h ****     "HEARTBEAT", \
  30:mavlink/minimal/./mavlink_msg_heartbeat.h ****     6, \
  31:mavlink/minimal/./mavlink_msg_heartbeat.h ****     {  { "type", NULL, MAVLINK_TYPE_UINT8_T, 0, 4, offsetof(mavlink_heartbeat_t, type) }, \
  32:mavlink/minimal/./mavlink_msg_heartbeat.h ****          { "autopilot", NULL, MAVLINK_TYPE_UINT8_T, 0, 5, offsetof(mavlink_heartbeat_t, autopilot) 
  33:mavlink/minimal/./mavlink_msg_heartbeat.h ****          { "base_mode", NULL, MAVLINK_TYPE_UINT8_T, 0, 6, offsetof(mavlink_heartbeat_t, base_mode) 
  34:mavlink/minimal/./mavlink_msg_heartbeat.h ****          { "custom_mode", NULL, MAVLINK_TYPE_UINT32_T, 0, 0, offsetof(mavlink_heartbeat_t, custom_m
  35:mavlink/minimal/./mavlink_msg_heartbeat.h ****          { "system_status", NULL, MAVLINK_TYPE_UINT8_T, 0, 7, offsetof(mavlink_heartbeat_t, system_
  36:mavlink/minimal/./mavlink_msg_heartbeat.h ****          { "mavlink_version", NULL, MAVLINK_TYPE_UINT8_T, 0, 8, offsetof(mavlink_heartbeat_t, mavli
  37:mavlink/minimal/./mavlink_msg_heartbeat.h ****          } \
  38:mavlink/minimal/./mavlink_msg_heartbeat.h **** }
  39:mavlink/minimal/./mavlink_msg_heartbeat.h **** #else
ARM GAS  /tmp/ccrjRHai.s 			page 89


  40:mavlink/minimal/./mavlink_msg_heartbeat.h **** #define MAVLINK_MESSAGE_INFO_HEARTBEAT { \
  41:mavlink/minimal/./mavlink_msg_heartbeat.h ****     "HEARTBEAT", \
  42:mavlink/minimal/./mavlink_msg_heartbeat.h ****     6, \
  43:mavlink/minimal/./mavlink_msg_heartbeat.h ****     {  { "type", NULL, MAVLINK_TYPE_UINT8_T, 0, 4, offsetof(mavlink_heartbeat_t, type) }, \
  44:mavlink/minimal/./mavlink_msg_heartbeat.h ****          { "autopilot", NULL, MAVLINK_TYPE_UINT8_T, 0, 5, offsetof(mavlink_heartbeat_t, autopilot) 
  45:mavlink/minimal/./mavlink_msg_heartbeat.h ****          { "base_mode", NULL, MAVLINK_TYPE_UINT8_T, 0, 6, offsetof(mavlink_heartbeat_t, base_mode) 
  46:mavlink/minimal/./mavlink_msg_heartbeat.h ****          { "custom_mode", NULL, MAVLINK_TYPE_UINT32_T, 0, 0, offsetof(mavlink_heartbeat_t, custom_m
  47:mavlink/minimal/./mavlink_msg_heartbeat.h ****          { "system_status", NULL, MAVLINK_TYPE_UINT8_T, 0, 7, offsetof(mavlink_heartbeat_t, system_
  48:mavlink/minimal/./mavlink_msg_heartbeat.h ****          { "mavlink_version", NULL, MAVLINK_TYPE_UINT8_T, 0, 8, offsetof(mavlink_heartbeat_t, mavli
  49:mavlink/minimal/./mavlink_msg_heartbeat.h ****          } \
  50:mavlink/minimal/./mavlink_msg_heartbeat.h **** }
  51:mavlink/minimal/./mavlink_msg_heartbeat.h **** #endif
  52:mavlink/minimal/./mavlink_msg_heartbeat.h **** 
  53:mavlink/minimal/./mavlink_msg_heartbeat.h **** /**
  54:mavlink/minimal/./mavlink_msg_heartbeat.h ****  * @brief Pack a heartbeat message
  55:mavlink/minimal/./mavlink_msg_heartbeat.h ****  * @param system_id ID of this system
  56:mavlink/minimal/./mavlink_msg_heartbeat.h ****  * @param component_id ID of this component (e.g. 200 for IMU)
  57:mavlink/minimal/./mavlink_msg_heartbeat.h ****  * @param msg The MAVLink message to compress the data into
  58:mavlink/minimal/./mavlink_msg_heartbeat.h ****  *
  59:mavlink/minimal/./mavlink_msg_heartbeat.h ****  * @param type  Vehicle or component type. For a flight controller component the vehicle type (quad
  60:mavlink/minimal/./mavlink_msg_heartbeat.h ****  * @param autopilot  Autopilot type / class. Use MAV_AUTOPILOT_INVALID for components that are not 
  61:mavlink/minimal/./mavlink_msg_heartbeat.h ****  * @param base_mode  System mode bitmap.
  62:mavlink/minimal/./mavlink_msg_heartbeat.h ****  * @param custom_mode  A bitfield for use for autopilot-specific flags
  63:mavlink/minimal/./mavlink_msg_heartbeat.h ****  * @param system_status  System status flag.
  64:mavlink/minimal/./mavlink_msg_heartbeat.h ****  * @return length of the message in bytes (excluding serial stream start sign)
  65:mavlink/minimal/./mavlink_msg_heartbeat.h ****  */
  66:mavlink/minimal/./mavlink_msg_heartbeat.h **** static inline uint16_t mavlink_msg_heartbeat_pack(uint8_t system_id, uint8_t component_id, mavlink_
 3115              		.loc 6 66 24 view .LVU1187
 3116              	.LBB192:
  67:mavlink/minimal/./mavlink_msg_heartbeat.h ****                                uint8_t type, uint8_t autopilot, uint8_t base_mode, uint32_t custom_
  68:mavlink/minimal/./mavlink_msg_heartbeat.h **** {
  69:mavlink/minimal/./mavlink_msg_heartbeat.h **** #if MAVLINK_NEED_BYTE_SWAP || !MAVLINK_ALIGNED_FIELDS
  70:mavlink/minimal/./mavlink_msg_heartbeat.h ****     char buf[MAVLINK_MSG_ID_HEARTBEAT_LEN];
  71:mavlink/minimal/./mavlink_msg_heartbeat.h ****     _mav_put_uint32_t(buf, 0, custom_mode);
  72:mavlink/minimal/./mavlink_msg_heartbeat.h ****     _mav_put_uint8_t(buf, 4, type);
  73:mavlink/minimal/./mavlink_msg_heartbeat.h ****     _mav_put_uint8_t(buf, 5, autopilot);
  74:mavlink/minimal/./mavlink_msg_heartbeat.h ****     _mav_put_uint8_t(buf, 6, base_mode);
  75:mavlink/minimal/./mavlink_msg_heartbeat.h ****     _mav_put_uint8_t(buf, 7, system_status);
  76:mavlink/minimal/./mavlink_msg_heartbeat.h ****     _mav_put_uint8_t(buf, 8, 3);
  77:mavlink/minimal/./mavlink_msg_heartbeat.h **** 
  78:mavlink/minimal/./mavlink_msg_heartbeat.h ****         memcpy(_MAV_PAYLOAD_NON_CONST(msg), buf, MAVLINK_MSG_ID_HEARTBEAT_LEN);
  79:mavlink/minimal/./mavlink_msg_heartbeat.h **** #else
  80:mavlink/minimal/./mavlink_msg_heartbeat.h ****     mavlink_heartbeat_t packet;
 3117              		.loc 6 80 5 view .LVU1188
  81:mavlink/minimal/./mavlink_msg_heartbeat.h ****     packet.custom_mode = custom_mode;
 3118              		.loc 6 81 5 view .LVU1189
 3119              		.loc 6 81 24 is_stmt 0 view .LVU1190
 3120 0542 0023     		movs	r3, #0
 3121 0544 0893     		str	r3, [sp, #32]
  82:mavlink/minimal/./mavlink_msg_heartbeat.h ****     packet.type = type;
 3122              		.loc 6 82 5 is_stmt 1 view .LVU1191
 3123              		.loc 6 82 17 is_stmt 0 view .LVU1192
 3124 0546 0222     		movs	r2, #2
 3125 0548 8DF82420 		strb	r2, [sp, #36]
  83:mavlink/minimal/./mavlink_msg_heartbeat.h ****     packet.autopilot = autopilot;
 3126              		.loc 6 83 5 is_stmt 1 view .LVU1193
 3127              		.loc 6 83 22 is_stmt 0 view .LVU1194
ARM GAS  /tmp/ccrjRHai.s 			page 90


 3128 054c 8DF82530 		strb	r3, [sp, #37]
  84:mavlink/minimal/./mavlink_msg_heartbeat.h ****     packet.base_mode = base_mode;
 3129              		.loc 6 84 5 is_stmt 1 view .LVU1195
 3130              		.loc 6 84 22 is_stmt 0 view .LVU1196
 3131 0550 8DF82630 		strb	r3, [sp, #38]
  85:mavlink/minimal/./mavlink_msg_heartbeat.h ****     packet.system_status = system_status;
 3132              		.loc 6 85 5 is_stmt 1 view .LVU1197
 3133              		.loc 6 85 26 is_stmt 0 view .LVU1198
 3134 0554 8DF82730 		strb	r3, [sp, #39]
  86:mavlink/minimal/./mavlink_msg_heartbeat.h ****     packet.mavlink_version = 3;
 3135              		.loc 6 86 5 is_stmt 1 view .LVU1199
 3136              		.loc 6 86 28 is_stmt 0 view .LVU1200
 3137 0558 0322     		movs	r2, #3
 3138 055a 8DF82820 		strb	r2, [sp, #40]
  87:mavlink/minimal/./mavlink_msg_heartbeat.h **** 
  88:mavlink/minimal/./mavlink_msg_heartbeat.h ****         memcpy(_MAV_PAYLOAD_NON_CONST(msg), &packet, MAVLINK_MSG_ID_HEARTBEAT_LEN);
 3139              		.loc 6 88 9 is_stmt 1 view .LVU1201
 3140 055e 154D     		ldr	r5, .L148+16
 3141 0560 08AA     		add	r2, sp, #32
 3142 0562 05F10C04 		add	r4, r5, #12
 3143              	.LVL313:
 3144              		.loc 6 88 9 is_stmt 0 view .LVU1202
 3145 0566 07CA     		ldm	r2, {r0, r1, r2}
 3146 0568 03C4     		stmia	r4!, {r0, r1}
 3147 056a 2270     		strb	r2, [r4]
  89:mavlink/minimal/./mavlink_msg_heartbeat.h **** #endif
  90:mavlink/minimal/./mavlink_msg_heartbeat.h **** 
  91:mavlink/minimal/./mavlink_msg_heartbeat.h ****     msg->msgid = MAVLINK_MSG_ID_HEARTBEAT;
 3148              		.loc 6 91 5 is_stmt 1 view .LVU1203
 3149              		.loc 6 91 16 is_stmt 0 view .LVU1204
 3150 056c 6B72     		strb	r3, [r5, #9]
 3151 056e AB72     		strb	r3, [r5, #10]
 3152 0570 EB72     		strb	r3, [r5, #11]
  92:mavlink/minimal/./mavlink_msg_heartbeat.h ****     return mavlink_finalize_message(msg, system_id, component_id, MAVLINK_MSG_ID_HEARTBEAT_MIN_LEN,
 3153              		.loc 6 92 5 is_stmt 1 view .LVU1205
 3154              	.LVL314:
 3155              	.LBB188:
 3156              	.LBI156:
 302:mavlink/minimal/../mavlink_helpers.h **** 						 uint8_t min_length, uint8_t length, uint8_t crc_extra)
 3157              		.loc 2 302 25 view .LVU1206
 3158              	.LBE188:
 3159              	.LBE192:
 3160              	.LBE260:
 3161              	.LBE266:
 305:mavlink/minimal/../mavlink_helpers.h **** }
 3162              		.loc 2 305 5 view .LVU1207
 3163              	.LBB267:
 3164              	.LBB261:
 3165              	.LBB193:
 3166              	.LBB189:
 3167              	.LBB185:
 3168              	.LBI157:
 292:mavlink/minimal/../mavlink_helpers.h **** 						      uint8_t chan, uint8_t min_length, uint8_t length, uint8_t crc_extra)
 3169              		.loc 2 292 25 view .LVU1208
 3170              	.LBB182:
 295:mavlink/minimal/../mavlink_helpers.h **** 	return mavlink_finalize_message_buffer(msg, system_id, component_id, status, min_length, length, c
 3171              		.loc 2 295 2 view .LVU1209
ARM GAS  /tmp/ccrjRHai.s 			page 91


 295:mavlink/minimal/../mavlink_helpers.h **** 	return mavlink_finalize_message_buffer(msg, system_id, component_id, status, min_length, length, c
 3172              		.loc 2 295 2 is_stmt 0 view .LVU1210
 3173              	.LBE182:
 3174              	.LBE185:
 3175              	.LBE189:
 3176              	.LBE193:
 3177              	.LBE261:
 3178              	.LBE267:
  29:mavlink/minimal/../mavlink_helpers.h **** #endif
 3179              		.loc 2 29 2 is_stmt 1 view .LVU1211
  31:mavlink/minimal/../mavlink_helpers.h **** }
 3180              		.loc 2 31 2 view .LVU1212
 3181              	.LBB268:
 3182              	.LBB262:
 3183              	.LBB194:
 3184              	.LBB190:
 3185              	.LBB186:
 3186              	.LBB183:
 296:mavlink/minimal/../mavlink_helpers.h **** }
 3187              		.loc 2 296 2 view .LVU1213
 3188              	.LBB180:
 3189              	.LBI159:
 223:mavlink/minimal/../mavlink_helpers.h **** 						      mavlink_status_t* status, uint8_t min_length, uint8_t length, uint8_t crc_extra)
 3190              		.loc 2 223 25 view .LVU1214
 3191              	.LBB178:
 226:mavlink/minimal/../mavlink_helpers.h **** #ifndef MAVLINK_NO_SIGN_PACKET
 3192              		.loc 2 226 2 view .LVU1215
 226:mavlink/minimal/../mavlink_helpers.h **** #ifndef MAVLINK_NO_SIGN_PACKET
 3193              		.loc 2 226 25 is_stmt 0 view .LVU1216
 3194 0572 0D4B     		ldr	r3, .L148+4
 3195 0574 1C7B     		ldrb	r4, [r3, #12]	@ zero_extendqisi2
 3196              	.LVL315:
 228:mavlink/minimal/../mavlink_helpers.h **** #else
 3197              		.loc 2 228 2 is_stmt 1 view .LVU1217
 228:mavlink/minimal/../mavlink_helpers.h **** #else
 3198              		.loc 2 228 49 is_stmt 0 view .LVU1218
 3199 0576 14F00204 		ands	r4, r4, #2
 3200              	.LVL316:
 228:mavlink/minimal/../mavlink_helpers.h **** #else
 3201              		.loc 2 228 49 view .LVU1219
 3202 057a 7FF44AAD 		bne	.L129
 228:mavlink/minimal/../mavlink_helpers.h **** #else
 3203              		.loc 2 228 39 view .LVU1220
 3204 057e 1B69     		ldr	r3, [r3, #16]
 228:mavlink/minimal/../mavlink_helpers.h **** #else
 3205              		.loc 2 228 30 view .LVU1221
 3206 0580 002B     		cmp	r3, #0
 3207 0582 3FF480AD 		beq	.L130
 228:mavlink/minimal/../mavlink_helpers.h **** #else
 3208              		.loc 2 228 68 view .LVU1222
 3209 0586 1B78     		ldrb	r3, [r3]	@ zero_extendqisi2
 228:mavlink/minimal/../mavlink_helpers.h **** #else
 3210              		.loc 2 228 49 view .LVU1223
 3211 0588 13F0010F 		tst	r3, #1
 3212 058c 3FF442AD 		beq	.L90
 3213 0590 0120     		movs	r0, #1
 3214 0592 3FE5     		b	.L90
ARM GAS  /tmp/ccrjRHai.s 			page 92


 3215              	.LVL317:
 3216              	.L138:
 228:mavlink/minimal/../mavlink_helpers.h **** #else
 3217              		.loc 2 228 49 view .LVU1224
 3218              	.LBE178:
 3219              	.LBE180:
 3220              	.LBE183:
 3221              	.LBE186:
 3222              	.LBE190:
 3223              	.LBE194:
 3224              	.LBE262:
 3225              	.LBB263:
 3226              	.LBB257:
 466:mavlink/minimal/../mavlink_helpers.h **** 		buf[0] = msg->magic;
 3227              		.loc 2 466 14 view .LVU1225
 3228 0594 0927     		movs	r7, #9
 3229 0596 B0E7     		b	.L124
 3230              	.LVL318:
 3231              	.L145:
 484:mavlink/minimal/../mavlink_helpers.h **** 	}
 3232              		.loc 2 484 3 is_stmt 1 view .LVU1226
 3233 0598 4246     		mov	r2, r8
 3234 059a 0749     		ldr	r1, .L148+20
 3235 059c 0230     		adds	r0, r0, #2
 3236              	.LVL319:
 484:mavlink/minimal/../mavlink_helpers.h **** 	}
 3237              		.loc 2 484 3 is_stmt 0 view .LVU1227
 3238 059e FFF7FEFF 		bl	memcpy
 3239              	.LVL320:
 484:mavlink/minimal/../mavlink_helpers.h **** 	}
 3240              		.loc 2 484 3 view .LVU1228
 3241 05a2 B2E7     		b	.L127
 3242              	.L149:
 3243              		.align	2
 3244              	.L148:
 3245 05a4 00000000 		.word	.LANCHOR2
 3246 05a8 00000000 		.word	.LANCHOR3
 3247 05ac 00000000 		.word	.LANCHOR4
 3248 05b0 00000000 		.word	.LANCHOR5
 3249 05b4 00000000 		.word	.LANCHOR1
 3250 05b8 16010000 		.word	.LANCHOR2+278
 3251              	.LBE257:
 3252              	.LBE263:
 3253              	.LBE268:
 3254              		.cfi_endproc
 3255              	.LFE4308:
 3257              		.section	.text.vApplicationStackOverflowHook,"ax",%progbits
 3258              		.align	1
 3259              		.weak	vApplicationStackOverflowHook
 3260              		.syntax unified
 3261              		.thumb
 3262              		.thumb_func
 3264              	vApplicationStackOverflowHook:
 3265              	.LVL321:
 3266              	.LFB4304:
  85:Core/Src/freertos.c ****    /* Run time stack overflow checking is performed if
 3267              		.loc 3 85 1 is_stmt 1 view -0
ARM GAS  /tmp/ccrjRHai.s 			page 93


 3268              		.cfi_startproc
 3269              		@ args = 0, pretend = 0, frame = 0
 3270              		@ frame_needed = 0, uses_anonymous_args = 0
 3271              		@ link register save eliminated.
  89:Core/Src/freertos.c **** /* USER CODE END 4 */
 3272              		.loc 3 89 1 view .LVU1230
 3273 0000 7047     		bx	lr
 3274              		.cfi_endproc
 3275              	.LFE4304:
 3277              		.section	.text.vApplicationGetIdleTaskMemory,"ax",%progbits
 3278              		.align	1
 3279              		.global	vApplicationGetIdleTaskMemory
 3280              		.syntax unified
 3281              		.thumb
 3282              		.thumb_func
 3284              	vApplicationGetIdleTaskMemory:
 3285              	.LVL322:
 3286              	.LFB4305:
  97:Core/Src/freertos.c ****   *ppxIdleTaskTCBBuffer = &xIdleTaskTCBBuffer;
 3287              		.loc 3 97 1 view -0
 3288              		.cfi_startproc
 3289              		@ args = 0, pretend = 0, frame = 0
 3290              		@ frame_needed = 0, uses_anonymous_args = 0
 3291              		@ link register save eliminated.
  98:Core/Src/freertos.c ****   *ppxIdleTaskStackBuffer = &xIdleStack[0];
 3292              		.loc 3 98 3 view .LVU1232
  98:Core/Src/freertos.c ****   *ppxIdleTaskStackBuffer = &xIdleStack[0];
 3293              		.loc 3 98 25 is_stmt 0 view .LVU1233
 3294 0000 034B     		ldr	r3, .L152
 3295 0002 0360     		str	r3, [r0]
  99:Core/Src/freertos.c ****   *pulIdleTaskStackSize = configMINIMAL_STACK_SIZE;
 3296              		.loc 3 99 3 is_stmt 1 view .LVU1234
  99:Core/Src/freertos.c ****   *pulIdleTaskStackSize = configMINIMAL_STACK_SIZE;
 3297              		.loc 3 99 27 is_stmt 0 view .LVU1235
 3298 0004 034B     		ldr	r3, .L152+4
 3299 0006 0B60     		str	r3, [r1]
 100:Core/Src/freertos.c ****   /* place for user code */
 3300              		.loc 3 100 3 is_stmt 1 view .LVU1236
 100:Core/Src/freertos.c ****   /* place for user code */
 3301              		.loc 3 100 25 is_stmt 0 view .LVU1237
 3302 0008 8023     		movs	r3, #128
 3303 000a 1360     		str	r3, [r2]
 102:Core/Src/freertos.c **** /* USER CODE END GET_IDLE_TASK_MEMORY */
 3304              		.loc 3 102 1 view .LVU1238
 3305 000c 7047     		bx	lr
 3306              	.L153:
 3307 000e 00BF     		.align	2
 3308              	.L152:
 3309 0010 00000000 		.word	.LANCHOR6
 3310 0014 00000000 		.word	.LANCHOR7
 3311              		.cfi_endproc
 3312              	.LFE4305:
 3314              		.section	.text.vApplicationGetTimerTaskMemory,"ax",%progbits
 3315              		.align	1
 3316              		.global	vApplicationGetTimerTaskMemory
 3317              		.syntax unified
 3318              		.thumb
ARM GAS  /tmp/ccrjRHai.s 			page 94


 3319              		.thumb_func
 3321              	vApplicationGetTimerTaskMemory:
 3322              	.LVL323:
 3323              	.LFB4306:
 110:Core/Src/freertos.c ****   *ppxTimerTaskTCBBuffer = &xTimerTaskTCBBuffer;
 3324              		.loc 3 110 1 is_stmt 1 view -0
 3325              		.cfi_startproc
 3326              		@ args = 0, pretend = 0, frame = 0
 3327              		@ frame_needed = 0, uses_anonymous_args = 0
 3328              		@ link register save eliminated.
 111:Core/Src/freertos.c ****   *ppxTimerTaskStackBuffer = &xTimerStack[0];
 3329              		.loc 3 111 3 view .LVU1240
 111:Core/Src/freertos.c ****   *ppxTimerTaskStackBuffer = &xTimerStack[0];
 3330              		.loc 3 111 26 is_stmt 0 view .LVU1241
 3331 0000 034B     		ldr	r3, .L155
 3332 0002 0360     		str	r3, [r0]
 112:Core/Src/freertos.c ****   *pulTimerTaskStackSize = configTIMER_TASK_STACK_DEPTH;
 3333              		.loc 3 112 3 is_stmt 1 view .LVU1242
 112:Core/Src/freertos.c ****   *pulTimerTaskStackSize = configTIMER_TASK_STACK_DEPTH;
 3334              		.loc 3 112 28 is_stmt 0 view .LVU1243
 3335 0004 034B     		ldr	r3, .L155+4
 3336 0006 0B60     		str	r3, [r1]
 113:Core/Src/freertos.c ****   /* place for user code */
 3337              		.loc 3 113 3 is_stmt 1 view .LVU1244
 113:Core/Src/freertos.c ****   /* place for user code */
 3338              		.loc 3 113 26 is_stmt 0 view .LVU1245
 3339 0008 4FF48073 		mov	r3, #256
 3340 000c 1360     		str	r3, [r2]
 115:Core/Src/freertos.c **** /* USER CODE END GET_TIMER_TASK_MEMORY */
 3341              		.loc 3 115 1 view .LVU1246
 3342 000e 7047     		bx	lr
 3343              	.L156:
 3344              		.align	2
 3345              	.L155:
 3346 0010 00000000 		.word	.LANCHOR8
 3347 0014 00000000 		.word	.LANCHOR9
 3348              		.cfi_endproc
 3349              	.LFE4306:
 3351              		.section	.text.MX_FREERTOS_Init,"ax",%progbits
 3352              		.align	1
 3353              		.global	MX_FREERTOS_Init
 3354              		.syntax unified
 3355              		.thumb
 3356              		.thumb_func
 3358              	MX_FREERTOS_Init:
 3359              	.LFB4307:
 123:Core/Src/freertos.c ****   /* USER CODE BEGIN Init */
 3360              		.loc 3 123 29 is_stmt 1 view -0
 3361              		.cfi_startproc
 3362              		@ args = 0, pretend = 0, frame = 32
 3363              		@ frame_needed = 0, uses_anonymous_args = 0
 3364 0000 10B5     		push	{r4, lr}
 3365              	.LCFI9:
 3366              		.cfi_def_cfa_offset 8
 3367              		.cfi_offset 4, -8
 3368              		.cfi_offset 14, -4
 3369 0002 88B0     		sub	sp, sp, #32
ARM GAS  /tmp/ccrjRHai.s 			page 95


 3370              	.LCFI10:
 3371              		.cfi_def_cfa_offset 40
 146:Core/Src/freertos.c ****   USBTaskHandle = osThreadCreate(osThread(USBTask), NULL);
 3372              		.loc 3 146 3 view .LVU1248
 3373 0004 0DF1040C 		add	ip, sp, #4
 3374 0008 084C     		ldr	r4, .L159
 3375 000a 0FCC     		ldmia	r4!, {r0, r1, r2, r3}
 3376 000c ACE80F00 		stmia	ip!, {r0, r1, r2, r3}
 3377 0010 94E80700 		ldm	r4, {r0, r1, r2}
 3378 0014 8CE80700 		stm	ip, {r0, r1, r2}
 147:Core/Src/freertos.c **** 
 3379              		.loc 3 147 3 view .LVU1249
 147:Core/Src/freertos.c **** 
 3380              		.loc 3 147 19 is_stmt 0 view .LVU1250
 3381 0018 0021     		movs	r1, #0
 3382 001a 01A8     		add	r0, sp, #4
 3383 001c FFF7FEFF 		bl	osThreadCreate
 3384              	.LVL324:
 147:Core/Src/freertos.c **** 
 3385              		.loc 3 147 17 view .LVU1251
 3386 0020 034B     		ldr	r3, .L159+4
 3387 0022 1860     		str	r0, [r3]
 150:Core/Src/freertos.c **** 
 3388              		.loc 3 150 3 is_stmt 1 view .LVU1252
 3389 0024 FFF7FEFF 		bl	SensorTask_Init
 3390              	.LVL325:
 155:Core/Src/freertos.c **** 
 3391              		.loc 3 155 1 is_stmt 0 view .LVU1253
 3392 0028 08B0     		add	sp, sp, #32
 3393              	.LCFI11:
 3394              		.cfi_def_cfa_offset 8
 3395              		@ sp needed
 3396 002a 10BD     		pop	{r4, pc}
 3397              	.L160:
 3398              		.align	2
 3399              	.L159:
 3400 002c 00000000 		.word	.LANCHOR10
 3401 0030 00000000 		.word	.LANCHOR11
 3402              		.cfi_endproc
 3403              	.LFE4307:
 3405              		.global	USBTaskHandle
 3406              		.global	len
 3407              		.global	attitude_msg
 3408              		.global	heart_beat
 3409              		.global	buf
 3410              		.section	.rodata
 3411              		.align	2
 3412              		.set	.LANCHOR10,. + 0
 3413              	.LC2:
 3414 0000 00000000 		.word	.LC0
 3415 0004 00000000 		.word	USBTask_Run
 3416 0008 0200     		.short	2
 3417 000a 0000     		.space	2
 3418 000c 00000000 		.word	0
 3419 0010 00020000 		.word	512
 3420 0014 00000000 		.word	0
 3421 0018 00000000 		.word	0
ARM GAS  /tmp/ccrjRHai.s 			page 96


 3422              		.section	.bss.USBTaskHandle,"aw",%nobits
 3423              		.align	2
 3424              		.set	.LANCHOR11,. + 0
 3427              	USBTaskHandle:
 3428 0000 00000000 		.space	4
 3429              		.section	.bss.attitude_msg,"aw",%nobits
 3430              		.align	2
 3431              		.set	.LANCHOR2,. + 0
 3434              	attitude_msg:
 3435 0000 00000000 		.space	291
 3435      00000000 
 3435      00000000 
 3435      00000000 
 3435      00000000 
 3436              		.section	.bss.buf,"aw",%nobits
 3437              		.align	2
 3438              		.set	.LANCHOR4,. + 0
 3441              	buf:
 3442 0000 00000000 		.space	280
 3442      00000000 
 3442      00000000 
 3442      00000000 
 3442      00000000 
 3443              		.section	.bss.heart_beat,"aw",%nobits
 3444              		.align	2
 3445              		.set	.LANCHOR1,. + 0
 3448              	heart_beat:
 3449 0000 00000000 		.space	291
 3449      00000000 
 3449      00000000 
 3449      00000000 
 3449      00000000 
 3450              		.section	.bss.len,"aw",%nobits
 3451              		.align	1
 3452              		.set	.LANCHOR5,. + 0
 3455              	len:
 3456 0000 0000     		.space	2
 3457              		.section	.bss.m_mavlink_status.0,"aw",%nobits
 3458              		.align	2
 3459              		.set	.LANCHOR3,. + 0
 3462              	m_mavlink_status.0:
 3463 0000 00000000 		.space	96
 3463      00000000 
 3463      00000000 
 3463      00000000 
 3463      00000000 
 3464              		.section	.bss.xIdleStack,"aw",%nobits
 3465              		.align	2
 3466              		.set	.LANCHOR7,. + 0
 3469              	xIdleStack:
 3470 0000 00000000 		.space	512
 3470      00000000 
 3470      00000000 
 3470      00000000 
 3470      00000000 
 3471              		.section	.bss.xIdleTaskTCBBuffer,"aw",%nobits
 3472              		.align	3
ARM GAS  /tmp/ccrjRHai.s 			page 97


 3473              		.set	.LANCHOR6,. + 0
 3476              	xIdleTaskTCBBuffer:
 3477 0000 00000000 		.space	1160
 3477      00000000 
 3477      00000000 
 3477      00000000 
 3477      00000000 
 3478              		.section	.bss.xTimerStack,"aw",%nobits
 3479              		.align	2
 3480              		.set	.LANCHOR9,. + 0
 3483              	xTimerStack:
 3484 0000 00000000 		.space	1024
 3484      00000000 
 3484      00000000 
 3484      00000000 
 3484      00000000 
 3485              		.section	.bss.xTimerTaskTCBBuffer,"aw",%nobits
 3486              		.align	3
 3487              		.set	.LANCHOR8,. + 0
 3490              	xTimerTaskTCBBuffer:
 3491 0000 00000000 		.space	1160
 3491      00000000 
 3491      00000000 
 3491      00000000 
 3491      00000000 
 3492              		.section	.rodata.mavlink_sha256_constant_256,"a"
 3493              		.align	2
 3494              		.set	.LANCHOR0,. + 0
 3497              	mavlink_sha256_constant_256:
 3498 0000 982F8A42 		.word	1116352408
 3499 0004 91443771 		.word	1899447441
 3500 0008 CFFBC0B5 		.word	-1245643825
 3501 000c A5DBB5E9 		.word	-373957723
 3502 0010 5BC25639 		.word	961987163
 3503 0014 F111F159 		.word	1508970993
 3504 0018 A4823F92 		.word	-1841331548
 3505 001c D55E1CAB 		.word	-1424204075
 3506 0020 98AA07D8 		.word	-670586216
 3507 0024 015B8312 		.word	310598401
 3508 0028 BE853124 		.word	607225278
 3509 002c C37D0C55 		.word	1426881987
 3510 0030 745DBE72 		.word	1925078388
 3511 0034 FEB1DE80 		.word	-2132889090
 3512 0038 A706DC9B 		.word	-1680079193
 3513 003c 74F19BC1 		.word	-1046744716
 3514 0040 C1699BE4 		.word	-459576895
 3515 0044 8647BEEF 		.word	-272742522
 3516 0048 C69DC10F 		.word	264347078
 3517 004c CCA10C24 		.word	604807628
 3518 0050 6F2CE92D 		.word	770255983
 3519 0054 AA84744A 		.word	1249150122
 3520 0058 DCA9B05C 		.word	1555081692
 3521 005c DA88F976 		.word	1996064986
 3522 0060 52513E98 		.word	-1740746414
 3523 0064 6DC631A8 		.word	-1473132947
 3524 0068 C82703B0 		.word	-1341970488
 3525 006c C77F59BF 		.word	-1084653625
ARM GAS  /tmp/ccrjRHai.s 			page 98


 3526 0070 F30BE0C6 		.word	-958395405
 3527 0074 4791A7D5 		.word	-710438585
 3528 0078 5163CA06 		.word	113926993
 3529 007c 67292914 		.word	338241895
 3530 0080 850AB727 		.word	666307205
 3531 0084 38211B2E 		.word	773529912
 3532 0088 FC6D2C4D 		.word	1294757372
 3533 008c 130D3853 		.word	1396182291
 3534 0090 54730A65 		.word	1695183700
 3535 0094 BB0A6A76 		.word	1986661051
 3536 0098 2EC9C281 		.word	-2117940946
 3537 009c 852C7292 		.word	-1838011259
 3538 00a0 A1E8BFA2 		.word	-1564481375
 3539 00a4 4B661AA8 		.word	-1474664885
 3540 00a8 708B4BC2 		.word	-1035236496
 3541 00ac A3516CC7 		.word	-949202525
 3542 00b0 19E892D1 		.word	-778901479
 3543 00b4 240699D6 		.word	-694614492
 3544 00b8 85350EF4 		.word	-200395387
 3545 00bc 70A06A10 		.word	275423344
 3546 00c0 16C1A419 		.word	430227734
 3547 00c4 086C371E 		.word	506948616
 3548 00c8 4C774827 		.word	659060556
 3549 00cc B5BCB034 		.word	883997877
 3550 00d0 B30C1C39 		.word	958139571
 3551 00d4 4AAAD84E 		.word	1322822218
 3552 00d8 4FCA9C5B 		.word	1537002063
 3553 00dc F36F2E68 		.word	1747873779
 3554 00e0 EE828F74 		.word	1955562222
 3555 00e4 6F63A578 		.word	2024104815
 3556 00e8 1478C884 		.word	-2067236844
 3557 00ec 0802C78C 		.word	-1933114872
 3558 00f0 FAFFBE90 		.word	-1866530822
 3559 00f4 EB6C50A4 		.word	-1538233109
 3560 00f8 F7A3F9BE 		.word	-1090935817
 3561 00fc F27871C6 		.word	-965641998
 3562              		.text
 3563              	.Letext0:
 3564              		.file 7 "/usr/share/gcc-arm-none-eabi-10.3-2021.10/arm-none-eabi/include/machine/_default_types.h"
 3565              		.file 8 "/usr/share/gcc-arm-none-eabi-10.3-2021.10/arm-none-eabi/include/sys/_stdint.h"
 3566              		.file 9 "Middlewares/Third_Party/FreeRTOS/Source/portable/GCC/ARM_CM4F/portmacro.h"
 3567              		.file 10 "/usr/share/gcc-arm-none-eabi-10.3-2021.10/lib/gcc/arm-none-eabi/10.3.1/include/stddef.h"
 3568              		.file 11 "/usr/share/gcc-arm-none-eabi-10.3-2021.10/arm-none-eabi/include/sys/_types.h"
 3569              		.file 12 "/usr/share/gcc-arm-none-eabi-10.3-2021.10/arm-none-eabi/include/sys/reent.h"
 3570              		.file 13 "/usr/share/gcc-arm-none-eabi-10.3-2021.10/arm-none-eabi/include/sys/lock.h"
 3571              		.file 14 "Middlewares/Third_Party/FreeRTOS/Source/include/FreeRTOS.h"
 3572              		.file 15 "Middlewares/Third_Party/FreeRTOS/Source/include/task.h"
 3573              		.file 16 "Drivers/STM32F4xx_HAL_Driver/Inc/stm32f4xx_ll_tim.h"
 3574              		.file 17 "Drivers/STM32F4xx_HAL_Driver/Inc/stm32f4xx_ll_dma.h"
 3575              		.file 18 "Middlewares/Third_Party/FreeRTOS/Source/CMSIS_RTOS/cmsis_os.h"
 3576              		.file 19 "App/Config/sensor_types.h"
 3577              		.file 20 "App/Config/filter_types.h"
 3578              		.file 21 "mavlink/minimal/../mavlink_types.h"
 3579              		.file 22 "mavlink/minimal/minimal.h"
 3580              		.file 23 "USB_DEVICE/App/usbd_cdc_if.h"
 3581              		.file 24 "Drivers/STM32F4xx_HAL_Driver/Inc/stm32f4xx_hal.h"
 3582              		.file 25 "App/Tasks/SensorTask.h"
ARM GAS  /tmp/ccrjRHai.s 			page 99


 3583              		.file 26 "<built-in>"
ARM GAS  /tmp/ccrjRHai.s 			page 100


DEFINED SYMBOLS
                            *ABS*:0000000000000000 freertos.c
     /tmp/ccrjRHai.s:17     .rodata.str1.4:0000000000000000 $d
     /tmp/ccrjRHai.s:24     .text.mavlink_sha256_calc:0000000000000000 $t
     /tmp/ccrjRHai.s:29     .text.mavlink_sha256_calc:0000000000000000 mavlink_sha256_calc
     /tmp/ccrjRHai.s:343    .text.mavlink_sha256_calc:000000000000014c $d
     /tmp/ccrjRHai.s:348    .text.mavlink_sign_packet:0000000000000000 $t
     /tmp/ccrjRHai.s:353    .text.mavlink_sign_packet:0000000000000000 mavlink_sign_packet
     /tmp/ccrjRHai.s:1223   .text.mavlink_sign_packet:00000000000002e0 $d
     /tmp/ccrjRHai.s:1238   .text.mavlink_sign_packet:00000000000002fc $t
     /tmp/ccrjRHai.s:1524   .text.USBTask_Run:0000000000000000 $t
     /tmp/ccrjRHai.s:1530   .text.USBTask_Run:0000000000000000 USBTask_Run
     /tmp/ccrjRHai.s:2393   .text.USBTask_Run:00000000000002b8 $d
     /tmp/ccrjRHai.s:2412   .text.USBTask_Run:00000000000002d0 $t
     /tmp/ccrjRHai.s:3245   .text.USBTask_Run:00000000000005a4 $d
     /tmp/ccrjRHai.s:3258   .text.vApplicationStackOverflowHook:0000000000000000 $t
     /tmp/ccrjRHai.s:3264   .text.vApplicationStackOverflowHook:0000000000000000 vApplicationStackOverflowHook
     /tmp/ccrjRHai.s:3278   .text.vApplicationGetIdleTaskMemory:0000000000000000 $t
     /tmp/ccrjRHai.s:3284   .text.vApplicationGetIdleTaskMemory:0000000000000000 vApplicationGetIdleTaskMemory
     /tmp/ccrjRHai.s:3309   .text.vApplicationGetIdleTaskMemory:0000000000000010 $d
     /tmp/ccrjRHai.s:3315   .text.vApplicationGetTimerTaskMemory:0000000000000000 $t
     /tmp/ccrjRHai.s:3321   .text.vApplicationGetTimerTaskMemory:0000000000000000 vApplicationGetTimerTaskMemory
     /tmp/ccrjRHai.s:3346   .text.vApplicationGetTimerTaskMemory:0000000000000010 $d
     /tmp/ccrjRHai.s:3352   .text.MX_FREERTOS_Init:0000000000000000 $t
     /tmp/ccrjRHai.s:3358   .text.MX_FREERTOS_Init:0000000000000000 MX_FREERTOS_Init
     /tmp/ccrjRHai.s:3400   .text.MX_FREERTOS_Init:000000000000002c $d
     /tmp/ccrjRHai.s:3427   .bss.USBTaskHandle:0000000000000000 USBTaskHandle
     /tmp/ccrjRHai.s:3455   .bss.len:0000000000000000 len
     /tmp/ccrjRHai.s:3434   .bss.attitude_msg:0000000000000000 attitude_msg
     /tmp/ccrjRHai.s:3448   .bss.heart_beat:0000000000000000 heart_beat
     /tmp/ccrjRHai.s:3441   .bss.buf:0000000000000000 buf
     /tmp/ccrjRHai.s:3411   .rodata:0000000000000000 $d
     /tmp/ccrjRHai.s:3423   .bss.USBTaskHandle:0000000000000000 $d
     /tmp/ccrjRHai.s:3430   .bss.attitude_msg:0000000000000000 $d
     /tmp/ccrjRHai.s:3437   .bss.buf:0000000000000000 $d
     /tmp/ccrjRHai.s:3444   .bss.heart_beat:0000000000000000 $d
     /tmp/ccrjRHai.s:3451   .bss.len:0000000000000000 $d
     /tmp/ccrjRHai.s:3458   .bss.m_mavlink_status.0:0000000000000000 $d
     /tmp/ccrjRHai.s:3462   .bss.m_mavlink_status.0:0000000000000000 m_mavlink_status.0
     /tmp/ccrjRHai.s:3465   .bss.xIdleStack:0000000000000000 $d
     /tmp/ccrjRHai.s:3469   .bss.xIdleStack:0000000000000000 xIdleStack
     /tmp/ccrjRHai.s:3472   .bss.xIdleTaskTCBBuffer:0000000000000000 $d
     /tmp/ccrjRHai.s:3476   .bss.xIdleTaskTCBBuffer:0000000000000000 xIdleTaskTCBBuffer
     /tmp/ccrjRHai.s:3479   .bss.xTimerStack:0000000000000000 $d
     /tmp/ccrjRHai.s:3483   .bss.xTimerStack:0000000000000000 xTimerStack
     /tmp/ccrjRHai.s:3486   .bss.xTimerTaskTCBBuffer:0000000000000000 $d
     /tmp/ccrjRHai.s:3490   .bss.xTimerTaskTCBBuffer:0000000000000000 xTimerTaskTCBBuffer
     /tmp/ccrjRHai.s:3493   .rodata.mavlink_sha256_constant_256:0000000000000000 $d
     /tmp/ccrjRHai.s:3497   .rodata.mavlink_sha256_constant_256:0000000000000000 mavlink_sha256_constant_256

UNDEFINED SYMBOLS
memcpy
memset
MX_USB_DEVICE_Init
HAL_GetTick
CDC_Transmit_FS
osDelay
ARM GAS  /tmp/ccrjRHai.s 			page 101


SensorTask_GetIMU
SensorTask_GetBaro
SensorTask_GetAttitude
osThreadCreate
SensorTask_Init
