ARM GAS  /tmp/ccNouMZU.s 			page 1


   1              		.cpu cortex-m4
   2              		.arch armv7e-m
   3              		.fpu fpv4-sp-d16
   4              		.eabi_attribute 27, 1
   5              		.eabi_attribute 28, 1
   6              		.eabi_attribute 20, 1
   7              		.eabi_attribute 21, 1
   8              		.eabi_attribute 23, 3
   9              		.eabi_attribute 24, 1
  10              		.eabi_attribute 25, 1
  11              		.eabi_attribute 26, 1
  12              		.eabi_attribute 30, 1
  13              		.eabi_attribute 34, 1
  14              		.eabi_attribute 18, 4
  15              		.file	"freertos.c"
  16              		.section	.rodata.str1.4,"aMS",%progbits,1
  17              		.align	2
  18              	.LC0:
  19 0000 55534254 		.ascii	"USBTask\000"
  19      61736B00 
  20              		.text
  21              	.Ltext0:
  22              		.cfi_sections	.debug_frame
  23              		.section	.text.mavlink_sha256_calc,"ax",%progbits
  24              		.align	1
  25              		.syntax unified
  26              		.thumb
  27              		.thumb_func
  29              	mavlink_sha256_calc:
  30              	.LVL0:
  31              	.LFB760:
  32              		.file 1 "mavlink/minimal/../mavlink_sha256.h"
   1:mavlink/minimal/../mavlink_sha256.h **** #pragma once
   2:mavlink/minimal/../mavlink_sha256.h **** 
   3:mavlink/minimal/../mavlink_sha256.h **** /*
   4:mavlink/minimal/../mavlink_sha256.h ****   sha-256 implementation for MAVLink based on Heimdal sources, with
   5:mavlink/minimal/../mavlink_sha256.h ****   modifications to suit mavlink headers
   6:mavlink/minimal/../mavlink_sha256.h ****  */
   7:mavlink/minimal/../mavlink_sha256.h **** /*
   8:mavlink/minimal/../mavlink_sha256.h ****  * Copyright (c) 1995 - 2001 Kungliga Tekniska Högskolan
   9:mavlink/minimal/../mavlink_sha256.h ****  * (Royal Institute of Technology, Stockholm, Sweden).
  10:mavlink/minimal/../mavlink_sha256.h ****  * All rights reserved.
  11:mavlink/minimal/../mavlink_sha256.h ****  * 
  12:mavlink/minimal/../mavlink_sha256.h ****  * Redistribution and use in source and binary forms, with or without
  13:mavlink/minimal/../mavlink_sha256.h ****  * modification, are permitted provided that the following conditions
  14:mavlink/minimal/../mavlink_sha256.h ****  * are met:
  15:mavlink/minimal/../mavlink_sha256.h ****  * 
  16:mavlink/minimal/../mavlink_sha256.h ****  * 1. Redistributions of source code must retain the above copyright
  17:mavlink/minimal/../mavlink_sha256.h ****  *    notice, this list of conditions and the following disclaimer.
  18:mavlink/minimal/../mavlink_sha256.h ****  * 
  19:mavlink/minimal/../mavlink_sha256.h ****  * 2. Redistributions in binary form must reproduce the above copyright
  20:mavlink/minimal/../mavlink_sha256.h ****  *    notice, this list of conditions and the following disclaimer in the
  21:mavlink/minimal/../mavlink_sha256.h ****  *    documentation and/or other materials provided with the distribution.
  22:mavlink/minimal/../mavlink_sha256.h ****  * 
  23:mavlink/minimal/../mavlink_sha256.h ****  * 3. Neither the name of the Institute nor the names of its contributors
  24:mavlink/minimal/../mavlink_sha256.h ****  *    may be used to endorse or promote products derived from this software
  25:mavlink/minimal/../mavlink_sha256.h ****  *    without specific prior written permission.
ARM GAS  /tmp/ccNouMZU.s 			page 2


  26:mavlink/minimal/../mavlink_sha256.h ****  * 
  27:mavlink/minimal/../mavlink_sha256.h ****  * THIS SOFTWARE IS PROVIDED BY THE INSTITUTE AND CONTRIBUTORS ``AS IS'' AND
  28:mavlink/minimal/../mavlink_sha256.h ****  * ANY EXPRESS OR IMPLIED WARRANTIES, INCLUDING, BUT NOT LIMITED TO, THE
  29:mavlink/minimal/../mavlink_sha256.h ****  * IMPLIED WARRANTIES OF MERCHANTABILITY AND FITNESS FOR A PARTICULAR PURPOSE
  30:mavlink/minimal/../mavlink_sha256.h ****  * ARE DISCLAIMED.  IN NO EVENT SHALL THE INSTITUTE OR CONTRIBUTORS BE LIABLE
  31:mavlink/minimal/../mavlink_sha256.h ****  * FOR ANY DIRECT, INDIRECT, INCIDENTAL, SPECIAL, EXEMPLARY, OR CONSEQUENTIAL
  32:mavlink/minimal/../mavlink_sha256.h ****  * DAMAGES (INCLUDING, BUT NOT LIMITED TO, PROCUREMENT OF SUBSTITUTE GOODS
  33:mavlink/minimal/../mavlink_sha256.h ****  * OR SERVICES; LOSS OF USE, DATA, OR PROFITS; OR BUSINESS INTERRUPTION)
  34:mavlink/minimal/../mavlink_sha256.h ****  * HOWEVER CAUSED AND ON ANY THEORY OF LIABILITY, WHETHER IN CONTRACT, STRICT
  35:mavlink/minimal/../mavlink_sha256.h ****  * LIABILITY, OR TORT (INCLUDING NEGLIGENCE OR OTHERWISE) ARISING IN ANY WAY
  36:mavlink/minimal/../mavlink_sha256.h ****  * OUT OF THE USE OF THIS SOFTWARE, EVEN IF ADVISED OF THE POSSIBILITY OF
  37:mavlink/minimal/../mavlink_sha256.h ****  * SUCH DAMAGE.
  38:mavlink/minimal/../mavlink_sha256.h ****  */
  39:mavlink/minimal/../mavlink_sha256.h **** 
  40:mavlink/minimal/../mavlink_sha256.h **** /*
  41:mavlink/minimal/../mavlink_sha256.h ****   allow implementation to provide their own sha256 with the same API
  42:mavlink/minimal/../mavlink_sha256.h **** */
  43:mavlink/minimal/../mavlink_sha256.h **** #ifndef HAVE_MAVLINK_SHA256
  44:mavlink/minimal/../mavlink_sha256.h **** 
  45:mavlink/minimal/../mavlink_sha256.h **** #ifdef MAVLINK_USE_CXX_NAMESPACE
  46:mavlink/minimal/../mavlink_sha256.h **** namespace mavlink {
  47:mavlink/minimal/../mavlink_sha256.h **** #endif
  48:mavlink/minimal/../mavlink_sha256.h **** 
  49:mavlink/minimal/../mavlink_sha256.h **** #ifndef MAVLINK_HELPER
  50:mavlink/minimal/../mavlink_sha256.h **** #define MAVLINK_HELPER
  51:mavlink/minimal/../mavlink_sha256.h **** #endif
  52:mavlink/minimal/../mavlink_sha256.h **** 
  53:mavlink/minimal/../mavlink_sha256.h **** typedef struct {
  54:mavlink/minimal/../mavlink_sha256.h ****   uint32_t sz[2];
  55:mavlink/minimal/../mavlink_sha256.h ****   uint32_t counter[8];
  56:mavlink/minimal/../mavlink_sha256.h ****   union {
  57:mavlink/minimal/../mavlink_sha256.h ****       unsigned char save_bytes[64];
  58:mavlink/minimal/../mavlink_sha256.h ****       uint32_t save_u32[16];
  59:mavlink/minimal/../mavlink_sha256.h ****   } u;
  60:mavlink/minimal/../mavlink_sha256.h **** } mavlink_sha256_ctx;
  61:mavlink/minimal/../mavlink_sha256.h **** 
  62:mavlink/minimal/../mavlink_sha256.h **** #define Ch(x,y,z) (((x) & (y)) ^ ((~(x)) & (z)))
  63:mavlink/minimal/../mavlink_sha256.h **** #define Maj(x,y,z) (((x) & (y)) ^ ((x) & (z)) ^ ((y) & (z)))
  64:mavlink/minimal/../mavlink_sha256.h **** 
  65:mavlink/minimal/../mavlink_sha256.h **** #define ROTR(x,n)   (((x)>>(n)) | ((x) << (32 - (n))))
  66:mavlink/minimal/../mavlink_sha256.h **** 
  67:mavlink/minimal/../mavlink_sha256.h **** #define Sigma0(x)	(ROTR(x,2)  ^ ROTR(x,13) ^ ROTR(x,22))
  68:mavlink/minimal/../mavlink_sha256.h **** #define Sigma1(x)	(ROTR(x,6)  ^ ROTR(x,11) ^ ROTR(x,25))
  69:mavlink/minimal/../mavlink_sha256.h **** #define sigma0(x)	(ROTR(x,7)  ^ ROTR(x,18) ^ ((x)>>3))
  70:mavlink/minimal/../mavlink_sha256.h **** #define sigma1(x)	(ROTR(x,17) ^ ROTR(x,19) ^ ((x)>>10))
  71:mavlink/minimal/../mavlink_sha256.h **** 
  72:mavlink/minimal/../mavlink_sha256.h **** static const uint32_t mavlink_sha256_constant_256[64] = {
  73:mavlink/minimal/../mavlink_sha256.h ****     0x428a2f98, 0x71374491, 0xb5c0fbcf, 0xe9b5dba5,
  74:mavlink/minimal/../mavlink_sha256.h ****     0x3956c25b, 0x59f111f1, 0x923f82a4, 0xab1c5ed5,
  75:mavlink/minimal/../mavlink_sha256.h ****     0xd807aa98, 0x12835b01, 0x243185be, 0x550c7dc3,
  76:mavlink/minimal/../mavlink_sha256.h ****     0x72be5d74, 0x80deb1fe, 0x9bdc06a7, 0xc19bf174,
  77:mavlink/minimal/../mavlink_sha256.h ****     0xe49b69c1, 0xefbe4786, 0x0fc19dc6, 0x240ca1cc,
  78:mavlink/minimal/../mavlink_sha256.h ****     0x2de92c6f, 0x4a7484aa, 0x5cb0a9dc, 0x76f988da,
  79:mavlink/minimal/../mavlink_sha256.h ****     0x983e5152, 0xa831c66d, 0xb00327c8, 0xbf597fc7,
  80:mavlink/minimal/../mavlink_sha256.h ****     0xc6e00bf3, 0xd5a79147, 0x06ca6351, 0x14292967,
  81:mavlink/minimal/../mavlink_sha256.h ****     0x27b70a85, 0x2e1b2138, 0x4d2c6dfc, 0x53380d13,
  82:mavlink/minimal/../mavlink_sha256.h ****     0x650a7354, 0x766a0abb, 0x81c2c92e, 0x92722c85,
ARM GAS  /tmp/ccNouMZU.s 			page 3


  83:mavlink/minimal/../mavlink_sha256.h ****     0xa2bfe8a1, 0xa81a664b, 0xc24b8b70, 0xc76c51a3,
  84:mavlink/minimal/../mavlink_sha256.h ****     0xd192e819, 0xd6990624, 0xf40e3585, 0x106aa070,
  85:mavlink/minimal/../mavlink_sha256.h ****     0x19a4c116, 0x1e376c08, 0x2748774c, 0x34b0bcb5,
  86:mavlink/minimal/../mavlink_sha256.h ****     0x391c0cb3, 0x4ed8aa4a, 0x5b9cca4f, 0x682e6ff3,
  87:mavlink/minimal/../mavlink_sha256.h ****     0x748f82ee, 0x78a5636f, 0x84c87814, 0x8cc70208,
  88:mavlink/minimal/../mavlink_sha256.h ****     0x90befffa, 0xa4506ceb, 0xbef9a3f7, 0xc67178f2
  89:mavlink/minimal/../mavlink_sha256.h **** };
  90:mavlink/minimal/../mavlink_sha256.h **** 
  91:mavlink/minimal/../mavlink_sha256.h **** MAVLINK_HELPER void mavlink_sha256_init(mavlink_sha256_ctx *m)
  92:mavlink/minimal/../mavlink_sha256.h **** {
  93:mavlink/minimal/../mavlink_sha256.h ****     m->sz[0] = 0;
  94:mavlink/minimal/../mavlink_sha256.h ****     m->sz[1] = 0;
  95:mavlink/minimal/../mavlink_sha256.h ****     m->counter[0] = 0x6a09e667;
  96:mavlink/minimal/../mavlink_sha256.h ****     m->counter[1] = 0xbb67ae85;
  97:mavlink/minimal/../mavlink_sha256.h ****     m->counter[2] = 0x3c6ef372;
  98:mavlink/minimal/../mavlink_sha256.h ****     m->counter[3] = 0xa54ff53a;
  99:mavlink/minimal/../mavlink_sha256.h ****     m->counter[4] = 0x510e527f;
 100:mavlink/minimal/../mavlink_sha256.h ****     m->counter[5] = 0x9b05688c;
 101:mavlink/minimal/../mavlink_sha256.h ****     m->counter[6] = 0x1f83d9ab;
 102:mavlink/minimal/../mavlink_sha256.h ****     m->counter[7] = 0x5be0cd19;
 103:mavlink/minimal/../mavlink_sha256.h **** }
 104:mavlink/minimal/../mavlink_sha256.h **** 
 105:mavlink/minimal/../mavlink_sha256.h **** static inline void mavlink_sha256_calc(mavlink_sha256_ctx *m, uint32_t *in)
 106:mavlink/minimal/../mavlink_sha256.h **** {
  33              		.loc 1 106 1 view -0
  34              		.cfi_startproc
  35              		@ args = 0, pretend = 0, frame = 288
  36              		@ frame_needed = 0, uses_anonymous_args = 0
  37              		.loc 1 106 1 is_stmt 0 view .LVU1
  38 0000 2DE9F04F 		push	{r4, r5, r6, r7, r8, r9, r10, fp, lr}
  39              	.LCFI0:
  40              		.cfi_def_cfa_offset 36
  41              		.cfi_offset 4, -36
  42              		.cfi_offset 5, -32
  43              		.cfi_offset 6, -28
  44              		.cfi_offset 7, -24
  45              		.cfi_offset 8, -20
  46              		.cfi_offset 9, -16
  47              		.cfi_offset 10, -12
  48              		.cfi_offset 11, -8
  49              		.cfi_offset 14, -4
  50 0004 C9B0     		sub	sp, sp, #292
  51              	.LCFI1:
  52              		.cfi_def_cfa_offset 328
  53 0006 8246     		mov	r10, r0
 107:mavlink/minimal/../mavlink_sha256.h ****     uint32_t AA, BB, CC, DD, EE, FF, GG, HH;
  54              		.loc 1 107 5 is_stmt 1 view .LVU2
 108:mavlink/minimal/../mavlink_sha256.h ****     uint32_t data[64];
  55              		.loc 1 108 5 view .LVU3
 109:mavlink/minimal/../mavlink_sha256.h ****     int i;
  56              		.loc 1 109 5 view .LVU4
 110:mavlink/minimal/../mavlink_sha256.h **** 
 111:mavlink/minimal/../mavlink_sha256.h ****     AA = m->counter[0];
  57              		.loc 1 111 5 view .LVU5
  58              		.loc 1 111 8 is_stmt 0 view .LVU6
  59 0008 D0F808B0 		ldr	fp, [r0, #8]
  60              	.LVL1:
ARM GAS  /tmp/ccNouMZU.s 			page 4


 112:mavlink/minimal/../mavlink_sha256.h ****     BB = m->counter[1];
  61              		.loc 1 112 5 is_stmt 1 view .LVU7
  62              		.loc 1 112 8 is_stmt 0 view .LVU8
  63 000c C368     		ldr	r3, [r0, #12]
  64 000e 0193     		str	r3, [sp, #4]
  65              	.LVL2:
 113:mavlink/minimal/../mavlink_sha256.h ****     CC = m->counter[2];
  66              		.loc 1 113 5 is_stmt 1 view .LVU9
  67              		.loc 1 113 8 is_stmt 0 view .LVU10
  68 0010 0369     		ldr	r3, [r0, #16]
  69              	.LVL3:
  70              		.loc 1 113 8 view .LVU11
  71 0012 0293     		str	r3, [sp, #8]
  72              	.LVL4:
 114:mavlink/minimal/../mavlink_sha256.h ****     DD = m->counter[3];
  73              		.loc 1 114 5 is_stmt 1 view .LVU12
  74              		.loc 1 114 8 is_stmt 0 view .LVU13
  75 0014 4369     		ldr	r3, [r0, #20]
  76              	.LVL5:
  77              		.loc 1 114 8 view .LVU14
  78 0016 0393     		str	r3, [sp, #12]
  79              	.LVL6:
 115:mavlink/minimal/../mavlink_sha256.h ****     EE = m->counter[4];
  80              		.loc 1 115 5 is_stmt 1 view .LVU15
  81              		.loc 1 115 8 is_stmt 0 view .LVU16
  82 0018 8369     		ldr	r3, [r0, #24]
  83              	.LVL7:
  84              		.loc 1 115 8 view .LVU17
  85 001a 0493     		str	r3, [sp, #16]
  86              	.LVL8:
 116:mavlink/minimal/../mavlink_sha256.h ****     FF = m->counter[5];
  87              		.loc 1 116 5 is_stmt 1 view .LVU18
  88              		.loc 1 116 8 is_stmt 0 view .LVU19
  89 001c C369     		ldr	r3, [r0, #28]
  90              	.LVL9:
  91              		.loc 1 116 8 view .LVU20
  92 001e 0593     		str	r3, [sp, #20]
  93              	.LVL10:
 117:mavlink/minimal/../mavlink_sha256.h ****     GG = m->counter[6];
  94              		.loc 1 117 5 is_stmt 1 view .LVU21
  95              		.loc 1 117 8 is_stmt 0 view .LVU22
  96 0020 036A     		ldr	r3, [r0, #32]
  97              	.LVL11:
  98              		.loc 1 117 8 view .LVU23
  99 0022 0693     		str	r3, [sp, #24]
 100              	.LVL12:
 118:mavlink/minimal/../mavlink_sha256.h ****     HH = m->counter[7];
 101              		.loc 1 118 5 is_stmt 1 view .LVU24
 102              		.loc 1 118 8 is_stmt 0 view .LVU25
 103 0024 436A     		ldr	r3, [r0, #36]
 104              	.LVL13:
 105              		.loc 1 118 8 view .LVU26
 106 0026 0793     		str	r3, [sp, #28]
 107              	.LVL14:
 119:mavlink/minimal/../mavlink_sha256.h **** 
 120:mavlink/minimal/../mavlink_sha256.h ****     for (i = 0; i < 16; ++i)
 108              		.loc 1 120 5 is_stmt 1 view .LVU27
ARM GAS  /tmp/ccNouMZU.s 			page 5


 109              		.loc 1 120 12 is_stmt 0 view .LVU28
 110 0028 0022     		movs	r2, #0
 111              		.loc 1 120 5 view .LVU29
 112 002a 05E0     		b	.L2
 113              	.LVL15:
 114              	.L3:
 121:mavlink/minimal/../mavlink_sha256.h **** 	data[i] = in[i];
 115              		.loc 1 121 2 is_stmt 1 discriminator 3 view .LVU30
 116              		.loc 1 121 14 is_stmt 0 discriminator 3 view .LVU31
 117 002c 51F82230 		ldr	r3, [r1, r2, lsl #2]
 118              		.loc 1 121 10 discriminator 3 view .LVU32
 119 0030 08A8     		add	r0, sp, #32
 120 0032 40F82230 		str	r3, [r0, r2, lsl #2]
 120:mavlink/minimal/../mavlink_sha256.h **** 	data[i] = in[i];
 121              		.loc 1 120 25 is_stmt 1 discriminator 3 view .LVU33
 122 0036 0132     		adds	r2, r2, #1
 123              	.LVL16:
 124              	.L2:
 120:mavlink/minimal/../mavlink_sha256.h **** 	data[i] = in[i];
 125              		.loc 1 120 17 discriminator 1 view .LVU34
 120:mavlink/minimal/../mavlink_sha256.h **** 	data[i] = in[i];
 126              		.loc 1 120 5 is_stmt 0 discriminator 1 view .LVU35
 127 0038 0F2A     		cmp	r2, #15
 128 003a F7DD     		ble	.L3
 122:mavlink/minimal/../mavlink_sha256.h ****     for (i = 16; i < 64; ++i)
 129              		.loc 1 122 12 view .LVU36
 130 003c 1022     		movs	r2, #16
 131              	.LVL17:
 132              		.loc 1 122 12 view .LVU37
 133 003e 22E0     		b	.L4
 134              	.LVL18:
 135              	.L5:
 123:mavlink/minimal/../mavlink_sha256.h **** 	data[i] = sigma1(data[i-2]) + data[i-7] + 
 136              		.loc 1 123 2 is_stmt 1 discriminator 3 view .LVU38
 137              		.loc 1 123 12 is_stmt 0 discriminator 3 view .LVU39
 138 0040 931E     		subs	r3, r2, #2
 139 0042 08A9     		add	r1, sp, #32
 140 0044 51F82310 		ldr	r1, [r1, r3, lsl #2]
 141 0048 4FEAF143 		ror	r3, r1, #19
 142 004c 83EA7143 		eor	r3, r3, r1, ror #17
 143 0050 83EA9123 		eor	r3, r3, r1, lsr #10
 144              		.loc 1 123 38 discriminator 3 view .LVU40
 145 0054 D11F     		subs	r1, r2, #7
 146              		.loc 1 123 36 discriminator 3 view .LVU41
 147 0056 08A8     		add	r0, sp, #32
 148 0058 50F82110 		ldr	r1, [r0, r1, lsl #2]
 149              		.loc 1 123 30 discriminator 3 view .LVU42
 150 005c 0B44     		add	r3, r3, r1
 124:mavlink/minimal/../mavlink_sha256.h **** 	    sigma0(data[i-15]) + data[i - 16];
 151              		.loc 1 124 6 discriminator 3 view .LVU43
 152 005e A2F10F01 		sub	r1, r2, #15
 153 0062 50F82100 		ldr	r0, [r0, r1, lsl #2]
 154 0066 4FEAB041 		ror	r1, r0, #18
 155 006a 81EAF011 		eor	r1, r1, r0, ror #7
 156 006e 81EAD001 		eor	r1, r1, r0, lsr #3
 123:mavlink/minimal/../mavlink_sha256.h **** 	data[i] = sigma1(data[i-2]) + data[i-7] + 
 157              		.loc 1 123 42 discriminator 3 view .LVU44
ARM GAS  /tmp/ccNouMZU.s 			page 6


 158 0072 0B44     		add	r3, r3, r1
 159              		.loc 1 124 34 discriminator 3 view .LVU45
 160 0074 A2F11001 		sub	r1, r2, #16
 161              		.loc 1 124 31 discriminator 3 view .LVU46
 162 0078 08A8     		add	r0, sp, #32
 163 007a 50F82110 		ldr	r1, [r0, r1, lsl #2]
 164              		.loc 1 124 25 discriminator 3 view .LVU47
 165 007e 0B44     		add	r3, r3, r1
 123:mavlink/minimal/../mavlink_sha256.h **** 	data[i] = sigma1(data[i-2]) + data[i-7] + 
 166              		.loc 1 123 10 discriminator 3 view .LVU48
 167 0080 40F82230 		str	r3, [r0, r2, lsl #2]
 122:mavlink/minimal/../mavlink_sha256.h ****     for (i = 16; i < 64; ++i)
 168              		.loc 1 122 26 is_stmt 1 discriminator 3 view .LVU49
 169 0084 0132     		adds	r2, r2, #1
 170              	.LVL19:
 171              	.L4:
 122:mavlink/minimal/../mavlink_sha256.h ****     for (i = 16; i < 64; ++i)
 172              		.loc 1 122 18 discriminator 1 view .LVU50
 122:mavlink/minimal/../mavlink_sha256.h ****     for (i = 16; i < 64; ++i)
 173              		.loc 1 122 5 is_stmt 0 discriminator 1 view .LVU51
 174 0086 3F2A     		cmp	r2, #63
 175 0088 DADD     		ble	.L5
 118:mavlink/minimal/../mavlink_sha256.h **** 
 176              		.loc 1 118 8 view .LVU52
 177 008a DDF81CE0 		ldr	lr, [sp, #28]
 117:mavlink/minimal/../mavlink_sha256.h ****     HH = m->counter[7];
 178              		.loc 1 117 8 view .LVU53
 179 008e 069E     		ldr	r6, [sp, #24]
 116:mavlink/minimal/../mavlink_sha256.h ****     GG = m->counter[6];
 180              		.loc 1 116 8 view .LVU54
 181 0090 059F     		ldr	r7, [sp, #20]
 115:mavlink/minimal/../mavlink_sha256.h ****     FF = m->counter[5];
 182              		.loc 1 115 8 view .LVU55
 183 0092 049A     		ldr	r2, [sp, #16]
 184              	.LVL20:
 114:mavlink/minimal/../mavlink_sha256.h ****     EE = m->counter[4];
 185              		.loc 1 114 8 view .LVU56
 186 0094 DDF80C80 		ldr	r8, [sp, #12]
 113:mavlink/minimal/../mavlink_sha256.h ****     DD = m->counter[3];
 187              		.loc 1 113 8 view .LVU57
 188 0098 029C     		ldr	r4, [sp, #8]
 112:mavlink/minimal/../mavlink_sha256.h ****     CC = m->counter[2];
 189              		.loc 1 112 8 view .LVU58
 190 009a 019D     		ldr	r5, [sp, #4]
 111:mavlink/minimal/../mavlink_sha256.h ****     BB = m->counter[1];
 191              		.loc 1 111 8 view .LVU59
 192 009c DC46     		mov	ip, fp
 125:mavlink/minimal/../mavlink_sha256.h **** 
 126:mavlink/minimal/../mavlink_sha256.h ****     for (i = 0; i < 64; i++) {
 193              		.loc 1 126 12 view .LVU60
 194 009e 0020     		movs	r0, #0
 195 00a0 2FE0     		b	.L6
 196              	.LVL21:
 197              	.L7:
 198              	.LBB20:
 127:mavlink/minimal/../mavlink_sha256.h **** 	uint32_t T1, T2;
 199              		.loc 1 127 2 is_stmt 1 discriminator 3 view .LVU61
ARM GAS  /tmp/ccNouMZU.s 			page 7


 128:mavlink/minimal/../mavlink_sha256.h **** 
 129:mavlink/minimal/../mavlink_sha256.h **** 	T1 = HH + Sigma1(EE) + Ch(EE, FF, GG) + mavlink_sha256_constant_256[i] + data[i];
 200              		.loc 1 129 2 discriminator 3 view .LVU62
 201              		.loc 1 129 12 is_stmt 0 discriminator 3 view .LVU63
 202 00a2 4FEAF223 		ror	r3, r2, #11
 203 00a6 83EAB213 		eor	r3, r3, r2, ror #6
 204 00aa 83EA7263 		eor	r3, r3, r2, ror #25
 205              		.loc 1 129 10 discriminator 3 view .LVU64
 206 00ae 7344     		add	r3, r3, lr
 207              		.loc 1 129 25 discriminator 3 view .LVU65
 208 00b0 02EA0701 		and	r1, r2, r7
 209 00b4 26EA020E 		bic	lr, r6, r2
 210              	.LVL22:
 211              		.loc 1 129 25 discriminator 3 view .LVU66
 212 00b8 81EA0E01 		eor	r1, r1, lr
 213              		.loc 1 129 23 discriminator 3 view .LVU67
 214 00bc 0B44     		add	r3, r3, r1
 215              		.loc 1 129 69 discriminator 3 view .LVU68
 216 00be 2349     		ldr	r1, .L9
 217 00c0 51F82010 		ldr	r1, [r1, r0, lsl #2]
 218              		.loc 1 129 40 discriminator 3 view .LVU69
 219 00c4 0B44     		add	r3, r3, r1
 220              		.loc 1 129 79 discriminator 3 view .LVU70
 221 00c6 08A9     		add	r1, sp, #32
 222 00c8 51F82010 		ldr	r1, [r1, r0, lsl #2]
 223              		.loc 1 129 5 discriminator 3 view .LVU71
 224 00cc 0B44     		add	r3, r3, r1
 225              	.LVL23:
 130:mavlink/minimal/../mavlink_sha256.h **** 	T2 = Sigma0(AA) + Maj(AA,BB,CC);
 226              		.loc 1 130 2 is_stmt 1 discriminator 3 view .LVU72
 227              		.loc 1 130 7 is_stmt 0 discriminator 3 view .LVU73
 228 00ce 4FEA7C31 		ror	r1, ip, #13
 229 00d2 81EABC01 		eor	r1, r1, ip, ror #2
 230 00d6 81EABC51 		eor	r1, r1, ip, ror #22
 231              		.loc 1 130 20 discriminator 3 view .LVU74
 232 00da 85EA040E 		eor	lr, r5, r4
 233 00de 0EEA0C0E 		and	lr, lr, ip
 234 00e2 05EA0409 		and	r9, r5, r4
 235 00e6 8EEA090E 		eor	lr, lr, r9
 236              		.loc 1 130 5 discriminator 3 view .LVU75
 237 00ea 7144     		add	r1, r1, lr
 238              	.LVL24:
 131:mavlink/minimal/../mavlink_sha256.h **** 			     
 132:mavlink/minimal/../mavlink_sha256.h **** 	HH = GG;
 239              		.loc 1 132 2 is_stmt 1 discriminator 3 view .LVU76
 133:mavlink/minimal/../mavlink_sha256.h **** 	GG = FF;
 240              		.loc 1 133 2 discriminator 3 view .LVU77
 134:mavlink/minimal/../mavlink_sha256.h **** 	FF = EE;
 241              		.loc 1 134 2 discriminator 3 view .LVU78
 135:mavlink/minimal/../mavlink_sha256.h **** 	EE = DD + T1;
 242              		.loc 1 135 2 discriminator 3 view .LVU79
 136:mavlink/minimal/../mavlink_sha256.h **** 	DD = CC;
 243              		.loc 1 136 2 discriminator 3 view .LVU80
 137:mavlink/minimal/../mavlink_sha256.h **** 	CC = BB;
 244              		.loc 1 137 2 discriminator 3 view .LVU81
 138:mavlink/minimal/../mavlink_sha256.h **** 	BB = AA;
 245              		.loc 1 138 2 discriminator 3 view .LVU82
ARM GAS  /tmp/ccNouMZU.s 			page 8


 139:mavlink/minimal/../mavlink_sha256.h **** 	AA = T1 + T2;
 246              		.loc 1 139 2 discriminator 3 view .LVU83
 247              		.loc 1 139 2 is_stmt 0 discriminator 3 view .LVU84
 248              	.LBE20:
 126:mavlink/minimal/../mavlink_sha256.h **** 	uint32_t T1, T2;
 249              		.loc 1 126 25 is_stmt 1 discriminator 3 view .LVU85
 126:mavlink/minimal/../mavlink_sha256.h **** 	uint32_t T1, T2;
 250              		.loc 1 126 26 is_stmt 0 discriminator 3 view .LVU86
 251 00ec 0130     		adds	r0, r0, #1
 252              	.LVL25:
 253              	.LBB21:
 132:mavlink/minimal/../mavlink_sha256.h **** 	GG = FF;
 254              		.loc 1 132 5 discriminator 3 view .LVU87
 255 00ee B646     		mov	lr, r6
 133:mavlink/minimal/../mavlink_sha256.h **** 	FF = EE;
 256              		.loc 1 133 5 discriminator 3 view .LVU88
 257 00f0 3E46     		mov	r6, r7
 258              	.LVL26:
 134:mavlink/minimal/../mavlink_sha256.h **** 	EE = DD + T1;
 259              		.loc 1 134 5 discriminator 3 view .LVU89
 260 00f2 1746     		mov	r7, r2
 261              	.LVL27:
 135:mavlink/minimal/../mavlink_sha256.h **** 	DD = CC;
 262              		.loc 1 135 5 discriminator 3 view .LVU90
 263 00f4 08EB0302 		add	r2, r8, r3
 264              	.LVL28:
 136:mavlink/minimal/../mavlink_sha256.h **** 	CC = BB;
 265              		.loc 1 136 5 discriminator 3 view .LVU91
 266 00f8 A046     		mov	r8, r4
 137:mavlink/minimal/../mavlink_sha256.h **** 	BB = AA;
 267              		.loc 1 137 5 discriminator 3 view .LVU92
 268 00fa 2C46     		mov	r4, r5
 269              	.LVL29:
 138:mavlink/minimal/../mavlink_sha256.h **** 	AA = T1 + T2;
 270              		.loc 1 138 5 discriminator 3 view .LVU93
 271 00fc 6546     		mov	r5, ip
 272              	.LVL30:
 273              		.loc 1 139 5 discriminator 3 view .LVU94
 274 00fe 03EB010C 		add	ip, r3, r1
 275              	.LVL31:
 276              	.L6:
 277              		.loc 1 139 5 discriminator 3 view .LVU95
 278              	.LBE21:
 126:mavlink/minimal/../mavlink_sha256.h **** 	uint32_t T1, T2;
 279              		.loc 1 126 17 is_stmt 1 discriminator 1 view .LVU96
 126:mavlink/minimal/../mavlink_sha256.h **** 	uint32_t T1, T2;
 280              		.loc 1 126 5 is_stmt 0 discriminator 1 view .LVU97
 281 0102 3F28     		cmp	r0, #63
 282 0104 CDDD     		ble	.L7
 140:mavlink/minimal/../mavlink_sha256.h ****     }
 141:mavlink/minimal/../mavlink_sha256.h **** 
 142:mavlink/minimal/../mavlink_sha256.h ****     m->counter[0] += AA;
 283              		.loc 1 142 5 is_stmt 1 view .LVU98
 284              		.loc 1 142 19 is_stmt 0 view .LVU99
 285 0106 0CEB0B03 		add	r3, ip, fp
 286 010a CAF80830 		str	r3, [r10, #8]
 143:mavlink/minimal/../mavlink_sha256.h ****     m->counter[1] += BB;
ARM GAS  /tmp/ccNouMZU.s 			page 9


 287              		.loc 1 143 5 is_stmt 1 view .LVU100
 288              		.loc 1 143 19 is_stmt 0 view .LVU101
 289 010e 019B     		ldr	r3, [sp, #4]
 290 0110 1D44     		add	r5, r5, r3
 291              	.LVL32:
 292              		.loc 1 143 19 view .LVU102
 293 0112 CAF80C50 		str	r5, [r10, #12]
 144:mavlink/minimal/../mavlink_sha256.h ****     m->counter[2] += CC;
 294              		.loc 1 144 5 is_stmt 1 view .LVU103
 295              		.loc 1 144 19 is_stmt 0 view .LVU104
 296 0116 029B     		ldr	r3, [sp, #8]
 297 0118 1C44     		add	r4, r4, r3
 298              	.LVL33:
 299              		.loc 1 144 19 view .LVU105
 300 011a CAF81040 		str	r4, [r10, #16]
 145:mavlink/minimal/../mavlink_sha256.h ****     m->counter[3] += DD;
 301              		.loc 1 145 5 is_stmt 1 view .LVU106
 302              		.loc 1 145 19 is_stmt 0 view .LVU107
 303 011e 039B     		ldr	r3, [sp, #12]
 304 0120 4344     		add	r3, r3, r8
 305 0122 CAF81430 		str	r3, [r10, #20]
 146:mavlink/minimal/../mavlink_sha256.h ****     m->counter[4] += EE;
 306              		.loc 1 146 5 is_stmt 1 view .LVU108
 307              		.loc 1 146 19 is_stmt 0 view .LVU109
 308 0126 049B     		ldr	r3, [sp, #16]
 309 0128 1A44     		add	r2, r2, r3
 310              	.LVL34:
 311              		.loc 1 146 19 view .LVU110
 312 012a CAF81820 		str	r2, [r10, #24]
 147:mavlink/minimal/../mavlink_sha256.h ****     m->counter[5] += FF;
 313              		.loc 1 147 5 is_stmt 1 view .LVU111
 314              		.loc 1 147 19 is_stmt 0 view .LVU112
 315 012e 059B     		ldr	r3, [sp, #20]
 316 0130 1F44     		add	r7, r7, r3
 317              	.LVL35:
 318              		.loc 1 147 19 view .LVU113
 319 0132 CAF81C70 		str	r7, [r10, #28]
 148:mavlink/minimal/../mavlink_sha256.h ****     m->counter[6] += GG;
 320              		.loc 1 148 5 is_stmt 1 view .LVU114
 321              		.loc 1 148 19 is_stmt 0 view .LVU115
 322 0136 069B     		ldr	r3, [sp, #24]
 323 0138 1E44     		add	r6, r6, r3
 324              	.LVL36:
 325              		.loc 1 148 19 view .LVU116
 326 013a CAF82060 		str	r6, [r10, #32]
 149:mavlink/minimal/../mavlink_sha256.h ****     m->counter[7] += HH;
 327              		.loc 1 149 5 is_stmt 1 view .LVU117
 328              		.loc 1 149 19 is_stmt 0 view .LVU118
 329 013e 079B     		ldr	r3, [sp, #28]
 330 0140 7344     		add	r3, r3, lr
 331 0142 CAF82430 		str	r3, [r10, #36]
 150:mavlink/minimal/../mavlink_sha256.h **** }
 332              		.loc 1 150 1 view .LVU119
 333 0146 49B0     		add	sp, sp, #292
 334              	.LCFI2:
 335              		.cfi_def_cfa_offset 36
 336              		@ sp needed
ARM GAS  /tmp/ccNouMZU.s 			page 10


 337 0148 BDE8F08F 		pop	{r4, r5, r6, r7, r8, r9, r10, fp, pc}
 338              	.LVL37:
 339              	.L10:
 340              		.loc 1 150 1 view .LVU120
 341              		.align	2
 342              	.L9:
 343 014c 00000000 		.word	.LANCHOR0
 344              		.cfi_endproc
 345              	.LFE760:
 347              		.section	.text.USBTask_Run,"ax",%progbits
 348              		.align	1
 349              		.global	USBTask_Run
 350              		.syntax unified
 351              		.thumb
 352              		.thumb_func
 354              	USBTask_Run:
 355              	.LVL38:
 356              	.LFB847:
 357              		.file 2 "Core/Src/freertos.c"
   1:Core/Src/freertos.c **** /* USER CODE BEGIN Header */
   2:Core/Src/freertos.c **** /**
   3:Core/Src/freertos.c ****   ******************************************************************************
   4:Core/Src/freertos.c ****   * File Name          : freertos.c
   5:Core/Src/freertos.c ****   * Description        : Code for freertos applications
   6:Core/Src/freertos.c ****   ******************************************************************************
   7:Core/Src/freertos.c ****   * @attention
   8:Core/Src/freertos.c ****   *
   9:Core/Src/freertos.c ****   * Copyright (c) 2025 STMicroelectronics.
  10:Core/Src/freertos.c ****   * All rights reserved.
  11:Core/Src/freertos.c ****   *
  12:Core/Src/freertos.c ****   * This software is licensed under terms that can be found in the LICENSE file
  13:Core/Src/freertos.c ****   * in the root directory of this software component.
  14:Core/Src/freertos.c ****   * If no LICENSE file comes with this software, it is provided AS-IS.
  15:Core/Src/freertos.c ****   *
  16:Core/Src/freertos.c ****   ******************************************************************************
  17:Core/Src/freertos.c ****   */
  18:Core/Src/freertos.c **** /* USER CODE END Header */
  19:Core/Src/freertos.c **** 
  20:Core/Src/freertos.c **** /* Includes ------------------------------------------------------------------*/
  21:Core/Src/freertos.c **** #include "FreeRTOS.h"
  22:Core/Src/freertos.c **** #include "task.h"
  23:Core/Src/freertos.c **** #include "main.h"
  24:Core/Src/freertos.c **** #include "cmsis_os.h"
  25:Core/Src/freertos.c **** 
  26:Core/Src/freertos.c **** /* Private includes ----------------------------------------------------------*/
  27:Core/Src/freertos.c **** /* USER CODE BEGIN Includes */
  28:Core/Src/freertos.c **** #include "SensorTask.h"
  29:Core/Src/freertos.c **** #include "strings.h"
  30:Core/Src/freertos.c **** #include <stdio.h>
  31:Core/Src/freertos.c **** #include <stdlib.h>
  32:Core/Src/freertos.c **** #include "usbd_cdc_if.h"
  33:Core/Src/freertos.c **** #include "minimal/mavlink.h"
  34:Core/Src/freertos.c **** #include "common/mavlink.h"
  35:Core/Src/freertos.c **** #include "standard/mavlink.h"
  36:Core/Src/freertos.c **** 
  37:Core/Src/freertos.c **** /* USER CODE END Includes */
  38:Core/Src/freertos.c **** 
ARM GAS  /tmp/ccNouMZU.s 			page 11


  39:Core/Src/freertos.c **** /* Private typedef -----------------------------------------------------------*/
  40:Core/Src/freertos.c **** /* USER CODE BEGIN PTD */
  41:Core/Src/freertos.c **** 
  42:Core/Src/freertos.c **** /* USER CODE END PTD */
  43:Core/Src/freertos.c **** 
  44:Core/Src/freertos.c **** /* Private define ------------------------------------------------------------*/
  45:Core/Src/freertos.c **** /* USER CODE BEGIN PD */
  46:Core/Src/freertos.c **** 
  47:Core/Src/freertos.c **** /* USER CODE END PD */
  48:Core/Src/freertos.c **** 
  49:Core/Src/freertos.c **** /* Private macro -------------------------------------------------------------*/
  50:Core/Src/freertos.c **** /* USER CODE BEGIN PM */
  51:Core/Src/freertos.c **** 
  52:Core/Src/freertos.c **** /* USER CODE END PM */
  53:Core/Src/freertos.c **** 
  54:Core/Src/freertos.c **** /* Private variables ---------------------------------------------------------*/
  55:Core/Src/freertos.c **** /* USER CODE BEGIN Variables */
  56:Core/Src/freertos.c **** uint8_t buf[MAVLINK_MAX_PACKET_LEN];
  57:Core/Src/freertos.c **** mavlink_message_t msg;
  58:Core/Src/freertos.c **** uint16_t len;
  59:Core/Src/freertos.c **** 
  60:Core/Src/freertos.c **** /* USER CODE END Variables */
  61:Core/Src/freertos.c **** osThreadId USBTaskHandle;
  62:Core/Src/freertos.c **** 
  63:Core/Src/freertos.c **** /* Private function prototypes -----------------------------------------------*/
  64:Core/Src/freertos.c **** /* USER CODE BEGIN FunctionPrototypes */
  65:Core/Src/freertos.c **** 
  66:Core/Src/freertos.c **** /* USER CODE END FunctionPrototypes */
  67:Core/Src/freertos.c **** 
  68:Core/Src/freertos.c **** void USBTask_Run(void const * argument);
  69:Core/Src/freertos.c **** 
  70:Core/Src/freertos.c **** extern void MX_USB_DEVICE_Init(void);
  71:Core/Src/freertos.c **** void MX_FREERTOS_Init(void); /* (MISRA C 2004 rule 8.1) */
  72:Core/Src/freertos.c **** 
  73:Core/Src/freertos.c **** /* GetIdleTaskMemory prototype (linked to static allocation support) */
  74:Core/Src/freertos.c **** void vApplicationGetIdleTaskMemory( StaticTask_t **ppxIdleTaskTCBBuffer, StackType_t **ppxIdleTaskS
  75:Core/Src/freertos.c **** 
  76:Core/Src/freertos.c **** /* GetTimerTaskMemory prototype (linked to static allocation support) */
  77:Core/Src/freertos.c **** void vApplicationGetTimerTaskMemory( StaticTask_t **ppxTimerTaskTCBBuffer, StackType_t **ppxTimerTa
  78:Core/Src/freertos.c **** 
  79:Core/Src/freertos.c **** /* Hook prototypes */
  80:Core/Src/freertos.c **** void vApplicationStackOverflowHook(xTaskHandle xTask, signed char *pcTaskName);
  81:Core/Src/freertos.c **** 
  82:Core/Src/freertos.c **** /* USER CODE BEGIN 4 */
  83:Core/Src/freertos.c **** __weak void vApplicationStackOverflowHook(xTaskHandle xTask, signed char *pcTaskName)
  84:Core/Src/freertos.c **** {
  85:Core/Src/freertos.c ****    /* Run time stack overflow checking is performed if
  86:Core/Src/freertos.c ****    configCHECK_FOR_STACK_OVERFLOW is defined to 1 or 2. This hook function is
  87:Core/Src/freertos.c ****    called if a stack overflow is detected. */
  88:Core/Src/freertos.c **** }
  89:Core/Src/freertos.c **** /* USER CODE END 4 */
  90:Core/Src/freertos.c **** 
  91:Core/Src/freertos.c **** /* USER CODE BEGIN GET_IDLE_TASK_MEMORY */
  92:Core/Src/freertos.c **** static StaticTask_t xIdleTaskTCBBuffer;
  93:Core/Src/freertos.c **** static StackType_t xIdleStack[configMINIMAL_STACK_SIZE];
  94:Core/Src/freertos.c **** 
  95:Core/Src/freertos.c **** void vApplicationGetIdleTaskMemory( StaticTask_t **ppxIdleTaskTCBBuffer, StackType_t **ppxIdleTaskS
ARM GAS  /tmp/ccNouMZU.s 			page 12


  96:Core/Src/freertos.c **** {
  97:Core/Src/freertos.c ****   *ppxIdleTaskTCBBuffer = &xIdleTaskTCBBuffer;
  98:Core/Src/freertos.c ****   *ppxIdleTaskStackBuffer = &xIdleStack[0];
  99:Core/Src/freertos.c ****   *pulIdleTaskStackSize = configMINIMAL_STACK_SIZE;
 100:Core/Src/freertos.c ****   /* place for user code */
 101:Core/Src/freertos.c **** }
 102:Core/Src/freertos.c **** /* USER CODE END GET_IDLE_TASK_MEMORY */
 103:Core/Src/freertos.c **** 
 104:Core/Src/freertos.c **** /* USER CODE BEGIN GET_TIMER_TASK_MEMORY */
 105:Core/Src/freertos.c **** static StaticTask_t xTimerTaskTCBBuffer;
 106:Core/Src/freertos.c **** static StackType_t xTimerStack[configTIMER_TASK_STACK_DEPTH];
 107:Core/Src/freertos.c **** 
 108:Core/Src/freertos.c **** void vApplicationGetTimerTaskMemory( StaticTask_t **ppxTimerTaskTCBBuffer, StackType_t **ppxTimerTa
 109:Core/Src/freertos.c **** {
 110:Core/Src/freertos.c ****   *ppxTimerTaskTCBBuffer = &xTimerTaskTCBBuffer;
 111:Core/Src/freertos.c ****   *ppxTimerTaskStackBuffer = &xTimerStack[0];
 112:Core/Src/freertos.c ****   *pulTimerTaskStackSize = configTIMER_TASK_STACK_DEPTH;
 113:Core/Src/freertos.c ****   /* place for user code */
 114:Core/Src/freertos.c **** }
 115:Core/Src/freertos.c **** /* USER CODE END GET_TIMER_TASK_MEMORY */
 116:Core/Src/freertos.c **** 
 117:Core/Src/freertos.c **** /**
 118:Core/Src/freertos.c ****   * @brief  FreeRTOS initialization
 119:Core/Src/freertos.c ****   * @param  None
 120:Core/Src/freertos.c ****   * @retval None
 121:Core/Src/freertos.c ****   */
 122:Core/Src/freertos.c **** void MX_FREERTOS_Init(void) {
 123:Core/Src/freertos.c ****   /* USER CODE BEGIN Init */
 124:Core/Src/freertos.c **** 
 125:Core/Src/freertos.c ****   /* USER CODE END Init */
 126:Core/Src/freertos.c **** 
 127:Core/Src/freertos.c ****   /* USER CODE BEGIN RTOS_MUTEX */
 128:Core/Src/freertos.c ****   /* add mutexes, ... */
 129:Core/Src/freertos.c ****   /* USER CODE END RTOS_MUTEX */
 130:Core/Src/freertos.c **** 
 131:Core/Src/freertos.c ****   /* USER CODE BEGIN RTOS_SEMAPHORES */
 132:Core/Src/freertos.c ****   /* add semaphores, ... */
 133:Core/Src/freertos.c ****   /* USER CODE END RTOS_SEMAPHORES */
 134:Core/Src/freertos.c **** 
 135:Core/Src/freertos.c ****   /* USER CODE BEGIN RTOS_TIMERS */
 136:Core/Src/freertos.c ****   /* start timers, add new ones, ... */
 137:Core/Src/freertos.c ****   /* USER CODE END RTOS_TIMERS */
 138:Core/Src/freertos.c **** 
 139:Core/Src/freertos.c ****   /* USER CODE BEGIN RTOS_QUEUES */
 140:Core/Src/freertos.c ****   /* add queues, ... */
 141:Core/Src/freertos.c ****   /* USER CODE END RTOS_QUEUES */
 142:Core/Src/freertos.c **** 
 143:Core/Src/freertos.c ****   /* Create the thread(s) */
 144:Core/Src/freertos.c ****   /* definition and creation of USBTask */
 145:Core/Src/freertos.c ****   osThreadDef(USBTask, USBTask_Run, osPriorityHigh, 0, 512);
 146:Core/Src/freertos.c ****   USBTaskHandle = osThreadCreate(osThread(USBTask), NULL);
 147:Core/Src/freertos.c **** 
 148:Core/Src/freertos.c ****   /* USER CODE BEGIN RTOS_THREADS */
 149:Core/Src/freertos.c ****   SensorTask_Init();
 150:Core/Src/freertos.c **** 
 151:Core/Src/freertos.c ****   /* add threads, ... */
 152:Core/Src/freertos.c ****   /* USER CODE END RTOS_THREADS */
ARM GAS  /tmp/ccNouMZU.s 			page 13


 153:Core/Src/freertos.c **** 
 154:Core/Src/freertos.c **** }
 155:Core/Src/freertos.c **** 
 156:Core/Src/freertos.c **** /* USER CODE BEGIN Header_USBTask_Run */
 157:Core/Src/freertos.c **** /**
 158:Core/Src/freertos.c ****   * @brief  Function implementing the USBTask thread.
 159:Core/Src/freertos.c ****   * @param  argument: Not used
 160:Core/Src/freertos.c ****   * @retval None
 161:Core/Src/freertos.c ****   */
 162:Core/Src/freertos.c **** /* USER CODE END Header_USBTask_Run */
 163:Core/Src/freertos.c **** void USBTask_Run(void const * argument)
 164:Core/Src/freertos.c **** {
 358              		.loc 2 164 1 is_stmt 1 view -0
 359              		.cfi_startproc
 360              		@ Volatile: function does not return.
 361              		@ args = 0, pretend = 0, frame = 312
 362              		@ frame_needed = 0, uses_anonymous_args = 0
 363              		.loc 2 164 1 is_stmt 0 view .LVU122
 364 0000 80B5     		push	{r7, lr}
 365              	.LCFI3:
 366              		.cfi_def_cfa_offset 8
 367              		.cfi_offset 7, -8
 368              		.cfi_offset 14, -4
 369 0002 CEB0     		sub	sp, sp, #312
 370              	.LCFI4:
 371              		.cfi_def_cfa_offset 320
 165:Core/Src/freertos.c ****   /* init code for USB_DEVICE */
 166:Core/Src/freertos.c ****   MX_USB_DEVICE_Init();
 372              		.loc 2 166 3 is_stmt 1 view .LVU123
 373 0004 FFF7FEFF 		bl	MX_USB_DEVICE_Init
 374              	.LVL39:
 375              		.loc 2 166 3 is_stmt 0 view .LVU124
 376 0008 44E3     		b	.L74
 377              	.LVL40:
 378              	.L75:
 379              	.LBB84:
 380              	.LBB85:
 381              	.LBB86:
 382              	.LBB87:
 383              	.LBB88:
 384              	.LBB89:
 385              	.LBB90:
 386              	.LBB91:
 387              		.file 3 "mavlink/minimal/../mavlink_helpers.h"
   1:mavlink/minimal/../mavlink_helpers.h **** #pragma once
   2:mavlink/minimal/../mavlink_helpers.h **** 
   3:mavlink/minimal/../mavlink_helpers.h **** #include "string.h"
   4:mavlink/minimal/../mavlink_helpers.h **** #include "checksum.h"
   5:mavlink/minimal/../mavlink_helpers.h **** #include "mavlink_types.h"
   6:mavlink/minimal/../mavlink_helpers.h **** #include "mavlink_conversions.h"
   7:mavlink/minimal/../mavlink_helpers.h **** #include <stdio.h>
   8:mavlink/minimal/../mavlink_helpers.h **** 
   9:mavlink/minimal/../mavlink_helpers.h **** #ifndef MAVLINK_HELPER
  10:mavlink/minimal/../mavlink_helpers.h **** #define MAVLINK_HELPER
  11:mavlink/minimal/../mavlink_helpers.h **** #endif
  12:mavlink/minimal/../mavlink_helpers.h **** 
  13:mavlink/minimal/../mavlink_helpers.h **** #include "mavlink_sha256.h"
ARM GAS  /tmp/ccNouMZU.s 			page 14


  14:mavlink/minimal/../mavlink_helpers.h **** 
  15:mavlink/minimal/../mavlink_helpers.h **** #ifdef MAVLINK_USE_CXX_NAMESPACE
  16:mavlink/minimal/../mavlink_helpers.h **** namespace mavlink {
  17:mavlink/minimal/../mavlink_helpers.h **** #endif
  18:mavlink/minimal/../mavlink_helpers.h **** 
  19:mavlink/minimal/../mavlink_helpers.h **** /*
  20:mavlink/minimal/../mavlink_helpers.h ****  * Internal function to give access to the channel status for each channel
  21:mavlink/minimal/../mavlink_helpers.h ****  */
  22:mavlink/minimal/../mavlink_helpers.h **** #ifndef MAVLINK_GET_CHANNEL_STATUS
  23:mavlink/minimal/../mavlink_helpers.h **** MAVLINK_HELPER mavlink_status_t* mavlink_get_channel_status(uint8_t chan)
  24:mavlink/minimal/../mavlink_helpers.h **** {
  25:mavlink/minimal/../mavlink_helpers.h **** #ifdef MAVLINK_EXTERNAL_RX_STATUS
  26:mavlink/minimal/../mavlink_helpers.h **** 	// No m_mavlink_status array defined in function,
  27:mavlink/minimal/../mavlink_helpers.h **** 	// has to be defined externally
  28:mavlink/minimal/../mavlink_helpers.h **** #else
  29:mavlink/minimal/../mavlink_helpers.h **** 	static mavlink_status_t m_mavlink_status[MAVLINK_COMM_NUM_BUFFERS];
  30:mavlink/minimal/../mavlink_helpers.h **** #endif
  31:mavlink/minimal/../mavlink_helpers.h **** 	return &m_mavlink_status[chan];
  32:mavlink/minimal/../mavlink_helpers.h **** }
  33:mavlink/minimal/../mavlink_helpers.h **** #endif
  34:mavlink/minimal/../mavlink_helpers.h **** 
  35:mavlink/minimal/../mavlink_helpers.h **** /*
  36:mavlink/minimal/../mavlink_helpers.h ****  * Internal function to give access to the channel buffer for each channel
  37:mavlink/minimal/../mavlink_helpers.h ****  */
  38:mavlink/minimal/../mavlink_helpers.h **** #ifndef MAVLINK_GET_CHANNEL_BUFFER
  39:mavlink/minimal/../mavlink_helpers.h **** MAVLINK_HELPER mavlink_message_t* mavlink_get_channel_buffer(uint8_t chan)
  40:mavlink/minimal/../mavlink_helpers.h **** {
  41:mavlink/minimal/../mavlink_helpers.h **** 	
  42:mavlink/minimal/../mavlink_helpers.h **** #ifdef MAVLINK_EXTERNAL_RX_BUFFER
  43:mavlink/minimal/../mavlink_helpers.h **** 	// No m_mavlink_buffer array defined in function,
  44:mavlink/minimal/../mavlink_helpers.h **** 	// has to be defined externally
  45:mavlink/minimal/../mavlink_helpers.h **** #else
  46:mavlink/minimal/../mavlink_helpers.h **** 	static mavlink_message_t m_mavlink_buffer[MAVLINK_COMM_NUM_BUFFERS];
  47:mavlink/minimal/../mavlink_helpers.h **** #endif
  48:mavlink/minimal/../mavlink_helpers.h **** 	return &m_mavlink_buffer[chan];
  49:mavlink/minimal/../mavlink_helpers.h **** }
  50:mavlink/minimal/../mavlink_helpers.h **** #endif // MAVLINK_GET_CHANNEL_BUFFER
  51:mavlink/minimal/../mavlink_helpers.h **** 
  52:mavlink/minimal/../mavlink_helpers.h **** /* Enable this option to check the length of each message.
  53:mavlink/minimal/../mavlink_helpers.h ****     This allows invalid messages to be caught much sooner. Use if the transmission
  54:mavlink/minimal/../mavlink_helpers.h ****     medium is prone to missing (or extra) characters (e.g. a radio that fades in
  55:mavlink/minimal/../mavlink_helpers.h ****     and out). Only use if the channel will only contain messages types listed in
  56:mavlink/minimal/../mavlink_helpers.h ****     the headers.
  57:mavlink/minimal/../mavlink_helpers.h **** */
  58:mavlink/minimal/../mavlink_helpers.h **** //#define MAVLINK_CHECK_MESSAGE_LENGTH
  59:mavlink/minimal/../mavlink_helpers.h **** 
  60:mavlink/minimal/../mavlink_helpers.h **** /**
  61:mavlink/minimal/../mavlink_helpers.h ****  * @brief Reset the status of a channel.
  62:mavlink/minimal/../mavlink_helpers.h ****  */
  63:mavlink/minimal/../mavlink_helpers.h **** MAVLINK_HELPER void mavlink_reset_channel_status(uint8_t chan)
  64:mavlink/minimal/../mavlink_helpers.h **** {
  65:mavlink/minimal/../mavlink_helpers.h **** 	mavlink_status_t *status = mavlink_get_channel_status(chan);
  66:mavlink/minimal/../mavlink_helpers.h **** 	status->parse_state = MAVLINK_PARSE_STATE_IDLE;
  67:mavlink/minimal/../mavlink_helpers.h **** }
  68:mavlink/minimal/../mavlink_helpers.h **** 
  69:mavlink/minimal/../mavlink_helpers.h **** #ifndef MAVLINK_NO_SIGN_PACKET
  70:mavlink/minimal/../mavlink_helpers.h **** /**
ARM GAS  /tmp/ccNouMZU.s 			page 15


  71:mavlink/minimal/../mavlink_helpers.h ****  * @brief create a signature block for a packet
  72:mavlink/minimal/../mavlink_helpers.h ****  */
  73:mavlink/minimal/../mavlink_helpers.h **** MAVLINK_HELPER uint8_t mavlink_sign_packet(mavlink_signing_t *signing,
  74:mavlink/minimal/../mavlink_helpers.h **** 					   uint8_t signature[MAVLINK_SIGNATURE_BLOCK_LEN],
  75:mavlink/minimal/../mavlink_helpers.h **** 					   const uint8_t *header, uint8_t header_len,
  76:mavlink/minimal/../mavlink_helpers.h **** 					   const uint8_t *packet, uint8_t packet_len,
  77:mavlink/minimal/../mavlink_helpers.h **** 					   const uint8_t crc[2])
  78:mavlink/minimal/../mavlink_helpers.h **** {
  79:mavlink/minimal/../mavlink_helpers.h **** 	mavlink_sha256_ctx ctx;
  80:mavlink/minimal/../mavlink_helpers.h **** 	union {
  81:mavlink/minimal/../mavlink_helpers.h **** 	    uint64_t t64;
  82:mavlink/minimal/../mavlink_helpers.h **** 	    uint8_t t8[8];
  83:mavlink/minimal/../mavlink_helpers.h **** 	} tstamp;
  84:mavlink/minimal/../mavlink_helpers.h **** 	if (signing == NULL || !(signing->flags & MAVLINK_SIGNING_FLAG_SIGN_OUTGOING)) {
  85:mavlink/minimal/../mavlink_helpers.h **** 	    return 0;
  86:mavlink/minimal/../mavlink_helpers.h **** 	}
  87:mavlink/minimal/../mavlink_helpers.h **** 	signature[0] = signing->link_id;
  88:mavlink/minimal/../mavlink_helpers.h **** 	tstamp.t64 = signing->timestamp;
  89:mavlink/minimal/../mavlink_helpers.h **** 	memcpy(&signature[1], tstamp.t8, 6);
  90:mavlink/minimal/../mavlink_helpers.h **** 	signing->timestamp++;
  91:mavlink/minimal/../mavlink_helpers.h **** 	
  92:mavlink/minimal/../mavlink_helpers.h **** 	mavlink_sha256_init(&ctx);
  93:mavlink/minimal/../mavlink_helpers.h **** 	mavlink_sha256_update(&ctx, signing->secret_key, sizeof(signing->secret_key));
  94:mavlink/minimal/../mavlink_helpers.h **** 	mavlink_sha256_update(&ctx, header, header_len);
  95:mavlink/minimal/../mavlink_helpers.h **** 	mavlink_sha256_update(&ctx, packet, packet_len);
  96:mavlink/minimal/../mavlink_helpers.h **** 	mavlink_sha256_update(&ctx, crc, 2);
  97:mavlink/minimal/../mavlink_helpers.h **** 	mavlink_sha256_update(&ctx, signature, 7);
  98:mavlink/minimal/../mavlink_helpers.h **** 	mavlink_sha256_final_48(&ctx, &signature[7]);
  99:mavlink/minimal/../mavlink_helpers.h **** 	
 100:mavlink/minimal/../mavlink_helpers.h **** 	return MAVLINK_SIGNATURE_BLOCK_LEN;
 101:mavlink/minimal/../mavlink_helpers.h **** }
 102:mavlink/minimal/../mavlink_helpers.h **** #endif
 103:mavlink/minimal/../mavlink_helpers.h **** 
 104:mavlink/minimal/../mavlink_helpers.h **** /**
 105:mavlink/minimal/../mavlink_helpers.h ****  * @brief Trim payload of any trailing zero-populated bytes (MAVLink 2 only).
 106:mavlink/minimal/../mavlink_helpers.h ****  *
 107:mavlink/minimal/../mavlink_helpers.h ****  * @param payload Serialised payload buffer.
 108:mavlink/minimal/../mavlink_helpers.h ****  * @param length Length of full-width payload buffer.
 109:mavlink/minimal/../mavlink_helpers.h ****  * @return Length of payload after zero-filled bytes are trimmed.
 110:mavlink/minimal/../mavlink_helpers.h ****  */
 111:mavlink/minimal/../mavlink_helpers.h **** MAVLINK_HELPER uint8_t _mav_trim_payload(const char *payload, uint8_t length)
 112:mavlink/minimal/../mavlink_helpers.h **** {
 113:mavlink/minimal/../mavlink_helpers.h **** 	while (length > 1 && payload[length-1] == 0) {
 114:mavlink/minimal/../mavlink_helpers.h **** 		length--;
 115:mavlink/minimal/../mavlink_helpers.h **** 	}
 116:mavlink/minimal/../mavlink_helpers.h **** 	return length;
 117:mavlink/minimal/../mavlink_helpers.h **** }
 118:mavlink/minimal/../mavlink_helpers.h **** 
 119:mavlink/minimal/../mavlink_helpers.h **** #ifndef MAVLINK_NO_SIGNATURE_CHECK
 120:mavlink/minimal/../mavlink_helpers.h **** /**
 121:mavlink/minimal/../mavlink_helpers.h ****  * @brief check a signature block for a packet
 122:mavlink/minimal/../mavlink_helpers.h ****  */
 123:mavlink/minimal/../mavlink_helpers.h **** MAVLINK_HELPER bool mavlink_signature_check(mavlink_signing_t *signing,
 124:mavlink/minimal/../mavlink_helpers.h **** 					    mavlink_signing_streams_t *signing_streams,
 125:mavlink/minimal/../mavlink_helpers.h **** 					    const mavlink_message_t *msg)
 126:mavlink/minimal/../mavlink_helpers.h **** {
 127:mavlink/minimal/../mavlink_helpers.h **** 	if (signing == NULL) {
ARM GAS  /tmp/ccNouMZU.s 			page 16


 128:mavlink/minimal/../mavlink_helpers.h **** 		return true;
 129:mavlink/minimal/../mavlink_helpers.h **** 	}
 130:mavlink/minimal/../mavlink_helpers.h ****         const uint8_t *p = (const uint8_t *)&msg->magic;
 131:mavlink/minimal/../mavlink_helpers.h **** 	const uint8_t *psig = msg->signature;
 132:mavlink/minimal/../mavlink_helpers.h ****         const uint8_t *incoming_signature = psig+7;
 133:mavlink/minimal/../mavlink_helpers.h **** 	mavlink_sha256_ctx ctx;
 134:mavlink/minimal/../mavlink_helpers.h **** 	uint8_t signature[6];
 135:mavlink/minimal/../mavlink_helpers.h **** 	uint16_t i;
 136:mavlink/minimal/../mavlink_helpers.h ****         
 137:mavlink/minimal/../mavlink_helpers.h **** 	mavlink_sha256_init(&ctx);
 138:mavlink/minimal/../mavlink_helpers.h **** 	mavlink_sha256_update(&ctx, signing->secret_key, sizeof(signing->secret_key));
 139:mavlink/minimal/../mavlink_helpers.h **** 	mavlink_sha256_update(&ctx, p, MAVLINK_NUM_HEADER_BYTES);
 140:mavlink/minimal/../mavlink_helpers.h **** 	mavlink_sha256_update(&ctx, _MAV_PAYLOAD(msg), msg->len);
 141:mavlink/minimal/../mavlink_helpers.h **** 	mavlink_sha256_update(&ctx, msg->ck, 2);
 142:mavlink/minimal/../mavlink_helpers.h **** 	mavlink_sha256_update(&ctx, psig, 1+6);
 143:mavlink/minimal/../mavlink_helpers.h **** 	mavlink_sha256_final_48(&ctx, signature);
 144:mavlink/minimal/../mavlink_helpers.h ****         if (memcmp(signature, incoming_signature, 6) != 0) {
 145:mavlink/minimal/../mavlink_helpers.h ****                 signing->last_status = MAVLINK_SIGNING_STATUS_BAD_SIGNATURE;
 146:mavlink/minimal/../mavlink_helpers.h **** 		return false;
 147:mavlink/minimal/../mavlink_helpers.h **** 	}
 148:mavlink/minimal/../mavlink_helpers.h **** 
 149:mavlink/minimal/../mavlink_helpers.h **** 	// now check timestamp
 150:mavlink/minimal/../mavlink_helpers.h **** 	union tstamp {
 151:mavlink/minimal/../mavlink_helpers.h **** 	    uint64_t t64;
 152:mavlink/minimal/../mavlink_helpers.h **** 	    uint8_t t8[8];
 153:mavlink/minimal/../mavlink_helpers.h **** 	} tstamp;
 154:mavlink/minimal/../mavlink_helpers.h **** 	uint8_t link_id = psig[0];
 155:mavlink/minimal/../mavlink_helpers.h **** 	tstamp.t64 = 0;
 156:mavlink/minimal/../mavlink_helpers.h **** 	memcpy(tstamp.t8, psig+1, 6);
 157:mavlink/minimal/../mavlink_helpers.h **** 
 158:mavlink/minimal/../mavlink_helpers.h **** 	if (signing_streams == NULL) {
 159:mavlink/minimal/../mavlink_helpers.h ****                 signing->last_status = MAVLINK_SIGNING_STATUS_NO_STREAMS;
 160:mavlink/minimal/../mavlink_helpers.h ****                 return false;
 161:mavlink/minimal/../mavlink_helpers.h **** 	}
 162:mavlink/minimal/../mavlink_helpers.h **** 	
 163:mavlink/minimal/../mavlink_helpers.h **** 	// find stream
 164:mavlink/minimal/../mavlink_helpers.h **** 	for (i=0; i<signing_streams->num_signing_streams; i++) {
 165:mavlink/minimal/../mavlink_helpers.h **** 		if (msg->sysid == signing_streams->stream[i].sysid &&
 166:mavlink/minimal/../mavlink_helpers.h **** 		    msg->compid == signing_streams->stream[i].compid &&
 167:mavlink/minimal/../mavlink_helpers.h **** 		    link_id == signing_streams->stream[i].link_id) {
 168:mavlink/minimal/../mavlink_helpers.h **** 			break;
 169:mavlink/minimal/../mavlink_helpers.h **** 		}
 170:mavlink/minimal/../mavlink_helpers.h **** 	}
 171:mavlink/minimal/../mavlink_helpers.h **** 	if (i == signing_streams->num_signing_streams) {
 172:mavlink/minimal/../mavlink_helpers.h **** 		if (signing_streams->num_signing_streams >= MAVLINK_MAX_SIGNING_STREAMS) {
 173:mavlink/minimal/../mavlink_helpers.h **** 			// over max number of streams
 174:mavlink/minimal/../mavlink_helpers.h ****                         signing->last_status = MAVLINK_SIGNING_STATUS_TOO_MANY_STREAMS;
 175:mavlink/minimal/../mavlink_helpers.h ****                         return false;
 176:mavlink/minimal/../mavlink_helpers.h **** 		}
 177:mavlink/minimal/../mavlink_helpers.h **** 		// new stream. Only accept if timestamp is not more than 1 minute old
 178:mavlink/minimal/../mavlink_helpers.h **** 		if (tstamp.t64 + 6000*1000UL < signing->timestamp) {
 179:mavlink/minimal/../mavlink_helpers.h ****                         signing->last_status = MAVLINK_SIGNING_STATUS_OLD_TIMESTAMP;
 180:mavlink/minimal/../mavlink_helpers.h ****                         return false;
 181:mavlink/minimal/../mavlink_helpers.h **** 		}
 182:mavlink/minimal/../mavlink_helpers.h **** 		// add new stream
 183:mavlink/minimal/../mavlink_helpers.h **** 		signing_streams->stream[i].sysid = msg->sysid;
 184:mavlink/minimal/../mavlink_helpers.h **** 		signing_streams->stream[i].compid = msg->compid;
ARM GAS  /tmp/ccNouMZU.s 			page 17


 185:mavlink/minimal/../mavlink_helpers.h **** 		signing_streams->stream[i].link_id = link_id;
 186:mavlink/minimal/../mavlink_helpers.h **** 		signing_streams->num_signing_streams++;
 187:mavlink/minimal/../mavlink_helpers.h **** 	} else {
 188:mavlink/minimal/../mavlink_helpers.h **** 		union tstamp last_tstamp;
 189:mavlink/minimal/../mavlink_helpers.h **** 		last_tstamp.t64 = 0;
 190:mavlink/minimal/../mavlink_helpers.h **** 		memcpy(last_tstamp.t8, signing_streams->stream[i].timestamp_bytes, 6);
 191:mavlink/minimal/../mavlink_helpers.h **** 		if (tstamp.t64 <= last_tstamp.t64) {
 192:mavlink/minimal/../mavlink_helpers.h **** 			// repeating old timestamp
 193:mavlink/minimal/../mavlink_helpers.h ****                         signing->last_status = MAVLINK_SIGNING_STATUS_REPLAY;
 194:mavlink/minimal/../mavlink_helpers.h ****                         return false;
 195:mavlink/minimal/../mavlink_helpers.h **** 		}
 196:mavlink/minimal/../mavlink_helpers.h **** 	}
 197:mavlink/minimal/../mavlink_helpers.h **** 
 198:mavlink/minimal/../mavlink_helpers.h **** 	// remember last timestamp
 199:mavlink/minimal/../mavlink_helpers.h **** 	memcpy(signing_streams->stream[i].timestamp_bytes, psig+1, 6);
 200:mavlink/minimal/../mavlink_helpers.h **** 
 201:mavlink/minimal/../mavlink_helpers.h **** 	// our next timestamp must be at least this timestamp
 202:mavlink/minimal/../mavlink_helpers.h **** 	if (tstamp.t64 > signing->timestamp) {
 203:mavlink/minimal/../mavlink_helpers.h **** 		signing->timestamp = tstamp.t64;
 204:mavlink/minimal/../mavlink_helpers.h **** 	}
 205:mavlink/minimal/../mavlink_helpers.h ****         signing->last_status = MAVLINK_SIGNING_STATUS_OK;
 206:mavlink/minimal/../mavlink_helpers.h ****         return true;
 207:mavlink/minimal/../mavlink_helpers.h **** }
 208:mavlink/minimal/../mavlink_helpers.h **** #endif
 209:mavlink/minimal/../mavlink_helpers.h **** 
 210:mavlink/minimal/../mavlink_helpers.h **** 
 211:mavlink/minimal/../mavlink_helpers.h **** /**
 212:mavlink/minimal/../mavlink_helpers.h ****  * @brief Finalize a MAVLink message with channel assignment
 213:mavlink/minimal/../mavlink_helpers.h ****  *
 214:mavlink/minimal/../mavlink_helpers.h ****  * This function calculates the checksum and sets length and aircraft id correctly.
 215:mavlink/minimal/../mavlink_helpers.h ****  * It assumes that the message id and the payload are already correctly set. This function
 216:mavlink/minimal/../mavlink_helpers.h ****  * can also be used if the message header has already been written before (as in mavlink_msg_xxx_pa
 217:mavlink/minimal/../mavlink_helpers.h ****  * instead of mavlink_msg_xxx_pack_headerless), it just introduces little extra overhead.
 218:mavlink/minimal/../mavlink_helpers.h ****  *
 219:mavlink/minimal/../mavlink_helpers.h ****  * @param msg Message to finalize
 220:mavlink/minimal/../mavlink_helpers.h ****  * @param system_id Id of the sending (this) system, 1-127
 221:mavlink/minimal/../mavlink_helpers.h ****  * @param length Message length
 222:mavlink/minimal/../mavlink_helpers.h ****  */
 223:mavlink/minimal/../mavlink_helpers.h **** MAVLINK_HELPER uint16_t mavlink_finalize_message_buffer(mavlink_message_t* msg, uint8_t system_id, 
 224:mavlink/minimal/../mavlink_helpers.h **** 						      mavlink_status_t* status, uint8_t min_length, uint8_t length, uint8_t crc_extra)
 225:mavlink/minimal/../mavlink_helpers.h **** {
 226:mavlink/minimal/../mavlink_helpers.h **** 	bool mavlink1 = (status->flags & MAVLINK_STATUS_FLAG_OUT_MAVLINK1) != 0;
 227:mavlink/minimal/../mavlink_helpers.h **** #ifndef MAVLINK_NO_SIGN_PACKET
 228:mavlink/minimal/../mavlink_helpers.h **** 	bool signing = 	(!mavlink1) && status->signing && (status->signing->flags & MAVLINK_SIGNING_FLAG_S
 388              		.loc 3 228 49 view .LVU125
 389 000a 0021     		movs	r1, #0
 390              	.L12:
 391              	.LVL41:
 229:mavlink/minimal/../mavlink_helpers.h **** #else
 230:mavlink/minimal/../mavlink_helpers.h **** 	bool signing = false;
 231:mavlink/minimal/../mavlink_helpers.h **** #endif
 232:mavlink/minimal/../mavlink_helpers.h **** 	uint8_t signature_len = signing? MAVLINK_SIGNATURE_BLOCK_LEN : 0;
 392              		.loc 3 232 2 is_stmt 1 view .LVU126
 233:mavlink/minimal/../mavlink_helpers.h ****         uint8_t header_len = MAVLINK_CORE_HEADER_LEN+1;
 393              		.loc 3 233 9 view .LVU127
 234:mavlink/minimal/../mavlink_helpers.h **** 	uint8_t buf[MAVLINK_CORE_HEADER_LEN+1];
 394              		.loc 3 234 2 view .LVU128
ARM GAS  /tmp/ccNouMZU.s 			page 18


 235:mavlink/minimal/../mavlink_helpers.h **** 	if (mavlink1) {
 395              		.loc 3 235 2 view .LVU129
 396              		.loc 3 235 5 is_stmt 0 view .LVU130
 397 000c 0028     		cmp	r0, #0
 398 000e 3BD0     		beq	.L13
 236:mavlink/minimal/../mavlink_helpers.h **** 		msg->magic = MAVLINK_STX_MAVLINK1;
 399              		.loc 3 236 3 is_stmt 1 view .LVU131
 400              		.loc 3 236 14 is_stmt 0 view .LVU132
 401 0010 AE4B     		ldr	r3, .L111
 402 0012 FE22     		movs	r2, #254
 403 0014 9A70     		strb	r2, [r3, #2]
 237:mavlink/minimal/../mavlink_helpers.h **** 		header_len = MAVLINK_CORE_HEADER_MAVLINK1_LEN+1;
 404              		.loc 3 237 3 is_stmt 1 view .LVU133
 405              	.LVL42:
 406              		.loc 3 237 14 is_stmt 0 view .LVU134
 407 0016 0624     		movs	r4, #6
 408              	.LVL43:
 409              	.L14:
 238:mavlink/minimal/../mavlink_helpers.h **** 	} else {
 239:mavlink/minimal/../mavlink_helpers.h **** 		msg->magic = MAVLINK_STX;
 240:mavlink/minimal/../mavlink_helpers.h **** 	}
 241:mavlink/minimal/../mavlink_helpers.h **** 	msg->len = mavlink1?min_length:_mav_trim_payload(_MAV_PAYLOAD(msg), length);
 410              		.loc 3 241 2 is_stmt 1 view .LVU135
 411              		.loc 3 241 11 is_stmt 0 view .LVU136
 412 0018 0028     		cmp	r0, #0
 413 001a 44D0     		beq	.L78
 414 001c 0923     		movs	r3, #9
 415              	.L16:
 416 001e AB4A     		ldr	r2, .L111
 417 0020 D370     		strb	r3, [r2, #3]
 242:mavlink/minimal/../mavlink_helpers.h **** 	msg->sysid = system_id;
 418              		.loc 3 242 2 is_stmt 1 view .LVU137
 419              		.loc 3 242 13 is_stmt 0 view .LVU138
 420 0022 0123     		movs	r3, #1
 421 0024 D371     		strb	r3, [r2, #7]
 243:mavlink/minimal/../mavlink_helpers.h **** 	msg->compid = component_id;
 422              		.loc 3 243 2 is_stmt 1 view .LVU139
 423              		.loc 3 243 14 is_stmt 0 view .LVU140
 424 0026 C823     		movs	r3, #200
 425 0028 1372     		strb	r3, [r2, #8]
 244:mavlink/minimal/../mavlink_helpers.h **** 	msg->incompat_flags = 0;
 426              		.loc 3 244 2 is_stmt 1 view .LVU141
 427              		.loc 3 244 22 is_stmt 0 view .LVU142
 428 002a 0023     		movs	r3, #0
 429 002c 1371     		strb	r3, [r2, #4]
 245:mavlink/minimal/../mavlink_helpers.h **** 	if (signing) {
 430              		.loc 3 245 2 is_stmt 1 view .LVU143
 431              		.loc 3 245 5 is_stmt 0 view .LVU144
 432 002e 11B1     		cbz	r1, .L18
 246:mavlink/minimal/../mavlink_helpers.h **** 		msg->incompat_flags |= MAVLINK_IFLAG_SIGNED;
 433              		.loc 3 246 3 is_stmt 1 view .LVU145
 434              		.loc 3 246 23 is_stmt 0 view .LVU146
 435 0030 1346     		mov	r3, r2
 436 0032 0122     		movs	r2, #1
 437 0034 1A71     		strb	r2, [r3, #4]
 438              	.L18:
 247:mavlink/minimal/../mavlink_helpers.h **** 	}
ARM GAS  /tmp/ccNouMZU.s 			page 19


 248:mavlink/minimal/../mavlink_helpers.h **** 	msg->compat_flags = 0;
 439              		.loc 3 248 2 is_stmt 1 view .LVU147
 440              		.loc 3 248 20 is_stmt 0 view .LVU148
 441 0036 A54B     		ldr	r3, .L111
 442 0038 0022     		movs	r2, #0
 443 003a 5A71     		strb	r2, [r3, #5]
 249:mavlink/minimal/../mavlink_helpers.h **** 	msg->seq = status->current_tx_seq;
 444              		.loc 3 249 2 is_stmt 1 view .LVU149
 445              		.loc 3 249 19 is_stmt 0 view .LVU150
 446 003c A44D     		ldr	r5, .L111+4
 447 003e AA79     		ldrb	r2, [r5, #6]	@ zero_extendqisi2
 448              		.loc 3 249 11 view .LVU151
 449 0040 9A71     		strb	r2, [r3, #6]
 250:mavlink/minimal/../mavlink_helpers.h **** 	status->current_tx_seq = status->current_tx_seq + 1;
 450              		.loc 3 250 2 is_stmt 1 view .LVU152
 451              		.loc 3 250 50 is_stmt 0 view .LVU153
 452 0042 0132     		adds	r2, r2, #1
 453              		.loc 3 250 25 view .LVU154
 454 0044 AA71     		strb	r2, [r5, #6]
 251:mavlink/minimal/../mavlink_helpers.h **** 
 252:mavlink/minimal/../mavlink_helpers.h **** 	// form the header as a byte array for the crc
 253:mavlink/minimal/../mavlink_helpers.h **** 	buf[0] = msg->magic;
 455              		.loc 3 253 2 is_stmt 1 view .LVU155
 456              		.loc 3 253 14 is_stmt 0 view .LVU156
 457 0046 9A78     		ldrb	r2, [r3, #2]	@ zero_extendqisi2
 458              		.loc 3 253 9 view .LVU157
 459 0048 8DF80C20 		strb	r2, [sp, #12]
 254:mavlink/minimal/../mavlink_helpers.h **** 	buf[1] = msg->len;
 460              		.loc 3 254 2 is_stmt 1 view .LVU158
 461              		.loc 3 254 14 is_stmt 0 view .LVU159
 462 004c DB78     		ldrb	r3, [r3, #3]	@ zero_extendqisi2
 463              		.loc 3 254 9 view .LVU160
 464 004e 8DF80D30 		strb	r3, [sp, #13]
 255:mavlink/minimal/../mavlink_helpers.h **** 	if (mavlink1) {
 465              		.loc 3 255 2 is_stmt 1 view .LVU161
 466              		.loc 3 255 5 is_stmt 0 view .LVU162
 467 0052 50B3     		cbz	r0, .L19
 256:mavlink/minimal/../mavlink_helpers.h **** 		buf[2] = msg->seq;
 468              		.loc 3 256 3 is_stmt 1 view .LVU163
 469              		.loc 3 256 15 is_stmt 0 view .LVU164
 470 0054 9D4B     		ldr	r3, .L111
 471 0056 9A79     		ldrb	r2, [r3, #6]	@ zero_extendqisi2
 472              		.loc 3 256 10 view .LVU165
 473 0058 8DF80E20 		strb	r2, [sp, #14]
 257:mavlink/minimal/../mavlink_helpers.h **** 		buf[3] = msg->sysid;
 474              		.loc 3 257 3 is_stmt 1 view .LVU166
 475              		.loc 3 257 15 is_stmt 0 view .LVU167
 476 005c DA79     		ldrb	r2, [r3, #7]	@ zero_extendqisi2
 477              		.loc 3 257 10 view .LVU168
 478 005e 8DF80F20 		strb	r2, [sp, #15]
 258:mavlink/minimal/../mavlink_helpers.h **** 		buf[4] = msg->compid;
 479              		.loc 3 258 3 is_stmt 1 view .LVU169
 480              		.loc 3 258 15 is_stmt 0 view .LVU170
 481 0062 1A7A     		ldrb	r2, [r3, #8]	@ zero_extendqisi2
 482              		.loc 3 258 10 view .LVU171
 483 0064 8DF81020 		strb	r2, [sp, #16]
 259:mavlink/minimal/../mavlink_helpers.h **** 		buf[5] = msg->msgid & 0xFF;
ARM GAS  /tmp/ccNouMZU.s 			page 20


 484              		.loc 3 259 3 is_stmt 1 view .LVU172
 485              		.loc 3 259 15 is_stmt 0 view .LVU173
 486 0068 9B68     		ldr	r3, [r3, #8]
 487 006a C3F31723 		ubfx	r3, r3, #8, #24
 488              		.loc 3 259 10 view .LVU174
 489 006e 8DF81130 		strb	r3, [sp, #17]
 490              	.L20:
 260:mavlink/minimal/../mavlink_helpers.h **** 	} else {
 261:mavlink/minimal/../mavlink_helpers.h **** 		buf[2] = msg->incompat_flags;
 262:mavlink/minimal/../mavlink_helpers.h **** 		buf[3] = msg->compat_flags;
 263:mavlink/minimal/../mavlink_helpers.h **** 		buf[4] = msg->seq;
 264:mavlink/minimal/../mavlink_helpers.h **** 		buf[5] = msg->sysid;
 265:mavlink/minimal/../mavlink_helpers.h **** 		buf[6] = msg->compid;
 266:mavlink/minimal/../mavlink_helpers.h **** 		buf[7] = msg->msgid & 0xFF;
 267:mavlink/minimal/../mavlink_helpers.h **** 		buf[8] = (msg->msgid >> 8) & 0xFF;
 268:mavlink/minimal/../mavlink_helpers.h **** 		buf[9] = (msg->msgid >> 16) & 0xFF;
 269:mavlink/minimal/../mavlink_helpers.h **** 	}
 270:mavlink/minimal/../mavlink_helpers.h **** 	
 271:mavlink/minimal/../mavlink_helpers.h **** 	uint16_t checksum = crc_calculate(&buf[1], header_len-1);
 491              		.loc 3 271 2 is_stmt 1 view .LVU175
 492              		.loc 3 271 22 is_stmt 0 view .LVU176
 493 0072 621E     		subs	r2, r4, #1
 494 0074 92B2     		uxth	r2, r2
 495              	.LVL44:
 496              	.LBB92:
 497              	.LBI92:
 498              		.file 4 "mavlink/minimal/../checksum.h"
   1:mavlink/minimal/../checksum.h **** #pragma once
   2:mavlink/minimal/../checksum.h **** 
   3:mavlink/minimal/../checksum.h **** #if defined(MAVLINK_USE_CXX_NAMESPACE)
   4:mavlink/minimal/../checksum.h **** namespace mavlink {
   5:mavlink/minimal/../checksum.h **** #elif defined(__cplusplus)
   6:mavlink/minimal/../checksum.h **** extern "C" {
   7:mavlink/minimal/../checksum.h **** #endif
   8:mavlink/minimal/../checksum.h **** 
   9:mavlink/minimal/../checksum.h **** // Visual Studio versions before 2010 don't have stdint.h, so we just error out.
  10:mavlink/minimal/../checksum.h **** #if (defined _MSC_VER) && (_MSC_VER < 1600)
  11:mavlink/minimal/../checksum.h **** #error "The C-MAVLink implementation requires Visual Studio 2010 or greater"
  12:mavlink/minimal/../checksum.h **** #endif
  13:mavlink/minimal/../checksum.h **** 
  14:mavlink/minimal/../checksum.h **** #include <stdint.h>
  15:mavlink/minimal/../checksum.h **** 
  16:mavlink/minimal/../checksum.h **** /**
  17:mavlink/minimal/../checksum.h ****  *
  18:mavlink/minimal/../checksum.h ****  *  CALCULATE THE CHECKSUM
  19:mavlink/minimal/../checksum.h ****  *
  20:mavlink/minimal/../checksum.h ****  */
  21:mavlink/minimal/../checksum.h **** 
  22:mavlink/minimal/../checksum.h **** #define X25_INIT_CRC 0xffff
  23:mavlink/minimal/../checksum.h **** #define X25_VALIDATE_CRC 0xf0b8
  24:mavlink/minimal/../checksum.h **** 
  25:mavlink/minimal/../checksum.h **** #ifndef HAVE_CRC_ACCUMULATE
  26:mavlink/minimal/../checksum.h **** /**
  27:mavlink/minimal/../checksum.h ****  * @brief Accumulate the CRC16_MCRF4XX checksum by adding one char at a time.
  28:mavlink/minimal/../checksum.h ****  *
  29:mavlink/minimal/../checksum.h ****  * The checksum function adds the hash of one char at a time to the
  30:mavlink/minimal/../checksum.h ****  * 16 bit checksum (uint16_t).
ARM GAS  /tmp/ccNouMZU.s 			page 21


  31:mavlink/minimal/../checksum.h ****  *
  32:mavlink/minimal/../checksum.h ****  * @param data new char to hash
  33:mavlink/minimal/../checksum.h ****  * @param crcAccum the already accumulated checksum
  34:mavlink/minimal/../checksum.h ****  **/
  35:mavlink/minimal/../checksum.h **** static inline void crc_accumulate(uint8_t data, uint16_t *crcAccum)
  36:mavlink/minimal/../checksum.h **** {
  37:mavlink/minimal/../checksum.h ****         /*Accumulate one byte of data into the CRC*/
  38:mavlink/minimal/../checksum.h ****         uint8_t tmp;
  39:mavlink/minimal/../checksum.h **** 
  40:mavlink/minimal/../checksum.h ****         tmp = data ^ (uint8_t)(*crcAccum &0xff);
  41:mavlink/minimal/../checksum.h ****         tmp ^= (tmp<<4);
  42:mavlink/minimal/../checksum.h ****         *crcAccum = (*crcAccum>>8) ^ (tmp<<8) ^ (tmp <<3) ^ (tmp>>4);
  43:mavlink/minimal/../checksum.h **** }
  44:mavlink/minimal/../checksum.h **** #endif
  45:mavlink/minimal/../checksum.h **** 
  46:mavlink/minimal/../checksum.h **** 
  47:mavlink/minimal/../checksum.h **** /**
  48:mavlink/minimal/../checksum.h ****  * @brief Initialize the buffer for the MCRF4XX CRC16
  49:mavlink/minimal/../checksum.h ****  *
  50:mavlink/minimal/../checksum.h ****  * @param crcAccum the 16 bit MCRF4XX CRC16
  51:mavlink/minimal/../checksum.h ****  */
  52:mavlink/minimal/../checksum.h **** static inline void crc_init(uint16_t* crcAccum)
  53:mavlink/minimal/../checksum.h **** {
  54:mavlink/minimal/../checksum.h ****         *crcAccum = X25_INIT_CRC;
  55:mavlink/minimal/../checksum.h **** }
  56:mavlink/minimal/../checksum.h **** 
  57:mavlink/minimal/../checksum.h **** 
  58:mavlink/minimal/../checksum.h **** /**
  59:mavlink/minimal/../checksum.h ****  * @brief Calculates the CRC16_MCRF4XX checksum on a byte buffer
  60:mavlink/minimal/../checksum.h ****  *
  61:mavlink/minimal/../checksum.h ****  * @param  pBuffer buffer containing the byte array to hash
  62:mavlink/minimal/../checksum.h ****  * @param  length  length of the byte array
  63:mavlink/minimal/../checksum.h ****  * @return the checksum over the buffer bytes
  64:mavlink/minimal/../checksum.h ****  **/
  65:mavlink/minimal/../checksum.h **** static inline uint16_t crc_calculate(const uint8_t* pBuffer, uint16_t length)
 499              		.loc 4 65 24 is_stmt 1 view .LVU177
 500              	.LBB93:
  66:mavlink/minimal/../checksum.h **** {
  67:mavlink/minimal/../checksum.h ****         uint16_t crcTmp;
 501              		.loc 4 67 9 view .LVU178
  68:mavlink/minimal/../checksum.h ****         crc_init(&crcTmp);
 502              		.loc 4 68 9 view .LVU179
 503              	.LBB94:
 504              	.LBI94:
  52:mavlink/minimal/../checksum.h **** {
 505              		.loc 4 52 20 view .LVU180
 506              	.LBB95:
  54:mavlink/minimal/../checksum.h **** }
 507              		.loc 4 54 9 view .LVU181
  54:mavlink/minimal/../checksum.h **** }
 508              		.loc 4 54 19 is_stmt 0 view .LVU182
 509 0076 4FF6FF73 		movw	r3, #65535
  55:mavlink/minimal/../checksum.h **** 
 510              		.loc 4 55 1 view .LVU183
 511 007a 0DF10D00 		add	r0, sp, #13
 512              	.LVL45:
  55:mavlink/minimal/../checksum.h **** 
ARM GAS  /tmp/ccNouMZU.s 			page 22


 513              		.loc 4 55 1 view .LVU184
 514 007e 43E0     		b	.L21
 515              	.LVL46:
 516              	.L76:
  55:mavlink/minimal/../checksum.h **** 
 517              		.loc 4 55 1 view .LVU185
 518              	.LBE95:
 519              	.LBE94:
 520              	.LBE93:
 521              	.LBE92:
 228:mavlink/minimal/../mavlink_helpers.h **** #else
 522              		.loc 3 228 49 view .LVU186
 523 0080 0021     		movs	r1, #0
 524 0082 C3E7     		b	.L12
 525              	.L77:
 526 0084 0121     		movs	r1, #1
 527 0086 C1E7     		b	.L12
 528              	.LVL47:
 529              	.L13:
 239:mavlink/minimal/../mavlink_helpers.h **** 	}
 530              		.loc 3 239 3 is_stmt 1 view .LVU187
 239:mavlink/minimal/../mavlink_helpers.h **** 	}
 531              		.loc 3 239 14 is_stmt 0 view .LVU188
 532 0088 904B     		ldr	r3, .L111
 533 008a FD22     		movs	r2, #253
 534 008c 9A70     		strb	r2, [r3, #2]
 233:mavlink/minimal/../mavlink_helpers.h **** 	uint8_t buf[MAVLINK_CORE_HEADER_LEN+1];
 535              		.loc 3 233 17 view .LVU189
 536 008e 0A24     		movs	r4, #10
 537 0090 C2E7     		b	.L14
 538              	.LVL48:
 539              	.L17:
 540              	.LBB99:
 541              	.LBB100:
 114:mavlink/minimal/../mavlink_helpers.h **** 	}
 542              		.loc 3 114 3 is_stmt 1 view .LVU190
 114:mavlink/minimal/../mavlink_helpers.h **** 	}
 543              		.loc 3 114 9 is_stmt 0 view .LVU191
 544 0092 013B     		subs	r3, r3, #1
 545              	.LVL49:
 114:mavlink/minimal/../mavlink_helpers.h **** 	}
 546              		.loc 3 114 9 view .LVU192
 547 0094 DBB2     		uxtb	r3, r3
 548              	.LVL50:
 549              	.L15:
 113:mavlink/minimal/../mavlink_helpers.h **** 		length--;
 550              		.loc 3 113 8 is_stmt 1 view .LVU193
 551 0096 012B     		cmp	r3, #1
 552 0098 C1D9     		bls	.L16
 113:mavlink/minimal/../mavlink_helpers.h **** 		length--;
 553              		.loc 3 113 30 is_stmt 0 view .LVU194
 554 009a 8C4A     		ldr	r2, .L111
 555 009c 1A44     		add	r2, r2, r3
 556 009e D27A     		ldrb	r2, [r2, #11]	@ zero_extendqisi2
 113:mavlink/minimal/../mavlink_helpers.h **** 		length--;
 557              		.loc 3 113 20 view .LVU195
 558 00a0 002A     		cmp	r2, #0
ARM GAS  /tmp/ccNouMZU.s 			page 23


 559 00a2 F6D0     		beq	.L17
 560 00a4 BBE7     		b	.L16
 561              	.LVL51:
 562              	.L78:
 113:mavlink/minimal/../mavlink_helpers.h **** 		length--;
 563              		.loc 3 113 20 view .LVU196
 564              	.LBE100:
 565              	.LBE99:
 566 00a6 0923     		movs	r3, #9
 567 00a8 F5E7     		b	.L15
 568              	.L19:
 261:mavlink/minimal/../mavlink_helpers.h **** 		buf[3] = msg->compat_flags;
 569              		.loc 3 261 3 is_stmt 1 view .LVU197
 261:mavlink/minimal/../mavlink_helpers.h **** 		buf[3] = msg->compat_flags;
 570              		.loc 3 261 15 is_stmt 0 view .LVU198
 571 00aa 884B     		ldr	r3, .L111
 572 00ac 1A79     		ldrb	r2, [r3, #4]	@ zero_extendqisi2
 261:mavlink/minimal/../mavlink_helpers.h **** 		buf[3] = msg->compat_flags;
 573              		.loc 3 261 10 view .LVU199
 574 00ae 8DF80E20 		strb	r2, [sp, #14]
 262:mavlink/minimal/../mavlink_helpers.h **** 		buf[4] = msg->seq;
 575              		.loc 3 262 3 is_stmt 1 view .LVU200
 262:mavlink/minimal/../mavlink_helpers.h **** 		buf[4] = msg->seq;
 576              		.loc 3 262 15 is_stmt 0 view .LVU201
 577 00b2 5A79     		ldrb	r2, [r3, #5]	@ zero_extendqisi2
 262:mavlink/minimal/../mavlink_helpers.h **** 		buf[4] = msg->seq;
 578              		.loc 3 262 10 view .LVU202
 579 00b4 8DF80F20 		strb	r2, [sp, #15]
 263:mavlink/minimal/../mavlink_helpers.h **** 		buf[5] = msg->sysid;
 580              		.loc 3 263 3 is_stmt 1 view .LVU203
 263:mavlink/minimal/../mavlink_helpers.h **** 		buf[5] = msg->sysid;
 581              		.loc 3 263 15 is_stmt 0 view .LVU204
 582 00b8 9A79     		ldrb	r2, [r3, #6]	@ zero_extendqisi2
 263:mavlink/minimal/../mavlink_helpers.h **** 		buf[5] = msg->sysid;
 583              		.loc 3 263 10 view .LVU205
 584 00ba 8DF81020 		strb	r2, [sp, #16]
 264:mavlink/minimal/../mavlink_helpers.h **** 		buf[6] = msg->compid;
 585              		.loc 3 264 3 is_stmt 1 view .LVU206
 264:mavlink/minimal/../mavlink_helpers.h **** 		buf[6] = msg->compid;
 586              		.loc 3 264 15 is_stmt 0 view .LVU207
 587 00be DA79     		ldrb	r2, [r3, #7]	@ zero_extendqisi2
 264:mavlink/minimal/../mavlink_helpers.h **** 		buf[6] = msg->compid;
 588              		.loc 3 264 10 view .LVU208
 589 00c0 8DF81120 		strb	r2, [sp, #17]
 265:mavlink/minimal/../mavlink_helpers.h **** 		buf[7] = msg->msgid & 0xFF;
 590              		.loc 3 265 3 is_stmt 1 view .LVU209
 265:mavlink/minimal/../mavlink_helpers.h **** 		buf[7] = msg->msgid & 0xFF;
 591              		.loc 3 265 15 is_stmt 0 view .LVU210
 592 00c4 1A7A     		ldrb	r2, [r3, #8]	@ zero_extendqisi2
 265:mavlink/minimal/../mavlink_helpers.h **** 		buf[7] = msg->msgid & 0xFF;
 593              		.loc 3 265 10 view .LVU211
 594 00c6 8DF81220 		strb	r2, [sp, #18]
 266:mavlink/minimal/../mavlink_helpers.h **** 		buf[8] = (msg->msgid >> 8) & 0xFF;
 595              		.loc 3 266 3 is_stmt 1 view .LVU212
 266:mavlink/minimal/../mavlink_helpers.h **** 		buf[8] = (msg->msgid >> 8) & 0xFF;
 596              		.loc 3 266 15 is_stmt 0 view .LVU213
 597 00ca 9B68     		ldr	r3, [r3, #8]
ARM GAS  /tmp/ccNouMZU.s 			page 24


 598 00cc C3F31723 		ubfx	r3, r3, #8, #24
 266:mavlink/minimal/../mavlink_helpers.h **** 		buf[8] = (msg->msgid >> 8) & 0xFF;
 599              		.loc 3 266 10 view .LVU214
 600 00d0 8DF81330 		strb	r3, [sp, #19]
 267:mavlink/minimal/../mavlink_helpers.h **** 		buf[9] = (msg->msgid >> 16) & 0xFF;
 601              		.loc 3 267 3 is_stmt 1 view .LVU215
 267:mavlink/minimal/../mavlink_helpers.h **** 		buf[9] = (msg->msgid >> 16) & 0xFF;
 602              		.loc 3 267 24 is_stmt 0 view .LVU216
 603 00d4 1A12     		asrs	r2, r3, #8
 267:mavlink/minimal/../mavlink_helpers.h **** 		buf[9] = (msg->msgid >> 16) & 0xFF;
 604              		.loc 3 267 10 view .LVU217
 605 00d6 8DF81420 		strb	r2, [sp, #20]
 268:mavlink/minimal/../mavlink_helpers.h **** 	}
 606              		.loc 3 268 3 is_stmt 1 view .LVU218
 268:mavlink/minimal/../mavlink_helpers.h **** 	}
 607              		.loc 3 268 24 is_stmt 0 view .LVU219
 608 00da 1B14     		asrs	r3, r3, #16
 268:mavlink/minimal/../mavlink_helpers.h **** 	}
 609              		.loc 3 268 10 view .LVU220
 610 00dc 8DF81530 		strb	r3, [sp, #21]
 611 00e0 C7E7     		b	.L20
 612              	.LVL52:
 613              	.L22:
 614              	.LBB101:
 615              	.LBB98:
  69:mavlink/minimal/../checksum.h **** 	while (length--) {
  70:mavlink/minimal/../checksum.h ****                 crc_accumulate(*pBuffer++, &crcTmp);
 616              		.loc 4 70 17 is_stmt 1 view .LVU221
 617              		.loc 4 70 17 is_stmt 0 view .LVU222
 618 00e2 10F8012B 		ldrb	r2, [r0], #1	@ zero_extendqisi2
 619              	.LVL53:
 620              	.LBB96:
 621              	.LBI96:
  35:mavlink/minimal/../checksum.h **** {
 622              		.loc 4 35 20 is_stmt 1 view .LVU223
 623              	.LBB97:
  38:mavlink/minimal/../checksum.h **** 
 624              		.loc 4 38 9 view .LVU224
  40:mavlink/minimal/../checksum.h ****         tmp ^= (tmp<<4);
 625              		.loc 4 40 9 view .LVU225
  40:mavlink/minimal/../checksum.h ****         tmp ^= (tmp<<4);
 626              		.loc 4 40 22 is_stmt 0 view .LVU226
 627 00e6 5FFA83FE 		uxtb	lr, r3
  40:mavlink/minimal/../checksum.h ****         tmp ^= (tmp<<4);
 628              		.loc 4 40 13 view .LVU227
 629 00ea 82EA0E02 		eor	r2, r2, lr
 630              	.LVL54:
  41:mavlink/minimal/../checksum.h ****         *crcAccum = (*crcAccum>>8) ^ (tmp<<8) ^ (tmp <<3) ^ (tmp>>4);
 631              		.loc 4 41 9 is_stmt 1 view .LVU228
  41:mavlink/minimal/../checksum.h ****         *crcAccum = (*crcAccum>>8) ^ (tmp<<8) ^ (tmp <<3) ^ (tmp>>4);
 632              		.loc 4 41 13 is_stmt 0 view .LVU229
 633 00ee 82EA0212 		eor	r2, r2, r2, lsl #4
 634              	.LVL55:
  41:mavlink/minimal/../checksum.h ****         *crcAccum = (*crcAccum>>8) ^ (tmp<<8) ^ (tmp <<3) ^ (tmp>>4);
 635              		.loc 4 41 13 view .LVU230
 636 00f2 D2B2     		uxtb	r2, r2
 637              	.LVL56:
ARM GAS  /tmp/ccNouMZU.s 			page 25


  42:mavlink/minimal/../checksum.h **** }
 638              		.loc 4 42 9 is_stmt 1 view .LVU231
  42:mavlink/minimal/../checksum.h **** }
 639              		.loc 4 42 36 is_stmt 0 view .LVU232
 640 00f4 1B0A     		lsrs	r3, r3, #8
 641              	.LVL57:
  42:mavlink/minimal/../checksum.h **** }
 642              		.loc 4 42 36 view .LVU233
 643 00f6 43EA0223 		orr	r3, r3, r2, lsl #8
 644 00fa 1BB2     		sxth	r3, r3
  42:mavlink/minimal/../checksum.h **** }
 645              		.loc 4 42 47 view .LVU234
 646 00fc 83EAC203 		eor	r3, r3, r2, lsl #3
  42:mavlink/minimal/../checksum.h **** }
 647              		.loc 4 42 59 view .LVU235
 648 0100 83EA1213 		eor	r3, r3, r2, lsr #4
 649 0104 9BB2     		uxth	r3, r3
 650              	.LVL58:
  42:mavlink/minimal/../checksum.h **** }
 651              		.loc 4 42 59 view .LVU236
 652              	.LBE97:
 653              	.LBE96:
  69:mavlink/minimal/../checksum.h ****                 crc_accumulate(*pBuffer++, &crcTmp);
 654              		.loc 4 69 15 view .LVU237
 655 0106 6246     		mov	r2, ip
 656              	.LVL59:
 657              	.L21:
  69:mavlink/minimal/../checksum.h ****                 crc_accumulate(*pBuffer++, &crcTmp);
 658              		.loc 4 69 8 is_stmt 1 view .LVU238
  69:mavlink/minimal/../checksum.h ****                 crc_accumulate(*pBuffer++, &crcTmp);
 659              		.loc 4 69 15 is_stmt 0 view .LVU239
 660 0108 02F1FF3C 		add	ip, r2, #-1
 661 010c 1FFA8CFC 		uxth	ip, ip
 662              	.LVL60:
  69:mavlink/minimal/../checksum.h ****                 crc_accumulate(*pBuffer++, &crcTmp);
 663              		.loc 4 69 8 view .LVU240
 664 0110 002A     		cmp	r2, #0
 665 0112 E6D1     		bne	.L22
  71:mavlink/minimal/../checksum.h ****         }
  72:mavlink/minimal/../checksum.h ****         return crcTmp;
 666              		.loc 4 72 9 is_stmt 1 view .LVU241
 667              	.LVL61:
 668              		.loc 4 72 9 is_stmt 0 view .LVU242
 669              	.LBE98:
 670              	.LBE101:
 272:mavlink/minimal/../mavlink_helpers.h **** 	crc_accumulate_buffer(&checksum, _MAV_PAYLOAD(msg), msg->len);
 671              		.loc 3 272 2 is_stmt 1 view .LVU243
 672              		.loc 3 272 57 is_stmt 0 view .LVU244
 673 0114 6D48     		ldr	r0, .L111
 674              		.loc 3 272 2 view .LVU245
 675 0116 C278     		ldrb	r2, [r0, #3]	@ zero_extendqisi2
 676              	.LVL62:
 677              	.LBB102:
 678              	.LBI102:
  73:mavlink/minimal/../checksum.h **** }
  74:mavlink/minimal/../checksum.h **** 
  75:mavlink/minimal/../checksum.h **** 
ARM GAS  /tmp/ccNouMZU.s 			page 26


  76:mavlink/minimal/../checksum.h **** /**
  77:mavlink/minimal/../checksum.h ****  * @brief Accumulate the MCRF4XX CRC16 by adding an array of bytes
  78:mavlink/minimal/../checksum.h ****  *
  79:mavlink/minimal/../checksum.h ****  * The checksum function adds the hash of one char at a time to the
  80:mavlink/minimal/../checksum.h ****  * 16 bit checksum (uint16_t).
  81:mavlink/minimal/../checksum.h ****  *
  82:mavlink/minimal/../checksum.h ****  * @param data new bytes to hash
  83:mavlink/minimal/../checksum.h ****  * @param crcAccum the already accumulated checksum
  84:mavlink/minimal/../checksum.h ****  **/
  85:mavlink/minimal/../checksum.h **** static inline void crc_accumulate_buffer(uint16_t *crcAccum, const char *pBuffer, uint16_t length)
 679              		.loc 4 85 20 is_stmt 1 view .LVU246
 680              	.LBB103:
  86:mavlink/minimal/../checksum.h **** {
  87:mavlink/minimal/../checksum.h **** 	const uint8_t *p = (const uint8_t *)pBuffer;
 681              		.loc 4 87 17 is_stmt 0 view .LVU247
 682 0118 0C30     		adds	r0, r0, #12
 683 011a 12E0     		b	.L23
 684              	.LVL63:
 685              	.L24:
  88:mavlink/minimal/../checksum.h **** 	while (length--) {
  89:mavlink/minimal/../checksum.h ****                 crc_accumulate(*p++, crcAccum);
 686              		.loc 4 89 17 is_stmt 1 view .LVU248
 687              		.loc 4 89 17 is_stmt 0 view .LVU249
 688 011c 10F8012B 		ldrb	r2, [r0], #1	@ zero_extendqisi2
 689              	.LVL64:
 690              	.LBB104:
 691              	.LBI104:
  35:mavlink/minimal/../checksum.h **** {
 692              		.loc 4 35 20 is_stmt 1 view .LVU250
 693              	.LBB105:
  38:mavlink/minimal/../checksum.h **** 
 694              		.loc 4 38 9 view .LVU251
  40:mavlink/minimal/../checksum.h ****         tmp ^= (tmp<<4);
 695              		.loc 4 40 9 view .LVU252
  40:mavlink/minimal/../checksum.h ****         tmp ^= (tmp<<4);
 696              		.loc 4 40 22 is_stmt 0 view .LVU253
 697 0120 5FFA83FE 		uxtb	lr, r3
  40:mavlink/minimal/../checksum.h ****         tmp ^= (tmp<<4);
 698              		.loc 4 40 13 view .LVU254
 699 0124 82EA0E02 		eor	r2, r2, lr
 700              	.LVL65:
  41:mavlink/minimal/../checksum.h ****         *crcAccum = (*crcAccum>>8) ^ (tmp<<8) ^ (tmp <<3) ^ (tmp>>4);
 701              		.loc 4 41 9 is_stmt 1 view .LVU255
  41:mavlink/minimal/../checksum.h ****         *crcAccum = (*crcAccum>>8) ^ (tmp<<8) ^ (tmp <<3) ^ (tmp>>4);
 702              		.loc 4 41 13 is_stmt 0 view .LVU256
 703 0128 82EA0212 		eor	r2, r2, r2, lsl #4
 704              	.LVL66:
  41:mavlink/minimal/../checksum.h ****         *crcAccum = (*crcAccum>>8) ^ (tmp<<8) ^ (tmp <<3) ^ (tmp>>4);
 705              		.loc 4 41 13 view .LVU257
 706 012c D2B2     		uxtb	r2, r2
 707              	.LVL67:
  42:mavlink/minimal/../checksum.h **** }
 708              		.loc 4 42 9 is_stmt 1 view .LVU258
  42:mavlink/minimal/../checksum.h **** }
 709              		.loc 4 42 36 is_stmt 0 view .LVU259
 710 012e 1B0A     		lsrs	r3, r3, #8
 711              	.LVL68:
ARM GAS  /tmp/ccNouMZU.s 			page 27


  42:mavlink/minimal/../checksum.h **** }
 712              		.loc 4 42 36 view .LVU260
 713 0130 83EA0223 		eor	r3, r3, r2, lsl #8
 714 0134 1BB2     		sxth	r3, r3
  42:mavlink/minimal/../checksum.h **** }
 715              		.loc 4 42 47 view .LVU261
 716 0136 83EAC203 		eor	r3, r3, r2, lsl #3
  42:mavlink/minimal/../checksum.h **** }
 717              		.loc 4 42 59 view .LVU262
 718 013a 83EA1213 		eor	r3, r3, r2, lsr #4
 719 013e 9BB2     		uxth	r3, r3
 720              	.LVL69:
  42:mavlink/minimal/../checksum.h **** }
 721              		.loc 4 42 59 view .LVU263
 722              	.LBE105:
 723              	.LBE104:
  88:mavlink/minimal/../checksum.h ****                 crc_accumulate(*p++, crcAccum);
 724              		.loc 4 88 15 view .LVU264
 725 0140 6246     		mov	r2, ip
 726              	.LVL70:
 727              	.L23:
  88:mavlink/minimal/../checksum.h ****                 crc_accumulate(*p++, crcAccum);
 728              		.loc 4 88 8 is_stmt 1 view .LVU265
  88:mavlink/minimal/../checksum.h ****                 crc_accumulate(*p++, crcAccum);
 729              		.loc 4 88 15 is_stmt 0 view .LVU266
 730 0142 02F1FF3C 		add	ip, r2, #-1
 731 0146 1FFA8CFC 		uxth	ip, ip
 732              	.LVL71:
  88:mavlink/minimal/../checksum.h ****                 crc_accumulate(*p++, crcAccum);
 733              		.loc 4 88 8 view .LVU267
 734 014a 002A     		cmp	r2, #0
 735 014c E6D1     		bne	.L24
 736              	.LVL72:
  88:mavlink/minimal/../checksum.h ****                 crc_accumulate(*p++, crcAccum);
 737              		.loc 4 88 8 view .LVU268
 738              	.LBE103:
 739              	.LBE102:
 273:mavlink/minimal/../mavlink_helpers.h **** 	crc_accumulate(crc_extra, &checksum);
 740              		.loc 3 273 2 is_stmt 1 view .LVU269
 741              	.LBB106:
 742              	.LBI106:
  35:mavlink/minimal/../checksum.h **** {
 743              		.loc 4 35 20 view .LVU270
 744              	.LBB107:
  38:mavlink/minimal/../checksum.h **** 
 745              		.loc 4 38 9 view .LVU271
  40:mavlink/minimal/../checksum.h ****         tmp ^= (tmp<<4);
 746              		.loc 4 40 9 view .LVU272
  40:mavlink/minimal/../checksum.h ****         tmp ^= (tmp<<4);
 747              		.loc 4 40 22 is_stmt 0 view .LVU273
 748 014e DAB2     		uxtb	r2, r3
  40:mavlink/minimal/../checksum.h ****         tmp ^= (tmp<<4);
 749              		.loc 4 40 13 view .LVU274
 750 0150 82F03202 		eor	r2, r2, #50
 751              	.LVL73:
  41:mavlink/minimal/../checksum.h ****         *crcAccum = (*crcAccum>>8) ^ (tmp<<8) ^ (tmp <<3) ^ (tmp>>4);
 752              		.loc 4 41 9 is_stmt 1 view .LVU275
ARM GAS  /tmp/ccNouMZU.s 			page 28


  41:mavlink/minimal/../checksum.h ****         *crcAccum = (*crcAccum>>8) ^ (tmp<<8) ^ (tmp <<3) ^ (tmp>>4);
 753              		.loc 4 41 13 is_stmt 0 view .LVU276
 754 0154 82EA0212 		eor	r2, r2, r2, lsl #4
 755              	.LVL74:
  41:mavlink/minimal/../checksum.h ****         *crcAccum = (*crcAccum>>8) ^ (tmp<<8) ^ (tmp <<3) ^ (tmp>>4);
 756              		.loc 4 41 13 view .LVU277
 757 0158 D2B2     		uxtb	r2, r2
 758              	.LVL75:
  42:mavlink/minimal/../checksum.h **** }
 759              		.loc 4 42 9 is_stmt 1 view .LVU278
  42:mavlink/minimal/../checksum.h **** }
 760              		.loc 4 42 36 is_stmt 0 view .LVU279
 761 015a 1B0A     		lsrs	r3, r3, #8
 762              	.LVL76:
  42:mavlink/minimal/../checksum.h **** }
 763              		.loc 4 42 36 view .LVU280
 764 015c 83EA0223 		eor	r3, r3, r2, lsl #8
 765 0160 1BB2     		sxth	r3, r3
  42:mavlink/minimal/../checksum.h **** }
 766              		.loc 4 42 47 view .LVU281
 767 0162 83EAC203 		eor	r3, r3, r2, lsl #3
  42:mavlink/minimal/../checksum.h **** }
 768              		.loc 4 42 59 view .LVU282
 769 0166 83EA1213 		eor	r3, r3, r2, lsr #4
 770              	.LVL77:
  42:mavlink/minimal/../checksum.h **** }
 771              		.loc 4 42 59 view .LVU283
 772              	.LBE107:
 773              	.LBE106:
 274:mavlink/minimal/../mavlink_helpers.h **** 	mavlink_ck_a(msg) = (uint8_t)(checksum & 0xFF);
 774              		.loc 3 274 2 is_stmt 1 view .LVU284
 775 016a 584A     		ldr	r2, .L111
 776 016c D078     		ldrb	r0, [r2, #3]	@ zero_extendqisi2
 777 016e 02F10C05 		add	r5, r2, #12
 778              		.loc 3 274 20 is_stmt 0 view .LVU285
 779 0172 2B54     		strb	r3, [r5, r0]
 275:mavlink/minimal/../mavlink_helpers.h **** 	mavlink_ck_b(msg) = (uint8_t)(checksum >> 8);
 780              		.loc 3 275 2 is_stmt 1 view .LVU286
 781 0174 D078     		ldrb	r0, [r2, #3]	@ zero_extendqisi2
 782 0176 0130     		adds	r0, r0, #1
 783              		.loc 3 275 22 is_stmt 0 view .LVU287
 784 0178 C3F30726 		ubfx	r6, r3, #8, #8
 785              		.loc 3 275 20 view .LVU288
 786 017c 2E54     		strb	r6, [r5, r0]
 276:mavlink/minimal/../mavlink_helpers.h **** 
 277:mavlink/minimal/../mavlink_helpers.h **** 	msg->checksum = checksum;
 787              		.loc 3 277 2 is_stmt 1 view .LVU289
 788              		.loc 3 277 16 is_stmt 0 view .LVU290
 789 017e 1380     		strh	r3, [r2]	@ movhi
 278:mavlink/minimal/../mavlink_helpers.h **** 
 279:mavlink/minimal/../mavlink_helpers.h **** #ifndef MAVLINK_NO_SIGN_PACKET
 280:mavlink/minimal/../mavlink_helpers.h **** 	if (signing) {
 790              		.loc 3 280 2 is_stmt 1 view .LVU291
 791              		.loc 3 280 5 is_stmt 0 view .LVU292
 792 0180 F9B9     		cbnz	r1, .L93
 793              	.LVL78:
 794              	.L25:
ARM GAS  /tmp/ccNouMZU.s 			page 29


 281:mavlink/minimal/../mavlink_helpers.h **** 		mavlink_sign_packet(status->signing,
 282:mavlink/minimal/../mavlink_helpers.h **** 				    msg->signature,
 283:mavlink/minimal/../mavlink_helpers.h **** 				    (const uint8_t *)buf, header_len,
 284:mavlink/minimal/../mavlink_helpers.h **** 				    (const uint8_t *)_MAV_PAYLOAD(msg), msg->len,
 285:mavlink/minimal/../mavlink_helpers.h **** 				    (const uint8_t *)_MAV_PAYLOAD(msg)+(uint16_t)msg->len);
 286:mavlink/minimal/../mavlink_helpers.h **** 	}
 287:mavlink/minimal/../mavlink_helpers.h **** #endif
 288:mavlink/minimal/../mavlink_helpers.h **** 
 289:mavlink/minimal/../mavlink_helpers.h **** 	return msg->len + header_len + 2 + signature_len;
 795              		.loc 3 289 2 is_stmt 1 view .LVU293
 796              		.loc 3 289 2 is_stmt 0 view .LVU294
 797              	.LBE91:
 798              	.LBE90:
 799              	.LBE89:
 800              	.LBE88:
 801              	.LBE87:
 802              	.LBE86:
 803              	.LBE85:
 167:Core/Src/freertos.c ****   /* USER CODE BEGIN USBTask_Run */
 168:Core/Src/freertos.c ****   IMU_Data_t imu;
 169:Core/Src/freertos.c ****   Barometer_Data_t baro;
 170:Core/Src/freertos.c ****   Attitude_Data_t attitude;
 171:Core/Src/freertos.c **** 
 172:Core/Src/freertos.c ****   /* Infinite loop */
 173:Core/Src/freertos.c ****   for(;;)
 174:Core/Src/freertos.c ****   {
 175:Core/Src/freertos.c ****     // SensorTask_GetIMU(&imu);
 176:Core/Src/freertos.c ****     SensorTask_GetBaro(&baro);
 177:Core/Src/freertos.c ****     SensorTask_GetAttitude(&attitude);
 178:Core/Src/freertos.c ****     
 179:Core/Src/freertos.c ****     char buffer[128];
 180:Core/Src/freertos.c ****     // snprintf(buffer, 128, "[IMU] Gyro(deg/s) >> X:%.2f, Y:%.2f, Z:%.2f | Acc(m/s2) >> X:%.2f, Y:
 181:Core/Src/freertos.c **** 
 182:Core/Src/freertos.c ****     // snprintf(buffer, 128, "[IMU] Pitch: %.2f, Roll: %.2f\r\n[BARO] Altitude: %.2fm, Pressure: %.
 183:Core/Src/freertos.c ****     // CDC_Transmit_FS(buffer, strlen(buffer));
 184:Core/Src/freertos.c **** 
 185:Core/Src/freertos.c ****     mavlink_msg_heartbeat_pack(1, 200, &msg, MAV_TYPE_QUADROTOR, MAV_AUTOPILOT_GENERIC, 0, 0, 0);
 186:Core/Src/freertos.c ****     len = mavlink_msg_to_send_buffer(buf, &msg);
 804              		.loc 2 186 5 is_stmt 1 view .LVU295
 805              	.LBB168:
 806              	.LBI168:
 290:mavlink/minimal/../mavlink_helpers.h **** }
 291:mavlink/minimal/../mavlink_helpers.h **** 
 292:mavlink/minimal/../mavlink_helpers.h **** MAVLINK_HELPER uint16_t mavlink_finalize_message_chan(mavlink_message_t* msg, uint8_t system_id, ui
 293:mavlink/minimal/../mavlink_helpers.h **** 						      uint8_t chan, uint8_t min_length, uint8_t length, uint8_t crc_extra)
 294:mavlink/minimal/../mavlink_helpers.h **** {
 295:mavlink/minimal/../mavlink_helpers.h **** 	mavlink_status_t *status = mavlink_get_channel_status(chan);
 296:mavlink/minimal/../mavlink_helpers.h **** 	return mavlink_finalize_message_buffer(msg, system_id, component_id, status, min_length, length, c
 297:mavlink/minimal/../mavlink_helpers.h **** }
 298:mavlink/minimal/../mavlink_helpers.h **** 
 299:mavlink/minimal/../mavlink_helpers.h **** /**
 300:mavlink/minimal/../mavlink_helpers.h ****  * @brief Finalize a MAVLink message with MAVLINK_COMM_0 as default channel
 301:mavlink/minimal/../mavlink_helpers.h ****  */
 302:mavlink/minimal/../mavlink_helpers.h **** MAVLINK_HELPER uint16_t mavlink_finalize_message(mavlink_message_t* msg, uint8_t system_id, uint8_t
 303:mavlink/minimal/../mavlink_helpers.h **** 						 uint8_t min_length, uint8_t length, uint8_t crc_extra)
 304:mavlink/minimal/../mavlink_helpers.h **** {
 305:mavlink/minimal/../mavlink_helpers.h ****     return mavlink_finalize_message_chan(msg, system_id, component_id, MAVLINK_COMM_0, min_length, 
ARM GAS  /tmp/ccNouMZU.s 			page 30


 306:mavlink/minimal/../mavlink_helpers.h **** }
 307:mavlink/minimal/../mavlink_helpers.h **** 
 308:mavlink/minimal/../mavlink_helpers.h **** static inline void _mav_parse_error(mavlink_status_t *status)
 309:mavlink/minimal/../mavlink_helpers.h **** {
 310:mavlink/minimal/../mavlink_helpers.h ****     status->parse_error++;
 311:mavlink/minimal/../mavlink_helpers.h **** }
 312:mavlink/minimal/../mavlink_helpers.h **** 
 313:mavlink/minimal/../mavlink_helpers.h **** #ifdef MAVLINK_USE_CONVENIENCE_FUNCTIONS
 314:mavlink/minimal/../mavlink_helpers.h **** MAVLINK_HELPER void _mavlink_send_uart(mavlink_channel_t chan, const char *buf, uint16_t len);
 315:mavlink/minimal/../mavlink_helpers.h **** 
 316:mavlink/minimal/../mavlink_helpers.h **** /**
 317:mavlink/minimal/../mavlink_helpers.h ****  * @brief Finalize a MAVLink message with channel assignment and send
 318:mavlink/minimal/../mavlink_helpers.h ****  */
 319:mavlink/minimal/../mavlink_helpers.h **** MAVLINK_HELPER void _mav_finalize_message_chan_send(mavlink_channel_t chan, uint32_t msgid,
 320:mavlink/minimal/../mavlink_helpers.h ****                                                     const char *packet, 
 321:mavlink/minimal/../mavlink_helpers.h **** 						    uint8_t min_length, uint8_t length, uint8_t crc_extra)
 322:mavlink/minimal/../mavlink_helpers.h **** {
 323:mavlink/minimal/../mavlink_helpers.h **** 	uint16_t checksum;
 324:mavlink/minimal/../mavlink_helpers.h **** 	uint8_t buf[MAVLINK_NUM_HEADER_BYTES];
 325:mavlink/minimal/../mavlink_helpers.h **** 	uint8_t ck[2];
 326:mavlink/minimal/../mavlink_helpers.h **** 	mavlink_status_t *status = mavlink_get_channel_status(chan);
 327:mavlink/minimal/../mavlink_helpers.h ****         uint8_t header_len = MAVLINK_CORE_HEADER_LEN;
 328:mavlink/minimal/../mavlink_helpers.h **** 	uint8_t signature_len = 0;
 329:mavlink/minimal/../mavlink_helpers.h **** 	uint8_t signature[MAVLINK_SIGNATURE_BLOCK_LEN];
 330:mavlink/minimal/../mavlink_helpers.h **** 	bool mavlink1 = (status->flags & MAVLINK_STATUS_FLAG_OUT_MAVLINK1) != 0;
 331:mavlink/minimal/../mavlink_helpers.h **** 	bool signing = 	(!mavlink1) && status->signing && (status->signing->flags & MAVLINK_SIGNING_FLAG_S
 332:mavlink/minimal/../mavlink_helpers.h **** 
 333:mavlink/minimal/../mavlink_helpers.h ****         if (mavlink1) {
 334:mavlink/minimal/../mavlink_helpers.h ****             length = min_length;
 335:mavlink/minimal/../mavlink_helpers.h ****             if (msgid > 255) {
 336:mavlink/minimal/../mavlink_helpers.h ****                 // can't send 16 bit messages
 337:mavlink/minimal/../mavlink_helpers.h ****                 _mav_parse_error(status);
 338:mavlink/minimal/../mavlink_helpers.h ****                 return;
 339:mavlink/minimal/../mavlink_helpers.h ****             }
 340:mavlink/minimal/../mavlink_helpers.h ****             header_len = MAVLINK_CORE_HEADER_MAVLINK1_LEN;
 341:mavlink/minimal/../mavlink_helpers.h ****             buf[0] = MAVLINK_STX_MAVLINK1;
 342:mavlink/minimal/../mavlink_helpers.h ****             buf[1] = length;
 343:mavlink/minimal/../mavlink_helpers.h ****             buf[2] = status->current_tx_seq;
 344:mavlink/minimal/../mavlink_helpers.h ****             buf[3] = mavlink_system.sysid;
 345:mavlink/minimal/../mavlink_helpers.h ****             buf[4] = mavlink_system.compid;
 346:mavlink/minimal/../mavlink_helpers.h ****             buf[5] = msgid & 0xFF;
 347:mavlink/minimal/../mavlink_helpers.h ****         } else {
 348:mavlink/minimal/../mavlink_helpers.h **** 	    uint8_t incompat_flags = 0;
 349:mavlink/minimal/../mavlink_helpers.h **** 	    if (signing) {
 350:mavlink/minimal/../mavlink_helpers.h **** 		incompat_flags |= MAVLINK_IFLAG_SIGNED;
 351:mavlink/minimal/../mavlink_helpers.h **** 	    }
 352:mavlink/minimal/../mavlink_helpers.h ****             length = _mav_trim_payload(packet, length);
 353:mavlink/minimal/../mavlink_helpers.h ****             buf[0] = MAVLINK_STX;
 354:mavlink/minimal/../mavlink_helpers.h ****             buf[1] = length;
 355:mavlink/minimal/../mavlink_helpers.h ****             buf[2] = incompat_flags;
 356:mavlink/minimal/../mavlink_helpers.h ****             buf[3] = 0; // compat_flags
 357:mavlink/minimal/../mavlink_helpers.h ****             buf[4] = status->current_tx_seq;
 358:mavlink/minimal/../mavlink_helpers.h ****             buf[5] = mavlink_system.sysid;
 359:mavlink/minimal/../mavlink_helpers.h ****             buf[6] = mavlink_system.compid;
 360:mavlink/minimal/../mavlink_helpers.h ****             buf[7] = msgid & 0xFF;
 361:mavlink/minimal/../mavlink_helpers.h ****             buf[8] = (msgid >> 8) & 0xFF;
 362:mavlink/minimal/../mavlink_helpers.h ****             buf[9] = (msgid >> 16) & 0xFF;
ARM GAS  /tmp/ccNouMZU.s 			page 31


 363:mavlink/minimal/../mavlink_helpers.h ****         }
 364:mavlink/minimal/../mavlink_helpers.h **** 	status->current_tx_seq++;
 365:mavlink/minimal/../mavlink_helpers.h **** 	checksum = crc_calculate((const uint8_t*)&buf[1], header_len);
 366:mavlink/minimal/../mavlink_helpers.h **** 	crc_accumulate_buffer(&checksum, packet, length);
 367:mavlink/minimal/../mavlink_helpers.h **** 	crc_accumulate(crc_extra, &checksum);
 368:mavlink/minimal/../mavlink_helpers.h **** 	ck[0] = (uint8_t)(checksum & 0xFF);
 369:mavlink/minimal/../mavlink_helpers.h **** 	ck[1] = (uint8_t)(checksum >> 8);
 370:mavlink/minimal/../mavlink_helpers.h **** 
 371:mavlink/minimal/../mavlink_helpers.h **** #ifndef MAVLINK_NO_SIGN_PACKET
 372:mavlink/minimal/../mavlink_helpers.h **** 	if (signing) {
 373:mavlink/minimal/../mavlink_helpers.h **** 		// possibly add a signature
 374:mavlink/minimal/../mavlink_helpers.h **** 		signature_len = mavlink_sign_packet(status->signing, signature, buf, header_len+1,
 375:mavlink/minimal/../mavlink_helpers.h **** 						    (const uint8_t *)packet, length, ck);
 376:mavlink/minimal/../mavlink_helpers.h **** 	}
 377:mavlink/minimal/../mavlink_helpers.h **** #endif
 378:mavlink/minimal/../mavlink_helpers.h **** 
 379:mavlink/minimal/../mavlink_helpers.h **** 	MAVLINK_START_UART_SEND(chan, header_len + 3 + (uint16_t)length + (uint16_t)signature_len);
 380:mavlink/minimal/../mavlink_helpers.h **** 	_mavlink_send_uart(chan, (const char *)buf, header_len+1);
 381:mavlink/minimal/../mavlink_helpers.h **** 	_mavlink_send_uart(chan, packet, length);
 382:mavlink/minimal/../mavlink_helpers.h **** 	_mavlink_send_uart(chan, (const char *)ck, 2);
 383:mavlink/minimal/../mavlink_helpers.h **** 	if (signature_len != 0) {
 384:mavlink/minimal/../mavlink_helpers.h **** 		_mavlink_send_uart(chan, (const char *)signature, signature_len);
 385:mavlink/minimal/../mavlink_helpers.h **** 	}
 386:mavlink/minimal/../mavlink_helpers.h **** 	MAVLINK_END_UART_SEND(chan, header_len + 3 + (uint16_t)length + (uint16_t)signature_len);
 387:mavlink/minimal/../mavlink_helpers.h **** }
 388:mavlink/minimal/../mavlink_helpers.h **** 
 389:mavlink/minimal/../mavlink_helpers.h **** /**
 390:mavlink/minimal/../mavlink_helpers.h ****  * @brief re-send a message over a uart channel
 391:mavlink/minimal/../mavlink_helpers.h ****  * this is more stack efficient than re-marshalling the message
 392:mavlink/minimal/../mavlink_helpers.h ****  * If the message is signed then the original signature is also sent
 393:mavlink/minimal/../mavlink_helpers.h ****  */
 394:mavlink/minimal/../mavlink_helpers.h **** MAVLINK_HELPER void _mavlink_resend_uart(mavlink_channel_t chan, const mavlink_message_t *msg)
 395:mavlink/minimal/../mavlink_helpers.h **** {
 396:mavlink/minimal/../mavlink_helpers.h **** 	uint8_t ck[2];
 397:mavlink/minimal/../mavlink_helpers.h **** 
 398:mavlink/minimal/../mavlink_helpers.h **** 	ck[0] = (uint8_t)(msg->checksum & 0xFF);
 399:mavlink/minimal/../mavlink_helpers.h **** 	ck[1] = (uint8_t)(msg->checksum >> 8);
 400:mavlink/minimal/../mavlink_helpers.h **** 	// XXX use the right sequence here
 401:mavlink/minimal/../mavlink_helpers.h **** 
 402:mavlink/minimal/../mavlink_helpers.h ****         uint8_t header_len;
 403:mavlink/minimal/../mavlink_helpers.h ****         uint8_t signature_len;
 404:mavlink/minimal/../mavlink_helpers.h ****         
 405:mavlink/minimal/../mavlink_helpers.h ****         if (msg->magic == MAVLINK_STX_MAVLINK1) {
 406:mavlink/minimal/../mavlink_helpers.h ****             header_len = MAVLINK_CORE_HEADER_MAVLINK1_LEN + 1;
 407:mavlink/minimal/../mavlink_helpers.h ****             signature_len = 0;
 408:mavlink/minimal/../mavlink_helpers.h ****             MAVLINK_START_UART_SEND(chan, header_len + msg->len + 2 + signature_len);
 409:mavlink/minimal/../mavlink_helpers.h ****             // we can't send the structure directly as it has extra mavlink2 elements in it
 410:mavlink/minimal/../mavlink_helpers.h ****             uint8_t buf[MAVLINK_CORE_HEADER_MAVLINK1_LEN + 1];
 411:mavlink/minimal/../mavlink_helpers.h ****             buf[0] = msg->magic;
 412:mavlink/minimal/../mavlink_helpers.h ****             buf[1] = msg->len;
 413:mavlink/minimal/../mavlink_helpers.h ****             buf[2] = msg->seq;
 414:mavlink/minimal/../mavlink_helpers.h ****             buf[3] = msg->sysid;
 415:mavlink/minimal/../mavlink_helpers.h ****             buf[4] = msg->compid;
 416:mavlink/minimal/../mavlink_helpers.h ****             buf[5] = msg->msgid & 0xFF;
 417:mavlink/minimal/../mavlink_helpers.h ****             _mavlink_send_uart(chan, (const char*)buf, header_len);
 418:mavlink/minimal/../mavlink_helpers.h ****         } else {
 419:mavlink/minimal/../mavlink_helpers.h ****             header_len = MAVLINK_CORE_HEADER_LEN + 1;
ARM GAS  /tmp/ccNouMZU.s 			page 32


 420:mavlink/minimal/../mavlink_helpers.h ****             signature_len = (msg->incompat_flags & MAVLINK_IFLAG_SIGNED)?MAVLINK_SIGNATURE_BLOCK_LE
 421:mavlink/minimal/../mavlink_helpers.h ****             MAVLINK_START_UART_SEND(chan, header_len + msg->len + 2 + signature_len);
 422:mavlink/minimal/../mavlink_helpers.h ****             uint8_t buf[MAVLINK_CORE_HEADER_LEN + 1];
 423:mavlink/minimal/../mavlink_helpers.h ****             buf[0] = msg->magic;
 424:mavlink/minimal/../mavlink_helpers.h ****             buf[1] = msg->len;
 425:mavlink/minimal/../mavlink_helpers.h ****             buf[2] = msg->incompat_flags;
 426:mavlink/minimal/../mavlink_helpers.h ****             buf[3] = msg->compat_flags;
 427:mavlink/minimal/../mavlink_helpers.h ****             buf[4] = msg->seq;
 428:mavlink/minimal/../mavlink_helpers.h ****             buf[5] = msg->sysid;
 429:mavlink/minimal/../mavlink_helpers.h ****             buf[6] = msg->compid;
 430:mavlink/minimal/../mavlink_helpers.h ****             buf[7] = msg->msgid & 0xFF;
 431:mavlink/minimal/../mavlink_helpers.h ****             buf[8] = (msg->msgid >> 8) & 0xFF;
 432:mavlink/minimal/../mavlink_helpers.h ****             buf[9] = (msg->msgid >> 16) & 0xFF;
 433:mavlink/minimal/../mavlink_helpers.h ****             _mavlink_send_uart(chan, (const char *)buf, header_len);
 434:mavlink/minimal/../mavlink_helpers.h ****         }
 435:mavlink/minimal/../mavlink_helpers.h **** 	_mavlink_send_uart(chan, _MAV_PAYLOAD(msg), msg->len);
 436:mavlink/minimal/../mavlink_helpers.h **** 	_mavlink_send_uart(chan, (const char *)ck, 2);
 437:mavlink/minimal/../mavlink_helpers.h ****         if (signature_len != 0) {
 438:mavlink/minimal/../mavlink_helpers.h **** 	    _mavlink_send_uart(chan, (const char *)msg->signature, MAVLINK_SIGNATURE_BLOCK_LEN);
 439:mavlink/minimal/../mavlink_helpers.h ****         }
 440:mavlink/minimal/../mavlink_helpers.h ****         MAVLINK_END_UART_SEND(chan, header_len + msg->len + 2 + signature_len);
 441:mavlink/minimal/../mavlink_helpers.h **** }
 442:mavlink/minimal/../mavlink_helpers.h **** #endif // MAVLINK_USE_CONVENIENCE_FUNCTIONS
 443:mavlink/minimal/../mavlink_helpers.h **** 
 444:mavlink/minimal/../mavlink_helpers.h **** /**
 445:mavlink/minimal/../mavlink_helpers.h ****  * @brief Pack a message to send it over a serial byte stream
 446:mavlink/minimal/../mavlink_helpers.h ****  */
 447:mavlink/minimal/../mavlink_helpers.h **** MAVLINK_HELPER uint16_t mavlink_msg_to_send_buffer(uint8_t *buf, const mavlink_message_t *msg)
 807              		.loc 3 447 25 view .LVU296
 808              	.LBB169:
 448:mavlink/minimal/../mavlink_helpers.h **** {
 449:mavlink/minimal/../mavlink_helpers.h **** 	uint8_t signature_len, header_len;
 809              		.loc 3 449 2 view .LVU297
 450:mavlink/minimal/../mavlink_helpers.h **** 	uint8_t *ck;
 810              		.loc 3 450 2 view .LVU298
 451:mavlink/minimal/../mavlink_helpers.h ****         uint8_t length = msg->len;
 811              		.loc 3 451 9 view .LVU299
 812              		.loc 3 451 17 is_stmt 0 view .LVU300
 813 0182 524B     		ldr	r3, .L111
 814 0184 DC78     		ldrb	r4, [r3, #3]	@ zero_extendqisi2
 815              	.LVL79:
 452:mavlink/minimal/../mavlink_helpers.h ****         
 453:mavlink/minimal/../mavlink_helpers.h **** 	if (msg->magic == MAVLINK_STX_MAVLINK1) {
 816              		.loc 3 453 2 is_stmt 1 view .LVU301
 817              		.loc 3 453 9 is_stmt 0 view .LVU302
 818 0186 9A78     		ldrb	r2, [r3, #2]	@ zero_extendqisi2
 819              		.loc 3 453 5 view .LVU303
 820 0188 FE2A     		cmp	r2, #254
 821 018a 40F04382 		bne	.L69
 454:mavlink/minimal/../mavlink_helpers.h **** 		signature_len = 0;
 822              		.loc 3 454 3 is_stmt 1 view .LVU304
 823              	.LVL80:
 455:mavlink/minimal/../mavlink_helpers.h **** 		header_len = MAVLINK_CORE_HEADER_MAVLINK1_LEN;
 824              		.loc 3 455 3 view .LVU305
 456:mavlink/minimal/../mavlink_helpers.h **** 		buf[0] = msg->magic;
 825              		.loc 3 456 3 view .LVU306
 826              		.loc 3 456 10 is_stmt 0 view .LVU307
ARM GAS  /tmp/ccNouMZU.s 			page 33


 827 018e 514D     		ldr	r5, .L111+8
 828 0190 2A70     		strb	r2, [r5]
 457:mavlink/minimal/../mavlink_helpers.h **** 		buf[1] = length;
 829              		.loc 3 457 3 is_stmt 1 view .LVU308
 830              		.loc 3 457 10 is_stmt 0 view .LVU309
 831 0192 6C70     		strb	r4, [r5, #1]
 458:mavlink/minimal/../mavlink_helpers.h **** 		buf[2] = msg->seq;
 832              		.loc 3 458 3 is_stmt 1 view .LVU310
 833              		.loc 3 458 15 is_stmt 0 view .LVU311
 834 0194 1E46     		mov	r6, r3
 835 0196 9B79     		ldrb	r3, [r3, #6]	@ zero_extendqisi2
 836              		.loc 3 458 10 view .LVU312
 837 0198 AB70     		strb	r3, [r5, #2]
 459:mavlink/minimal/../mavlink_helpers.h **** 		buf[3] = msg->sysid;
 838              		.loc 3 459 3 is_stmt 1 view .LVU313
 839              		.loc 3 459 15 is_stmt 0 view .LVU314
 840 019a F379     		ldrb	r3, [r6, #7]	@ zero_extendqisi2
 841              		.loc 3 459 10 view .LVU315
 842 019c EB70     		strb	r3, [r5, #3]
 460:mavlink/minimal/../mavlink_helpers.h **** 		buf[4] = msg->compid;
 843              		.loc 3 460 3 is_stmt 1 view .LVU316
 844              		.loc 3 460 15 is_stmt 0 view .LVU317
 845 019e 337A     		ldrb	r3, [r6, #8]	@ zero_extendqisi2
 846              		.loc 3 460 10 view .LVU318
 847 01a0 2B71     		strb	r3, [r5, #4]
 461:mavlink/minimal/../mavlink_helpers.h **** 		buf[5] = msg->msgid & 0xFF;
 848              		.loc 3 461 3 is_stmt 1 view .LVU319
 849              		.loc 3 461 15 is_stmt 0 view .LVU320
 850 01a2 B368     		ldr	r3, [r6, #8]
 851 01a4 C3F31723 		ubfx	r3, r3, #8, #24
 852              		.loc 3 461 10 view .LVU321
 853 01a8 6B71     		strb	r3, [r5, #5]
 462:mavlink/minimal/../mavlink_helpers.h **** 		memcpy(&buf[6], _MAV_PAYLOAD(msg), msg->len);
 854              		.loc 3 462 3 is_stmt 1 view .LVU322
 855 01aa 2246     		mov	r2, r4
 856 01ac 06F10C01 		add	r1, r6, #12
 857 01b0 A81D     		adds	r0, r5, #6
 858 01b2 FFF7FEFF 		bl	memcpy
 859              	.LVL81:
 463:mavlink/minimal/../mavlink_helpers.h **** 		ck = buf + header_len + 1 + (uint16_t)msg->len;
 860              		.loc 3 463 3 view .LVU323
 861              		.loc 3 463 44 is_stmt 0 view .LVU324
 862 01b6 F078     		ldrb	r0, [r6, #3]	@ zero_extendqisi2
 863              		.loc 3 463 29 view .LVU325
 864 01b8 0630     		adds	r0, r0, #6
 865              		.loc 3 463 6 view .LVU326
 866 01ba 2844     		add	r0, r0, r5
 867              	.LVL82:
 455:mavlink/minimal/../mavlink_helpers.h **** 		buf[0] = msg->magic;
 868              		.loc 3 455 14 view .LVU327
 869 01bc 0526     		movs	r6, #5
 454:mavlink/minimal/../mavlink_helpers.h **** 		header_len = MAVLINK_CORE_HEADER_MAVLINK1_LEN;
 870              		.loc 3 454 17 view .LVU328
 871 01be 0027     		movs	r7, #0
 872 01c0 55E2     		b	.L70
 873              	.LVL83:
 874              	.L93:
ARM GAS  /tmp/ccNouMZU.s 			page 34


 454:mavlink/minimal/../mavlink_helpers.h **** 		header_len = MAVLINK_CORE_HEADER_MAVLINK1_LEN;
 875              		.loc 3 454 17 view .LVU329
 876              	.LBE169:
 877              	.LBE168:
 878              	.LBB174:
 879              	.LBB164:
 880              	.LBB160:
 881              	.LBB157:
 882              	.LBB154:
 883              	.LBB152:
 884              	.LBB150:
 281:mavlink/minimal/../mavlink_helpers.h **** 				    msg->signature,
 885              		.loc 3 281 3 is_stmt 1 view .LVU330
 281:mavlink/minimal/../mavlink_helpers.h **** 				    msg->signature,
 886              		.loc 3 281 29 is_stmt 0 view .LVU331
 887 01c2 434B     		ldr	r3, .L111+4
 888              	.LVL84:
 281:mavlink/minimal/../mavlink_helpers.h **** 				    msg->signature,
 889              		.loc 3 281 29 view .LVU332
 890 01c4 1F69     		ldr	r7, [r3, #16]
 281:mavlink/minimal/../mavlink_helpers.h **** 				    msg->signature,
 891              		.loc 3 281 3 view .LVU333
 892 01c6 1546     		mov	r5, r2
 893 01c8 92F80380 		ldrb	r8, [r2, #3]	@ zero_extendqisi2
 894 01cc 0C35     		adds	r5, r5, #12
 895 01ce 4544     		add	r5, r5, r8
 896              	.LVL85:
 897              	.LBB108:
 898              	.LBI108:
  73:mavlink/minimal/../mavlink_helpers.h **** 					   uint8_t signature[MAVLINK_SIGNATURE_BLOCK_LEN],
 899              		.loc 3 73 24 is_stmt 1 view .LVU334
 900              	.LBB109:
  79:mavlink/minimal/../mavlink_helpers.h **** 	union {
 901              		.loc 3 79 2 view .LVU335
  80:mavlink/minimal/../mavlink_helpers.h **** 	    uint64_t t64;
 902              		.loc 3 80 2 view .LVU336
  84:mavlink/minimal/../mavlink_helpers.h **** 	    return 0;
 903              		.loc 3 84 2 view .LVU337
  84:mavlink/minimal/../mavlink_helpers.h **** 	    return 0;
 904              		.loc 3 84 5 is_stmt 0 view .LVU338
 905 01d0 002F     		cmp	r7, #0
 906 01d2 D6D0     		beq	.L25
  84:mavlink/minimal/../mavlink_helpers.h **** 	    return 0;
 907              		.loc 3 84 34 view .LVU339
 908 01d4 3B78     		ldrb	r3, [r7]	@ zero_extendqisi2
  84:mavlink/minimal/../mavlink_helpers.h **** 	    return 0;
 909              		.loc 3 84 22 view .LVU340
 910 01d6 13F0010F 		tst	r3, #1
 911 01da D2D0     		beq	.L25
  87:mavlink/minimal/../mavlink_helpers.h **** 	tstamp.t64 = signing->timestamp;
 912              		.loc 3 87 2 is_stmt 1 view .LVU341
  87:mavlink/minimal/../mavlink_helpers.h **** 	tstamp.t64 = signing->timestamp;
 913              		.loc 3 87 24 is_stmt 0 view .LVU342
 914 01dc 7A78     		ldrb	r2, [r7, #1]	@ zero_extendqisi2
  87:mavlink/minimal/../mavlink_helpers.h **** 	tstamp.t64 = signing->timestamp;
 915              		.loc 3 87 15 view .LVU343
 916 01de 3B4B     		ldr	r3, .L111
ARM GAS  /tmp/ccNouMZU.s 			page 35


 917 01e0 83F81621 		strb	r2, [r3, #278]
  88:mavlink/minimal/../mavlink_helpers.h **** 	memcpy(&signature[1], tstamp.t8, 6);
 918              		.loc 3 88 2 is_stmt 1 view .LVU344
  88:mavlink/minimal/../mavlink_helpers.h **** 	memcpy(&signature[1], tstamp.t8, 6);
 919              		.loc 3 88 22 is_stmt 0 view .LVU345
 920 01e4 D7E90201 		ldrd	r0, [r7, #8]
  88:mavlink/minimal/../mavlink_helpers.h **** 	memcpy(&signature[1], tstamp.t8, 6);
 921              		.loc 3 88 13 view .LVU346
 922 01e8 CDE90001 		strd	r0, [sp]
  89:mavlink/minimal/../mavlink_helpers.h **** 	signing->timestamp++;
 923              		.loc 3 89 2 is_stmt 1 view .LVU347
 924 01ec 0098     		ldr	r0, [sp]
 925 01ee C3F81701 		str	r0, [r3, #279]	@ unaligned
 926 01f2 BDF80420 		ldrh	r2, [sp, #4]	@ unaligned
 927 01f6 A3F81B21 		strh	r2, [r3, #283]	@ unaligned
  90:mavlink/minimal/../mavlink_helpers.h **** 	
 928              		.loc 3 90 2 view .LVU348
  90:mavlink/minimal/../mavlink_helpers.h **** 	
 929              		.loc 3 90 9 is_stmt 0 view .LVU349
 930 01fa BB68     		ldr	r3, [r7, #8]
 931 01fc FA68     		ldr	r2, [r7, #12]
  90:mavlink/minimal/../mavlink_helpers.h **** 	
 932              		.loc 3 90 20 view .LVU350
 933 01fe 0133     		adds	r3, r3, #1
 934 0200 42F10002 		adc	r2, r2, #0
 935 0204 BB60     		str	r3, [r7, #8]
 936              	.LVL86:
  90:mavlink/minimal/../mavlink_helpers.h **** 	
 937              		.loc 3 90 20 view .LVU351
 938 0206 FA60     		str	r2, [r7, #12]
  92:mavlink/minimal/../mavlink_helpers.h **** 	mavlink_sha256_update(&ctx, signing->secret_key, sizeof(signing->secret_key));
 939              		.loc 3 92 2 is_stmt 1 view .LVU352
 940              	.LVL87:
 941              	.LBB110:
 942              	.LBI110:
  91:mavlink/minimal/../mavlink_sha256.h **** {
 943              		.loc 1 91 21 view .LVU353
 944              	.LBB111:
  93:mavlink/minimal/../mavlink_sha256.h ****     m->sz[1] = 0;
 945              		.loc 1 93 5 view .LVU354
  93:mavlink/minimal/../mavlink_sha256.h ****     m->sz[1] = 0;
 946              		.loc 1 93 14 is_stmt 0 view .LVU355
 947 0208 0023     		movs	r3, #0
 948 020a 2B93     		str	r3, [sp, #172]
  94:mavlink/minimal/../mavlink_sha256.h ****     m->counter[0] = 0x6a09e667;
 949              		.loc 1 94 5 is_stmt 1 view .LVU356
  94:mavlink/minimal/../mavlink_sha256.h ****     m->counter[0] = 0x6a09e667;
 950              		.loc 1 94 14 is_stmt 0 view .LVU357
 951 020c 2C93     		str	r3, [sp, #176]
  95:mavlink/minimal/../mavlink_sha256.h ****     m->counter[1] = 0xbb67ae85;
 952              		.loc 1 95 5 is_stmt 1 view .LVU358
  95:mavlink/minimal/../mavlink_sha256.h ****     m->counter[1] = 0xbb67ae85;
 953              		.loc 1 95 19 is_stmt 0 view .LVU359
 954 020e 324A     		ldr	r2, .L111+12
 955 0210 2D92     		str	r2, [sp, #180]
  96:mavlink/minimal/../mavlink_sha256.h ****     m->counter[2] = 0x3c6ef372;
 956              		.loc 1 96 5 is_stmt 1 view .LVU360
ARM GAS  /tmp/ccNouMZU.s 			page 36


  96:mavlink/minimal/../mavlink_sha256.h ****     m->counter[2] = 0x3c6ef372;
 957              		.loc 1 96 19 is_stmt 0 view .LVU361
 958 0212 324A     		ldr	r2, .L111+16
 959 0214 2E92     		str	r2, [sp, #184]
  97:mavlink/minimal/../mavlink_sha256.h ****     m->counter[3] = 0xa54ff53a;
 960              		.loc 1 97 5 is_stmt 1 view .LVU362
  97:mavlink/minimal/../mavlink_sha256.h ****     m->counter[3] = 0xa54ff53a;
 961              		.loc 1 97 19 is_stmt 0 view .LVU363
 962 0216 324A     		ldr	r2, .L111+20
 963 0218 2F92     		str	r2, [sp, #188]
  98:mavlink/minimal/../mavlink_sha256.h ****     m->counter[4] = 0x510e527f;
 964              		.loc 1 98 5 is_stmt 1 view .LVU364
  98:mavlink/minimal/../mavlink_sha256.h ****     m->counter[4] = 0x510e527f;
 965              		.loc 1 98 19 is_stmt 0 view .LVU365
 966 021a 324A     		ldr	r2, .L111+24
 967 021c 3092     		str	r2, [sp, #192]
  99:mavlink/minimal/../mavlink_sha256.h ****     m->counter[5] = 0x9b05688c;
 968              		.loc 1 99 5 is_stmt 1 view .LVU366
  99:mavlink/minimal/../mavlink_sha256.h ****     m->counter[5] = 0x9b05688c;
 969              		.loc 1 99 19 is_stmt 0 view .LVU367
 970 021e 324A     		ldr	r2, .L111+28
 971 0220 3192     		str	r2, [sp, #196]
 100:mavlink/minimal/../mavlink_sha256.h ****     m->counter[6] = 0x1f83d9ab;
 972              		.loc 1 100 5 is_stmt 1 view .LVU368
 100:mavlink/minimal/../mavlink_sha256.h ****     m->counter[6] = 0x1f83d9ab;
 973              		.loc 1 100 19 is_stmt 0 view .LVU369
 974 0222 324A     		ldr	r2, .L111+32
 975 0224 3292     		str	r2, [sp, #200]
 101:mavlink/minimal/../mavlink_sha256.h ****     m->counter[7] = 0x5be0cd19;
 976              		.loc 1 101 5 is_stmt 1 view .LVU370
 101:mavlink/minimal/../mavlink_sha256.h ****     m->counter[7] = 0x5be0cd19;
 977              		.loc 1 101 19 is_stmt 0 view .LVU371
 978 0226 324A     		ldr	r2, .L111+36
 979 0228 3392     		str	r2, [sp, #204]
 102:mavlink/minimal/../mavlink_sha256.h **** }
 980              		.loc 1 102 5 is_stmt 1 view .LVU372
 102:mavlink/minimal/../mavlink_sha256.h **** }
 981              		.loc 1 102 19 is_stmt 0 view .LVU373
 982 022a 02F17452 		add	r2, r2, #1023410176
 983 022e A2F52302 		sub	r2, r2, #10682368
 984 0232 A2F69242 		subw	r2, r2, #3218
 985 0236 3492     		str	r2, [sp, #208]
 986              	.LVL88:
 102:mavlink/minimal/../mavlink_sha256.h **** }
 987              		.loc 1 102 19 view .LVU374
 988              	.LBE111:
 989              	.LBE110:
  93:mavlink/minimal/../mavlink_helpers.h **** 	mavlink_sha256_update(&ctx, header, header_len);
 990              		.loc 3 93 2 is_stmt 1 view .LVU375
  93:mavlink/minimal/../mavlink_helpers.h **** 	mavlink_sha256_update(&ctx, header, header_len);
 991              		.loc 3 93 37 is_stmt 0 view .LVU376
 992 0238 1037     		adds	r7, r7, #16
 993              	.LVL89:
 994              	.LBB112:
 995              	.LBI112:
 151:mavlink/minimal/../mavlink_sha256.h **** 
 152:mavlink/minimal/../mavlink_sha256.h **** MAVLINK_HELPER void mavlink_sha256_update(mavlink_sha256_ctx *m, const void *v, uint32_t len)
ARM GAS  /tmp/ccNouMZU.s 			page 37


 996              		.loc 1 152 21 is_stmt 1 view .LVU377
 997              	.LBB113:
 153:mavlink/minimal/../mavlink_sha256.h **** {
 154:mavlink/minimal/../mavlink_sha256.h ****     const unsigned char *p = (const unsigned char *)v;
 998              		.loc 1 154 5 view .LVU378
 155:mavlink/minimal/../mavlink_sha256.h ****     uint32_t old_sz = m->sz[0];
 999              		.loc 1 155 5 view .LVU379
 156:mavlink/minimal/../mavlink_sha256.h ****     uint32_t offset;
 1000              		.loc 1 156 5 view .LVU380
 157:mavlink/minimal/../mavlink_sha256.h **** 
 158:mavlink/minimal/../mavlink_sha256.h ****     m->sz[0] += len * 8;
 1001              		.loc 1 158 5 view .LVU381
 1002              		.loc 1 158 14 is_stmt 0 view .LVU382
 1003 023a 4FF48072 		mov	r2, #256
 1004 023e 2B92     		str	r2, [sp, #172]
 159:mavlink/minimal/../mavlink_sha256.h ****     if (m->sz[0] < old_sz)
 1005              		.loc 1 159 5 is_stmt 1 view .LVU383
 160:mavlink/minimal/../mavlink_sha256.h **** 	++m->sz[1];
 161:mavlink/minimal/../mavlink_sha256.h ****     offset = (old_sz / 8) % 64;
 1006              		.loc 1 161 5 view .LVU384
 1007              		.loc 1 161 12 is_stmt 0 view .LVU385
 1008 0240 9A46     		mov	r10, r3
 1009              	.LVL90:
 162:mavlink/minimal/../mavlink_sha256.h ****     while(len > 0){
 1010              		.loc 1 162 5 is_stmt 1 view .LVU386
 1011              		.loc 1 162 10 is_stmt 0 view .LVU387
 1012 0242 2026     		movs	r6, #32
 1013 0244 0DE0     		b	.L28
 1014              	.LVL91:
 1015              	.L29:
 1016              	.LBB114:
 163:mavlink/minimal/../mavlink_sha256.h **** 	uint32_t l = 64 - offset;
 164:mavlink/minimal/../mavlink_sha256.h ****         if (len < l) {
 165:mavlink/minimal/../mavlink_sha256.h ****             l = len;
 166:mavlink/minimal/../mavlink_sha256.h ****         }
 167:mavlink/minimal/../mavlink_sha256.h **** 	memcpy(m->u.save_bytes + offset, p, l);
 1017              		.loc 1 167 2 is_stmt 1 view .LVU388
 1018 0246 4A46     		mov	r2, r9
 1019 0248 3946     		mov	r1, r7
 1020 024a 35AB     		add	r3, sp, #212
 1021 024c 03EB0A00 		add	r0, r3, r10
 1022 0250 FFF7FEFF 		bl	memcpy
 1023              	.LVL92:
 168:mavlink/minimal/../mavlink_sha256.h **** 	offset += l;
 1024              		.loc 1 168 2 view .LVU389
 1025              		.loc 1 168 9 is_stmt 0 view .LVU390
 1026 0254 CA44     		add	r10, r10, r9
 1027              	.LVL93:
 169:mavlink/minimal/../mavlink_sha256.h **** 	p += l;
 1028              		.loc 1 169 2 is_stmt 1 view .LVU391
 1029              		.loc 1 169 4 is_stmt 0 view .LVU392
 1030 0256 4F44     		add	r7, r7, r9
 1031              	.LVL94:
 170:mavlink/minimal/../mavlink_sha256.h **** 	len -= l;
 1032              		.loc 1 170 2 is_stmt 1 view .LVU393
 1033              		.loc 1 170 6 is_stmt 0 view .LVU394
 1034 0258 A6EB0906 		sub	r6, r6, r9
ARM GAS  /tmp/ccNouMZU.s 			page 38


 1035              	.LVL95:
 171:mavlink/minimal/../mavlink_sha256.h **** 	if(offset == 64){
 1036              		.loc 1 171 2 is_stmt 1 view .LVU395
 1037              		.loc 1 171 4 is_stmt 0 view .LVU396
 1038 025c BAF1400F 		cmp	r10, #64
 1039 0260 06D0     		beq	.L94
 1040              	.LVL96:
 1041              	.L28:
 1042              		.loc 1 171 4 view .LVU397
 1043              	.LBE114:
 162:mavlink/minimal/../mavlink_sha256.h **** 	uint32_t l = 64 - offset;
 1044              		.loc 1 162 10 is_stmt 1 view .LVU398
 1045 0262 2EB3     		cbz	r6, .L95
 1046              	.LBB117:
 163:mavlink/minimal/../mavlink_sha256.h ****         if (len < l) {
 1047              		.loc 1 163 2 view .LVU399
 163:mavlink/minimal/../mavlink_sha256.h ****         if (len < l) {
 1048              		.loc 1 163 11 is_stmt 0 view .LVU400
 1049 0264 CAF14009 		rsb	r9, r10, #64
 1050              	.LVL97:
 164:mavlink/minimal/../mavlink_sha256.h ****             l = len;
 1051              		.loc 1 164 9 is_stmt 1 view .LVU401
 164:mavlink/minimal/../mavlink_sha256.h ****             l = len;
 1052              		.loc 1 164 12 is_stmt 0 view .LVU402
 1053 0268 B145     		cmp	r9, r6
 1054 026a ECD9     		bls	.L29
 165:mavlink/minimal/../mavlink_sha256.h ****         }
 1055              		.loc 1 165 15 view .LVU403
 1056 026c B146     		mov	r9, r6
 1057              	.LVL98:
 165:mavlink/minimal/../mavlink_sha256.h ****         }
 1058              		.loc 1 165 15 view .LVU404
 1059 026e EAE7     		b	.L29
 1060              	.LVL99:
 1061              	.L94:
 1062              	.LBB115:
 172:mavlink/minimal/../mavlink_sha256.h **** 	    int i;
 173:mavlink/minimal/../mavlink_sha256.h **** 	    uint32_t current[16];
 174:mavlink/minimal/../mavlink_sha256.h **** 	    const uint32_t *u = m->u.save_u32;
 175:mavlink/minimal/../mavlink_sha256.h **** 	    for (i = 0; i < 16; i++){
 1063              		.loc 1 175 13 view .LVU405
 1064 0270 0023     		movs	r3, #0
 1065              	.L30:
 1066              	.LVL100:
 1067              		.loc 1 175 18 is_stmt 1 view .LVU406
 1068              		.loc 1 175 6 is_stmt 0 view .LVU407
 1069 0272 0F2B     		cmp	r3, #15
 1070 0274 15DC     		bgt	.L96
 1071              	.LBB116:
 176:mavlink/minimal/../mavlink_sha256.h ****                 const uint8_t *p1 = (const uint8_t *)&u[i];
 1072              		.loc 1 176 17 is_stmt 1 view .LVU408
 1073              		.loc 1 176 32 is_stmt 0 view .LVU409
 1074 0276 35A8     		add	r0, sp, #212
 1075 0278 00EB8301 		add	r1, r0, r3, lsl #2
 1076              	.LVL101:
 177:mavlink/minimal/../mavlink_sha256.h ****                 uint8_t *p2 = (uint8_t *)&current[i];
 1077              		.loc 1 177 17 is_stmt 1 view .LVU410
ARM GAS  /tmp/ccNouMZU.s 			page 39


 1078              		.loc 1 177 26 is_stmt 0 view .LVU411
 1079 027c 0DF1640C 		add	ip, sp, #100
 1080 0280 0CEB8302 		add	r2, ip, r3, lsl #2
 1081              	.LVL102:
 178:mavlink/minimal/../mavlink_sha256.h ****                 p2[0] = p1[3];
 1082              		.loc 1 178 17 is_stmt 1 view .LVU412
 1083              		.loc 1 178 23 is_stmt 0 view .LVU413
 1084 0284 91F803E0 		ldrb	lr, [r1, #3]	@ zero_extendqisi2
 1085 0288 0CF823E0 		strb	lr, [ip, r3, lsl #2]
 179:mavlink/minimal/../mavlink_sha256.h ****                 p2[1] = p1[2];
 1086              		.loc 1 179 17 is_stmt 1 view .LVU414
 1087              		.loc 1 179 23 is_stmt 0 view .LVU415
 1088 028c 91F802C0 		ldrb	ip, [r1, #2]	@ zero_extendqisi2
 1089 0290 82F801C0 		strb	ip, [r2, #1]
 180:mavlink/minimal/../mavlink_sha256.h ****                 p2[2] = p1[1];
 1090              		.loc 1 180 17 is_stmt 1 view .LVU416
 1091              		.loc 1 180 23 is_stmt 0 view .LVU417
 1092 0294 4978     		ldrb	r1, [r1, #1]	@ zero_extendqisi2
 1093              	.LVL103:
 1094              		.loc 1 180 23 view .LVU418
 1095 0296 9170     		strb	r1, [r2, #2]
 181:mavlink/minimal/../mavlink_sha256.h ****                 p2[3] = p1[0];
 1096              		.loc 1 181 17 is_stmt 1 view .LVU419
 1097              		.loc 1 181 27 is_stmt 0 view .LVU420
 1098 0298 10F82310 		ldrb	r1, [r0, r3, lsl #2]	@ zero_extendqisi2
 1099              		.loc 1 181 23 view .LVU421
 1100 029c D170     		strb	r1, [r2, #3]
 1101              	.LBE116:
 175:mavlink/minimal/../mavlink_sha256.h ****                 const uint8_t *p1 = (const uint8_t *)&u[i];
 1102              		.loc 1 175 26 is_stmt 1 view .LVU422
 175:mavlink/minimal/../mavlink_sha256.h ****                 const uint8_t *p1 = (const uint8_t *)&u[i];
 1103              		.loc 1 175 27 is_stmt 0 view .LVU423
 1104 029e 0133     		adds	r3, r3, #1
 1105              	.LVL104:
 175:mavlink/minimal/../mavlink_sha256.h ****                 const uint8_t *p1 = (const uint8_t *)&u[i];
 1106              		.loc 1 175 27 view .LVU424
 1107 02a0 E7E7     		b	.L30
 1108              	.LVL105:
 1109              	.L96:
 182:mavlink/minimal/../mavlink_sha256.h **** 	    }
 183:mavlink/minimal/../mavlink_sha256.h **** 	    mavlink_sha256_calc(m, current);
 1110              		.loc 1 183 6 is_stmt 1 view .LVU425
 1111 02a2 19A9     		add	r1, sp, #100
 1112 02a4 2BA8     		add	r0, sp, #172
 1113              	.LVL106:
 1114              		.loc 1 183 6 is_stmt 0 view .LVU426
 1115 02a6 FFF7FEFF 		bl	mavlink_sha256_calc
 1116              	.LVL107:
 184:mavlink/minimal/../mavlink_sha256.h **** 	    offset = 0;
 1117              		.loc 1 184 6 is_stmt 1 view .LVU427
 1118              		.loc 1 184 13 is_stmt 0 view .LVU428
 1119 02aa 4FF0000A 		mov	r10, #0
 1120 02ae D8E7     		b	.L28
 1121              	.LVL108:
 1122              	.L95:
 1123              		.loc 1 184 13 view .LVU429
 1124              	.LBE115:
ARM GAS  /tmp/ccNouMZU.s 			page 40


 1125              	.LBE117:
 1126              	.LBE113:
 1127              	.LBE112:
  94:mavlink/minimal/../mavlink_helpers.h **** 	mavlink_sha256_update(&ctx, packet, packet_len);
 1128              		.loc 3 94 2 is_stmt 1 view .LVU430
 1129 02b0 2746     		mov	r7, r4
 1130              	.LVL109:
 1131              	.LBB118:
 1132              	.LBI118:
 152:mavlink/minimal/../mavlink_sha256.h **** {
 1133              		.loc 1 152 21 view .LVU431
 1134              	.LBB119:
 154:mavlink/minimal/../mavlink_sha256.h ****     uint32_t old_sz = m->sz[0];
 1135              		.loc 1 154 5 view .LVU432
 155:mavlink/minimal/../mavlink_sha256.h ****     uint32_t offset;
 1136              		.loc 1 155 5 view .LVU433
 155:mavlink/minimal/../mavlink_sha256.h ****     uint32_t offset;
 1137              		.loc 1 155 14 is_stmt 0 view .LVU434
 1138 02b2 2B9B     		ldr	r3, [sp, #172]
 1139              	.LVL110:
 156:mavlink/minimal/../mavlink_sha256.h **** 
 1140              		.loc 1 156 5 is_stmt 1 view .LVU435
 158:mavlink/minimal/../mavlink_sha256.h ****     if (m->sz[0] < old_sz)
 1141              		.loc 1 158 5 view .LVU436
 158:mavlink/minimal/../mavlink_sha256.h ****     if (m->sz[0] < old_sz)
 1142              		.loc 1 158 14 is_stmt 0 view .LVU437
 1143 02b4 03EBC404 		add	r4, r3, r4, lsl #3
 1144              	.LVL111:
 158:mavlink/minimal/../mavlink_sha256.h ****     if (m->sz[0] < old_sz)
 1145              		.loc 1 158 14 view .LVU438
 1146 02b8 2B94     		str	r4, [sp, #172]
 159:mavlink/minimal/../mavlink_sha256.h **** 	++m->sz[1];
 1147              		.loc 1 159 5 is_stmt 1 view .LVU439
 159:mavlink/minimal/../mavlink_sha256.h **** 	++m->sz[1];
 1148              		.loc 1 159 8 is_stmt 0 view .LVU440
 1149 02ba A342     		cmp	r3, r4
 1150 02bc 02D9     		bls	.L34
 160:mavlink/minimal/../mavlink_sha256.h ****     offset = (old_sz / 8) % 64;
 1151              		.loc 1 160 2 is_stmt 1 view .LVU441
 160:mavlink/minimal/../mavlink_sha256.h ****     offset = (old_sz / 8) % 64;
 1152              		.loc 1 160 9 is_stmt 0 view .LVU442
 1153 02be 2C9A     		ldr	r2, [sp, #176]
 160:mavlink/minimal/../mavlink_sha256.h ****     offset = (old_sz / 8) % 64;
 1154              		.loc 1 160 2 view .LVU443
 1155 02c0 0132     		adds	r2, r2, #1
 1156 02c2 2C92     		str	r2, [sp, #176]
 1157              	.L34:
 161:mavlink/minimal/../mavlink_sha256.h ****     while(len > 0){
 1158              		.loc 1 161 5 is_stmt 1 view .LVU444
 161:mavlink/minimal/../mavlink_sha256.h ****     while(len > 0){
 1159              		.loc 1 161 12 is_stmt 0 view .LVU445
 1160 02c4 C3F3C50A 		ubfx	r10, r3, #3, #6
 1161              	.LVL112:
 162:mavlink/minimal/../mavlink_sha256.h **** 	uint32_t l = 64 - offset;
 1162              		.loc 1 162 5 is_stmt 1 view .LVU446
 154:mavlink/minimal/../mavlink_sha256.h ****     uint32_t old_sz = m->sz[0];
 1163              		.loc 1 154 26 is_stmt 0 view .LVU447
ARM GAS  /tmp/ccNouMZU.s 			page 41


 1164 02c8 03AC     		add	r4, sp, #12
 1165              	.LVL113:
 162:mavlink/minimal/../mavlink_sha256.h **** 	uint32_t l = 64 - offset;
 1166              		.loc 1 162 10 view .LVU448
 1167 02ca 21E0     		b	.L35
 1168              	.L112:
 1169              		.align	2
 1170              	.L111:
 1171 02cc 00000000 		.word	.LANCHOR1
 1172 02d0 00000000 		.word	.LANCHOR2
 1173 02d4 00000000 		.word	.LANCHOR3
 1174 02d8 67E6096A 		.word	1779033703
 1175 02dc 85AE67BB 		.word	-1150833019
 1176 02e0 72F36E3C 		.word	1013904242
 1177 02e4 3AF54FA5 		.word	-1521486534
 1178 02e8 7F520E51 		.word	1359893119
 1179 02ec 8C68059B 		.word	-1694144372
 1180 02f0 ABD9831F 		.word	528734635
 1181              	.LVL114:
 1182              	.L36:
 1183              	.LBB120:
 167:mavlink/minimal/../mavlink_sha256.h **** 	offset += l;
 1184              		.loc 1 167 2 is_stmt 1 view .LVU449
 1185 02f4 4A46     		mov	r2, r9
 1186 02f6 2146     		mov	r1, r4
 1187 02f8 35AB     		add	r3, sp, #212
 1188 02fa 03EB0A00 		add	r0, r3, r10
 1189 02fe FFF7FEFF 		bl	memcpy
 1190              	.LVL115:
 168:mavlink/minimal/../mavlink_sha256.h **** 	p += l;
 1191              		.loc 1 168 2 view .LVU450
 168:mavlink/minimal/../mavlink_sha256.h **** 	p += l;
 1192              		.loc 1 168 9 is_stmt 0 view .LVU451
 1193 0302 CA44     		add	r10, r10, r9
 1194              	.LVL116:
 169:mavlink/minimal/../mavlink_sha256.h **** 	len -= l;
 1195              		.loc 1 169 2 is_stmt 1 view .LVU452
 169:mavlink/minimal/../mavlink_sha256.h **** 	len -= l;
 1196              		.loc 1 169 4 is_stmt 0 view .LVU453
 1197 0304 4C44     		add	r4, r4, r9
 1198              	.LVL117:
 170:mavlink/minimal/../mavlink_sha256.h **** 	if(offset == 64){
 1199              		.loc 1 170 2 is_stmt 1 view .LVU454
 170:mavlink/minimal/../mavlink_sha256.h **** 	if(offset == 64){
 1200              		.loc 1 170 6 is_stmt 0 view .LVU455
 1201 0306 A7EB0907 		sub	r7, r7, r9
 1202              	.LVL118:
 171:mavlink/minimal/../mavlink_sha256.h **** 	    int i;
 1203              		.loc 1 171 2 is_stmt 1 view .LVU456
 171:mavlink/minimal/../mavlink_sha256.h **** 	    int i;
 1204              		.loc 1 171 4 is_stmt 0 view .LVU457
 1205 030a BAF1400F 		cmp	r10, #64
 1206 030e 06D0     		beq	.L97
 1207              	.LVL119:
 1208              	.L35:
 171:mavlink/minimal/../mavlink_sha256.h **** 	    int i;
 1209              		.loc 1 171 4 view .LVU458
ARM GAS  /tmp/ccNouMZU.s 			page 42


 1210              	.LBE120:
 162:mavlink/minimal/../mavlink_sha256.h **** 	uint32_t l = 64 - offset;
 1211              		.loc 1 162 10 is_stmt 1 view .LVU459
 1212 0310 27B3     		cbz	r7, .L98
 1213              	.LBB123:
 163:mavlink/minimal/../mavlink_sha256.h ****         if (len < l) {
 1214              		.loc 1 163 2 view .LVU460
 163:mavlink/minimal/../mavlink_sha256.h ****         if (len < l) {
 1215              		.loc 1 163 11 is_stmt 0 view .LVU461
 1216 0312 CAF14009 		rsb	r9, r10, #64
 1217              	.LVL120:
 164:mavlink/minimal/../mavlink_sha256.h ****             l = len;
 1218              		.loc 1 164 9 is_stmt 1 view .LVU462
 164:mavlink/minimal/../mavlink_sha256.h ****             l = len;
 1219              		.loc 1 164 12 is_stmt 0 view .LVU463
 1220 0316 B945     		cmp	r9, r7
 1221 0318 ECD9     		bls	.L36
 165:mavlink/minimal/../mavlink_sha256.h ****         }
 1222              		.loc 1 165 15 view .LVU464
 1223 031a B946     		mov	r9, r7
 1224              	.LVL121:
 165:mavlink/minimal/../mavlink_sha256.h ****         }
 1225              		.loc 1 165 15 view .LVU465
 1226 031c EAE7     		b	.L36
 1227              	.LVL122:
 1228              	.L97:
 1229              	.LBB121:
 175:mavlink/minimal/../mavlink_sha256.h ****                 const uint8_t *p1 = (const uint8_t *)&u[i];
 1230              		.loc 1 175 13 view .LVU466
 1231 031e 0023     		movs	r3, #0
 1232              	.L37:
 1233              	.LVL123:
 175:mavlink/minimal/../mavlink_sha256.h ****                 const uint8_t *p1 = (const uint8_t *)&u[i];
 1234              		.loc 1 175 18 is_stmt 1 view .LVU467
 175:mavlink/minimal/../mavlink_sha256.h ****                 const uint8_t *p1 = (const uint8_t *)&u[i];
 1235              		.loc 1 175 6 is_stmt 0 view .LVU468
 1236 0320 0F2B     		cmp	r3, #15
 1237 0322 15DC     		bgt	.L99
 1238              	.LBB122:
 176:mavlink/minimal/../mavlink_sha256.h ****                 uint8_t *p2 = (uint8_t *)&current[i];
 1239              		.loc 1 176 17 is_stmt 1 view .LVU469
 176:mavlink/minimal/../mavlink_sha256.h ****                 uint8_t *p2 = (uint8_t *)&current[i];
 1240              		.loc 1 176 32 is_stmt 0 view .LVU470
 1241 0324 35A8     		add	r0, sp, #212
 1242 0326 00EB8301 		add	r1, r0, r3, lsl #2
 1243              	.LVL124:
 177:mavlink/minimal/../mavlink_sha256.h ****                 p2[0] = p1[3];
 1244              		.loc 1 177 17 is_stmt 1 view .LVU471
 177:mavlink/minimal/../mavlink_sha256.h ****                 p2[0] = p1[3];
 1245              		.loc 1 177 26 is_stmt 0 view .LVU472
 1246 032a 0DF1640C 		add	ip, sp, #100
 1247 032e 0CEB8302 		add	r2, ip, r3, lsl #2
 1248              	.LVL125:
 178:mavlink/minimal/../mavlink_sha256.h ****                 p2[1] = p1[2];
 1249              		.loc 1 178 17 is_stmt 1 view .LVU473
 178:mavlink/minimal/../mavlink_sha256.h ****                 p2[1] = p1[2];
 1250              		.loc 1 178 23 is_stmt 0 view .LVU474
ARM GAS  /tmp/ccNouMZU.s 			page 43


 1251 0332 91F803E0 		ldrb	lr, [r1, #3]	@ zero_extendqisi2
 1252 0336 0CF823E0 		strb	lr, [ip, r3, lsl #2]
 179:mavlink/minimal/../mavlink_sha256.h ****                 p2[2] = p1[1];
 1253              		.loc 1 179 17 is_stmt 1 view .LVU475
 179:mavlink/minimal/../mavlink_sha256.h ****                 p2[2] = p1[1];
 1254              		.loc 1 179 23 is_stmt 0 view .LVU476
 1255 033a 91F802C0 		ldrb	ip, [r1, #2]	@ zero_extendqisi2
 1256 033e 82F801C0 		strb	ip, [r2, #1]
 180:mavlink/minimal/../mavlink_sha256.h ****                 p2[3] = p1[0];
 1257              		.loc 1 180 17 is_stmt 1 view .LVU477
 180:mavlink/minimal/../mavlink_sha256.h ****                 p2[3] = p1[0];
 1258              		.loc 1 180 23 is_stmt 0 view .LVU478
 1259 0342 4978     		ldrb	r1, [r1, #1]	@ zero_extendqisi2
 1260              	.LVL126:
 180:mavlink/minimal/../mavlink_sha256.h ****                 p2[3] = p1[0];
 1261              		.loc 1 180 23 view .LVU479
 1262 0344 9170     		strb	r1, [r2, #2]
 181:mavlink/minimal/../mavlink_sha256.h **** 	    }
 1263              		.loc 1 181 17 is_stmt 1 view .LVU480
 181:mavlink/minimal/../mavlink_sha256.h **** 	    }
 1264              		.loc 1 181 27 is_stmt 0 view .LVU481
 1265 0346 10F82310 		ldrb	r1, [r0, r3, lsl #2]	@ zero_extendqisi2
 181:mavlink/minimal/../mavlink_sha256.h **** 	    }
 1266              		.loc 1 181 23 view .LVU482
 1267 034a D170     		strb	r1, [r2, #3]
 1268              	.LBE122:
 175:mavlink/minimal/../mavlink_sha256.h ****                 const uint8_t *p1 = (const uint8_t *)&u[i];
 1269              		.loc 1 175 26 is_stmt 1 view .LVU483
 175:mavlink/minimal/../mavlink_sha256.h ****                 const uint8_t *p1 = (const uint8_t *)&u[i];
 1270              		.loc 1 175 27 is_stmt 0 view .LVU484
 1271 034c 0133     		adds	r3, r3, #1
 1272              	.LVL127:
 175:mavlink/minimal/../mavlink_sha256.h ****                 const uint8_t *p1 = (const uint8_t *)&u[i];
 1273              		.loc 1 175 27 view .LVU485
 1274 034e E7E7     		b	.L37
 1275              	.LVL128:
 1276              	.L99:
 183:mavlink/minimal/../mavlink_sha256.h **** 	    offset = 0;
 1277              		.loc 1 183 6 is_stmt 1 view .LVU486
 1278 0350 19A9     		add	r1, sp, #100
 1279 0352 2BA8     		add	r0, sp, #172
 1280              	.LVL129:
 183:mavlink/minimal/../mavlink_sha256.h **** 	    offset = 0;
 1281              		.loc 1 183 6 is_stmt 0 view .LVU487
 1282 0354 FFF7FEFF 		bl	mavlink_sha256_calc
 1283              	.LVL130:
 1284              		.loc 1 184 6 is_stmt 1 view .LVU488
 1285              		.loc 1 184 13 is_stmt 0 view .LVU489
 1286 0358 B246     		mov	r10, r6
 1287 035a D9E7     		b	.L35
 1288              	.LVL131:
 1289              	.L98:
 1290              		.loc 1 184 13 view .LVU490
 1291              	.LBE121:
 1292              	.LBE123:
 1293              	.LBE119:
 1294              	.LBE118:
ARM GAS  /tmp/ccNouMZU.s 			page 44


  95:mavlink/minimal/../mavlink_helpers.h **** 	mavlink_sha256_update(&ctx, crc, 2);
 1295              		.loc 3 95 2 is_stmt 1 view .LVU491
 1296 035c 4646     		mov	r6, r8
 1297              	.LVL132:
 1298              	.LBB124:
 1299              	.LBI124:
 152:mavlink/minimal/../mavlink_sha256.h **** {
 1300              		.loc 1 152 21 view .LVU492
 1301              	.LBB125:
 154:mavlink/minimal/../mavlink_sha256.h ****     uint32_t old_sz = m->sz[0];
 1302              		.loc 1 154 5 view .LVU493
 155:mavlink/minimal/../mavlink_sha256.h ****     uint32_t offset;
 1303              		.loc 1 155 5 view .LVU494
 155:mavlink/minimal/../mavlink_sha256.h ****     uint32_t offset;
 1304              		.loc 1 155 14 is_stmt 0 view .LVU495
 1305 035e 2B9B     		ldr	r3, [sp, #172]
 1306              	.LVL133:
 156:mavlink/minimal/../mavlink_sha256.h **** 
 1307              		.loc 1 156 5 is_stmt 1 view .LVU496
 158:mavlink/minimal/../mavlink_sha256.h ****     if (m->sz[0] < old_sz)
 1308              		.loc 1 158 5 view .LVU497
 158:mavlink/minimal/../mavlink_sha256.h ****     if (m->sz[0] < old_sz)
 1309              		.loc 1 158 14 is_stmt 0 view .LVU498
 1310 0360 03EBC802 		add	r2, r3, r8, lsl #3
 1311 0364 2B92     		str	r2, [sp, #172]
 159:mavlink/minimal/../mavlink_sha256.h **** 	++m->sz[1];
 1312              		.loc 1 159 5 is_stmt 1 view .LVU499
 159:mavlink/minimal/../mavlink_sha256.h **** 	++m->sz[1];
 1313              		.loc 1 159 8 is_stmt 0 view .LVU500
 1314 0366 9342     		cmp	r3, r2
 1315 0368 02D9     		bls	.L41
 160:mavlink/minimal/../mavlink_sha256.h ****     offset = (old_sz / 8) % 64;
 1316              		.loc 1 160 2 is_stmt 1 view .LVU501
 160:mavlink/minimal/../mavlink_sha256.h ****     offset = (old_sz / 8) % 64;
 1317              		.loc 1 160 9 is_stmt 0 view .LVU502
 1318 036a 2C9A     		ldr	r2, [sp, #176]
 160:mavlink/minimal/../mavlink_sha256.h ****     offset = (old_sz / 8) % 64;
 1319              		.loc 1 160 2 view .LVU503
 1320 036c 0132     		adds	r2, r2, #1
 1321 036e 2C92     		str	r2, [sp, #176]
 1322              	.L41:
 161:mavlink/minimal/../mavlink_sha256.h ****     while(len > 0){
 1323              		.loc 1 161 5 is_stmt 1 view .LVU504
 161:mavlink/minimal/../mavlink_sha256.h ****     while(len > 0){
 1324              		.loc 1 161 12 is_stmt 0 view .LVU505
 1325 0370 C3F3C509 		ubfx	r9, r3, #3, #6
 1326              	.LVL134:
 162:mavlink/minimal/../mavlink_sha256.h **** 	uint32_t l = 64 - offset;
 1327              		.loc 1 162 5 is_stmt 1 view .LVU506
 154:mavlink/minimal/../mavlink_sha256.h ****     uint32_t old_sz = m->sz[0];
 1328              		.loc 1 154 26 is_stmt 0 view .LVU507
 1329 0374 A34C     		ldr	r4, .L113
 162:mavlink/minimal/../mavlink_sha256.h **** 	uint32_t l = 64 - offset;
 1330              		.loc 1 162 10 view .LVU508
 1331 0376 0DE0     		b	.L42
 1332              	.LVL135:
 1333              	.L43:
ARM GAS  /tmp/ccNouMZU.s 			page 45


 1334              	.LBB126:
 167:mavlink/minimal/../mavlink_sha256.h **** 	offset += l;
 1335              		.loc 1 167 2 is_stmt 1 view .LVU509
 1336 0378 4246     		mov	r2, r8
 1337 037a 2146     		mov	r1, r4
 1338 037c 35AB     		add	r3, sp, #212
 1339 037e 03EB0900 		add	r0, r3, r9
 1340 0382 FFF7FEFF 		bl	memcpy
 1341              	.LVL136:
 168:mavlink/minimal/../mavlink_sha256.h **** 	p += l;
 1342              		.loc 1 168 2 view .LVU510
 168:mavlink/minimal/../mavlink_sha256.h **** 	p += l;
 1343              		.loc 1 168 9 is_stmt 0 view .LVU511
 1344 0386 C144     		add	r9, r9, r8
 1345              	.LVL137:
 169:mavlink/minimal/../mavlink_sha256.h **** 	len -= l;
 1346              		.loc 1 169 2 is_stmt 1 view .LVU512
 169:mavlink/minimal/../mavlink_sha256.h **** 	len -= l;
 1347              		.loc 1 169 4 is_stmt 0 view .LVU513
 1348 0388 4444     		add	r4, r4, r8
 1349              	.LVL138:
 170:mavlink/minimal/../mavlink_sha256.h **** 	if(offset == 64){
 1350              		.loc 1 170 2 is_stmt 1 view .LVU514
 170:mavlink/minimal/../mavlink_sha256.h **** 	if(offset == 64){
 1351              		.loc 1 170 6 is_stmt 0 view .LVU515
 1352 038a A6EB0806 		sub	r6, r6, r8
 1353              	.LVL139:
 171:mavlink/minimal/../mavlink_sha256.h **** 	    int i;
 1354              		.loc 1 171 2 is_stmt 1 view .LVU516
 171:mavlink/minimal/../mavlink_sha256.h **** 	    int i;
 1355              		.loc 1 171 4 is_stmt 0 view .LVU517
 1356 038e B9F1400F 		cmp	r9, #64
 1357 0392 23D0     		beq	.L100
 1358              	.LVL140:
 1359              	.L42:
 171:mavlink/minimal/../mavlink_sha256.h **** 	    int i;
 1360              		.loc 1 171 4 view .LVU518
 1361              	.LBE126:
 162:mavlink/minimal/../mavlink_sha256.h **** 	uint32_t l = 64 - offset;
 1362              		.loc 1 162 10 is_stmt 1 view .LVU519
 1363 0394 26B3     		cbz	r6, .L101
 1364              	.LBB129:
 163:mavlink/minimal/../mavlink_sha256.h ****         if (len < l) {
 1365              		.loc 1 163 2 view .LVU520
 163:mavlink/minimal/../mavlink_sha256.h ****         if (len < l) {
 1366              		.loc 1 163 11 is_stmt 0 view .LVU521
 1367 0396 C9F14008 		rsb	r8, r9, #64
 1368              	.LVL141:
 164:mavlink/minimal/../mavlink_sha256.h ****             l = len;
 1369              		.loc 1 164 9 is_stmt 1 view .LVU522
 164:mavlink/minimal/../mavlink_sha256.h ****             l = len;
 1370              		.loc 1 164 12 is_stmt 0 view .LVU523
 1371 039a B045     		cmp	r8, r6
 1372 039c ECD9     		bls	.L43
 165:mavlink/minimal/../mavlink_sha256.h ****         }
 1373              		.loc 1 165 15 view .LVU524
 1374 039e B046     		mov	r8, r6
ARM GAS  /tmp/ccNouMZU.s 			page 46


 1375              	.LVL142:
 165:mavlink/minimal/../mavlink_sha256.h ****         }
 1376              		.loc 1 165 15 view .LVU525
 1377 03a0 EAE7     		b	.L43
 1378              	.LVL143:
 1379              	.L46:
 1380              	.LBB127:
 1381              	.LBB128:
 176:mavlink/minimal/../mavlink_sha256.h ****                 uint8_t *p2 = (uint8_t *)&current[i];
 1382              		.loc 1 176 17 is_stmt 1 view .LVU526
 176:mavlink/minimal/../mavlink_sha256.h ****                 uint8_t *p2 = (uint8_t *)&current[i];
 1383              		.loc 1 176 32 is_stmt 0 view .LVU527
 1384 03a2 35A8     		add	r0, sp, #212
 1385 03a4 00EB8301 		add	r1, r0, r3, lsl #2
 1386              	.LVL144:
 177:mavlink/minimal/../mavlink_sha256.h ****                 p2[0] = p1[3];
 1387              		.loc 1 177 17 is_stmt 1 view .LVU528
 177:mavlink/minimal/../mavlink_sha256.h ****                 p2[0] = p1[3];
 1388              		.loc 1 177 26 is_stmt 0 view .LVU529
 1389 03a8 0DF1640C 		add	ip, sp, #100
 1390 03ac 0CEB8302 		add	r2, ip, r3, lsl #2
 1391              	.LVL145:
 178:mavlink/minimal/../mavlink_sha256.h ****                 p2[1] = p1[2];
 1392              		.loc 1 178 17 is_stmt 1 view .LVU530
 178:mavlink/minimal/../mavlink_sha256.h ****                 p2[1] = p1[2];
 1393              		.loc 1 178 23 is_stmt 0 view .LVU531
 1394 03b0 91F803E0 		ldrb	lr, [r1, #3]	@ zero_extendqisi2
 1395 03b4 0CF823E0 		strb	lr, [ip, r3, lsl #2]
 179:mavlink/minimal/../mavlink_sha256.h ****                 p2[2] = p1[1];
 1396              		.loc 1 179 17 is_stmt 1 view .LVU532
 179:mavlink/minimal/../mavlink_sha256.h ****                 p2[2] = p1[1];
 1397              		.loc 1 179 23 is_stmt 0 view .LVU533
 1398 03b8 91F802C0 		ldrb	ip, [r1, #2]	@ zero_extendqisi2
 1399 03bc 82F801C0 		strb	ip, [r2, #1]
 180:mavlink/minimal/../mavlink_sha256.h ****                 p2[3] = p1[0];
 1400              		.loc 1 180 17 is_stmt 1 view .LVU534
 180:mavlink/minimal/../mavlink_sha256.h ****                 p2[3] = p1[0];
 1401              		.loc 1 180 23 is_stmt 0 view .LVU535
 1402 03c0 4978     		ldrb	r1, [r1, #1]	@ zero_extendqisi2
 1403              	.LVL146:
 180:mavlink/minimal/../mavlink_sha256.h ****                 p2[3] = p1[0];
 1404              		.loc 1 180 23 view .LVU536
 1405 03c2 9170     		strb	r1, [r2, #2]
 181:mavlink/minimal/../mavlink_sha256.h **** 	    }
 1406              		.loc 1 181 17 is_stmt 1 view .LVU537
 181:mavlink/minimal/../mavlink_sha256.h **** 	    }
 1407              		.loc 1 181 27 is_stmt 0 view .LVU538
 1408 03c4 10F82310 		ldrb	r1, [r0, r3, lsl #2]	@ zero_extendqisi2
 181:mavlink/minimal/../mavlink_sha256.h **** 	    }
 1409              		.loc 1 181 23 view .LVU539
 1410 03c8 D170     		strb	r1, [r2, #3]
 1411              	.LBE128:
 175:mavlink/minimal/../mavlink_sha256.h ****                 const uint8_t *p1 = (const uint8_t *)&u[i];
 1412              		.loc 1 175 26 is_stmt 1 view .LVU540
 175:mavlink/minimal/../mavlink_sha256.h ****                 const uint8_t *p1 = (const uint8_t *)&u[i];
 1413              		.loc 1 175 27 is_stmt 0 view .LVU541
 1414 03ca 0133     		adds	r3, r3, #1
ARM GAS  /tmp/ccNouMZU.s 			page 47


 1415              	.LVL147:
 1416              	.L44:
 175:mavlink/minimal/../mavlink_sha256.h ****                 const uint8_t *p1 = (const uint8_t *)&u[i];
 1417              		.loc 1 175 18 is_stmt 1 view .LVU542
 175:mavlink/minimal/../mavlink_sha256.h ****                 const uint8_t *p1 = (const uint8_t *)&u[i];
 1418              		.loc 1 175 6 is_stmt 0 view .LVU543
 1419 03cc 0F2B     		cmp	r3, #15
 1420 03ce E8DD     		ble	.L46
 183:mavlink/minimal/../mavlink_sha256.h **** 	    offset = 0;
 1421              		.loc 1 183 6 is_stmt 1 view .LVU544
 1422 03d0 19A9     		add	r1, sp, #100
 1423 03d2 2BA8     		add	r0, sp, #172
 1424              	.LVL148:
 183:mavlink/minimal/../mavlink_sha256.h **** 	    offset = 0;
 1425              		.loc 1 183 6 is_stmt 0 view .LVU545
 1426 03d4 FFF7FEFF 		bl	mavlink_sha256_calc
 1427              	.LVL149:
 1428              		.loc 1 184 6 is_stmt 1 view .LVU546
 1429              		.loc 1 184 13 is_stmt 0 view .LVU547
 1430 03d8 B946     		mov	r9, r7
 1431 03da DBE7     		b	.L42
 1432              	.LVL150:
 1433              	.L100:
 175:mavlink/minimal/../mavlink_sha256.h ****                 const uint8_t *p1 = (const uint8_t *)&u[i];
 1434              		.loc 1 175 13 view .LVU548
 1435 03dc 0023     		movs	r3, #0
 1436 03de F5E7     		b	.L44
 1437              	.LVL151:
 1438              	.L101:
 175:mavlink/minimal/../mavlink_sha256.h ****                 const uint8_t *p1 = (const uint8_t *)&u[i];
 1439              		.loc 1 175 13 view .LVU549
 1440              	.LBE127:
 1441              	.LBE129:
 1442              	.LBE125:
 1443              	.LBE124:
  96:mavlink/minimal/../mavlink_helpers.h **** 	mavlink_sha256_update(&ctx, signature, 7);
 1444              		.loc 3 96 2 is_stmt 1 view .LVU550
 1445              	.LBB130:
 1446              	.LBI130:
 152:mavlink/minimal/../mavlink_sha256.h **** {
 1447              		.loc 1 152 21 view .LVU551
 1448              	.LBB131:
 154:mavlink/minimal/../mavlink_sha256.h ****     uint32_t old_sz = m->sz[0];
 1449              		.loc 1 154 5 view .LVU552
 155:mavlink/minimal/../mavlink_sha256.h ****     uint32_t offset;
 1450              		.loc 1 155 5 view .LVU553
 155:mavlink/minimal/../mavlink_sha256.h ****     uint32_t offset;
 1451              		.loc 1 155 14 is_stmt 0 view .LVU554
 1452 03e0 2B9B     		ldr	r3, [sp, #172]
 1453              	.LVL152:
 156:mavlink/minimal/../mavlink_sha256.h **** 
 1454              		.loc 1 156 5 is_stmt 1 view .LVU555
 158:mavlink/minimal/../mavlink_sha256.h ****     if (m->sz[0] < old_sz)
 1455              		.loc 1 158 5 view .LVU556
 158:mavlink/minimal/../mavlink_sha256.h ****     if (m->sz[0] < old_sz)
 1456              		.loc 1 158 14 is_stmt 0 view .LVU557
 1457 03e2 03F11002 		add	r2, r3, #16
ARM GAS  /tmp/ccNouMZU.s 			page 48


 1458 03e6 2B92     		str	r2, [sp, #172]
 159:mavlink/minimal/../mavlink_sha256.h **** 	++m->sz[1];
 1459              		.loc 1 159 5 is_stmt 1 view .LVU558
 159:mavlink/minimal/../mavlink_sha256.h **** 	++m->sz[1];
 1460              		.loc 1 159 8 is_stmt 0 view .LVU559
 1461 03e8 9342     		cmp	r3, r2
 1462 03ea 02D9     		bls	.L48
 160:mavlink/minimal/../mavlink_sha256.h ****     offset = (old_sz / 8) % 64;
 1463              		.loc 1 160 2 is_stmt 1 view .LVU560
 160:mavlink/minimal/../mavlink_sha256.h ****     offset = (old_sz / 8) % 64;
 1464              		.loc 1 160 9 is_stmt 0 view .LVU561
 1465 03ec 2C9A     		ldr	r2, [sp, #176]
 160:mavlink/minimal/../mavlink_sha256.h ****     offset = (old_sz / 8) % 64;
 1466              		.loc 1 160 2 view .LVU562
 1467 03ee 0132     		adds	r2, r2, #1
 1468 03f0 2C92     		str	r2, [sp, #176]
 1469              	.L48:
 161:mavlink/minimal/../mavlink_sha256.h ****     while(len > 0){
 1470              		.loc 1 161 5 is_stmt 1 view .LVU563
 161:mavlink/minimal/../mavlink_sha256.h ****     while(len > 0){
 1471              		.loc 1 161 12 is_stmt 0 view .LVU564
 1472 03f2 C3F3C508 		ubfx	r8, r3, #3, #6
 1473              	.LVL153:
 162:mavlink/minimal/../mavlink_sha256.h **** 	uint32_t l = 64 - offset;
 1474              		.loc 1 162 5 is_stmt 1 view .LVU565
 162:mavlink/minimal/../mavlink_sha256.h **** 	uint32_t l = 64 - offset;
 1475              		.loc 1 162 10 is_stmt 0 view .LVU566
 1476 03f6 0224     		movs	r4, #2
 1477 03f8 0CE0     		b	.L49
 1478              	.LVL154:
 1479              	.L50:
 1480              	.LBB132:
 167:mavlink/minimal/../mavlink_sha256.h **** 	offset += l;
 1481              		.loc 1 167 2 is_stmt 1 view .LVU567
 1482 03fa 3A46     		mov	r2, r7
 1483 03fc 2946     		mov	r1, r5
 1484 03fe 35AB     		add	r3, sp, #212
 1485 0400 03EB0800 		add	r0, r3, r8
 1486 0404 FFF7FEFF 		bl	memcpy
 1487              	.LVL155:
 168:mavlink/minimal/../mavlink_sha256.h **** 	p += l;
 1488              		.loc 1 168 2 view .LVU568
 168:mavlink/minimal/../mavlink_sha256.h **** 	p += l;
 1489              		.loc 1 168 9 is_stmt 0 view .LVU569
 1490 0408 B844     		add	r8, r8, r7
 1491              	.LVL156:
 169:mavlink/minimal/../mavlink_sha256.h **** 	len -= l;
 1492              		.loc 1 169 2 is_stmt 1 view .LVU570
 169:mavlink/minimal/../mavlink_sha256.h **** 	len -= l;
 1493              		.loc 1 169 4 is_stmt 0 view .LVU571
 1494 040a 3D44     		add	r5, r5, r7
 1495              	.LVL157:
 170:mavlink/minimal/../mavlink_sha256.h **** 	if(offset == 64){
 1496              		.loc 1 170 2 is_stmt 1 view .LVU572
 170:mavlink/minimal/../mavlink_sha256.h **** 	if(offset == 64){
 1497              		.loc 1 170 6 is_stmt 0 view .LVU573
 1498 040c E41B     		subs	r4, r4, r7
ARM GAS  /tmp/ccNouMZU.s 			page 49


 1499              	.LVL158:
 171:mavlink/minimal/../mavlink_sha256.h **** 	    int i;
 1500              		.loc 1 171 2 is_stmt 1 view .LVU574
 171:mavlink/minimal/../mavlink_sha256.h **** 	    int i;
 1501              		.loc 1 171 4 is_stmt 0 view .LVU575
 1502 040e B8F1400F 		cmp	r8, #64
 1503 0412 20D0     		beq	.L102
 1504              	.LVL159:
 1505              	.L49:
 171:mavlink/minimal/../mavlink_sha256.h **** 	    int i;
 1506              		.loc 1 171 4 view .LVU576
 1507              	.LBE132:
 162:mavlink/minimal/../mavlink_sha256.h **** 	uint32_t l = 64 - offset;
 1508              		.loc 1 162 10 is_stmt 1 view .LVU577
 1509 0414 0CB3     		cbz	r4, .L103
 1510              	.LBB135:
 163:mavlink/minimal/../mavlink_sha256.h ****         if (len < l) {
 1511              		.loc 1 163 2 view .LVU578
 163:mavlink/minimal/../mavlink_sha256.h ****         if (len < l) {
 1512              		.loc 1 163 11 is_stmt 0 view .LVU579
 1513 0416 C8F14007 		rsb	r7, r8, #64
 1514              	.LVL160:
 164:mavlink/minimal/../mavlink_sha256.h ****             l = len;
 1515              		.loc 1 164 9 is_stmt 1 view .LVU580
 164:mavlink/minimal/../mavlink_sha256.h ****             l = len;
 1516              		.loc 1 164 12 is_stmt 0 view .LVU581
 1517 041a A742     		cmp	r7, r4
 1518 041c EDD9     		bls	.L50
 165:mavlink/minimal/../mavlink_sha256.h ****         }
 1519              		.loc 1 165 15 view .LVU582
 1520 041e 2746     		mov	r7, r4
 1521              	.LVL161:
 165:mavlink/minimal/../mavlink_sha256.h ****         }
 1522              		.loc 1 165 15 view .LVU583
 1523 0420 EBE7     		b	.L50
 1524              	.LVL162:
 1525              	.L53:
 1526              	.LBB133:
 1527              	.LBB134:
 176:mavlink/minimal/../mavlink_sha256.h ****                 uint8_t *p2 = (uint8_t *)&current[i];
 1528              		.loc 1 176 17 is_stmt 1 view .LVU584
 176:mavlink/minimal/../mavlink_sha256.h ****                 uint8_t *p2 = (uint8_t *)&current[i];
 1529              		.loc 1 176 32 is_stmt 0 view .LVU585
 1530 0422 35A8     		add	r0, sp, #212
 1531 0424 00EB8301 		add	r1, r0, r3, lsl #2
 1532              	.LVL163:
 177:mavlink/minimal/../mavlink_sha256.h ****                 p2[0] = p1[3];
 1533              		.loc 1 177 17 is_stmt 1 view .LVU586
 177:mavlink/minimal/../mavlink_sha256.h ****                 p2[0] = p1[3];
 1534              		.loc 1 177 26 is_stmt 0 view .LVU587
 1535 0428 19AF     		add	r7, sp, #100
 1536 042a 07EB8302 		add	r2, r7, r3, lsl #2
 1537              	.LVL164:
 178:mavlink/minimal/../mavlink_sha256.h ****                 p2[1] = p1[2];
 1538              		.loc 1 178 17 is_stmt 1 view .LVU588
 178:mavlink/minimal/../mavlink_sha256.h ****                 p2[1] = p1[2];
 1539              		.loc 1 178 23 is_stmt 0 view .LVU589
ARM GAS  /tmp/ccNouMZU.s 			page 50


 1540 042e 91F803C0 		ldrb	ip, [r1, #3]	@ zero_extendqisi2
 1541 0432 07F823C0 		strb	ip, [r7, r3, lsl #2]
 179:mavlink/minimal/../mavlink_sha256.h ****                 p2[2] = p1[1];
 1542              		.loc 1 179 17 is_stmt 1 view .LVU590
 179:mavlink/minimal/../mavlink_sha256.h ****                 p2[2] = p1[1];
 1543              		.loc 1 179 23 is_stmt 0 view .LVU591
 1544 0436 8F78     		ldrb	r7, [r1, #2]	@ zero_extendqisi2
 1545 0438 5770     		strb	r7, [r2, #1]
 180:mavlink/minimal/../mavlink_sha256.h ****                 p2[3] = p1[0];
 1546              		.loc 1 180 17 is_stmt 1 view .LVU592
 180:mavlink/minimal/../mavlink_sha256.h ****                 p2[3] = p1[0];
 1547              		.loc 1 180 23 is_stmt 0 view .LVU593
 1548 043a 4978     		ldrb	r1, [r1, #1]	@ zero_extendqisi2
 1549              	.LVL165:
 180:mavlink/minimal/../mavlink_sha256.h ****                 p2[3] = p1[0];
 1550              		.loc 1 180 23 view .LVU594
 1551 043c 9170     		strb	r1, [r2, #2]
 181:mavlink/minimal/../mavlink_sha256.h **** 	    }
 1552              		.loc 1 181 17 is_stmt 1 view .LVU595
 181:mavlink/minimal/../mavlink_sha256.h **** 	    }
 1553              		.loc 1 181 27 is_stmt 0 view .LVU596
 1554 043e 10F82310 		ldrb	r1, [r0, r3, lsl #2]	@ zero_extendqisi2
 181:mavlink/minimal/../mavlink_sha256.h **** 	    }
 1555              		.loc 1 181 23 view .LVU597
 1556 0442 D170     		strb	r1, [r2, #3]
 1557              	.LBE134:
 175:mavlink/minimal/../mavlink_sha256.h ****                 const uint8_t *p1 = (const uint8_t *)&u[i];
 1558              		.loc 1 175 26 is_stmt 1 view .LVU598
 175:mavlink/minimal/../mavlink_sha256.h ****                 const uint8_t *p1 = (const uint8_t *)&u[i];
 1559              		.loc 1 175 27 is_stmt 0 view .LVU599
 1560 0444 0133     		adds	r3, r3, #1
 1561              	.LVL166:
 1562              	.L51:
 175:mavlink/minimal/../mavlink_sha256.h ****                 const uint8_t *p1 = (const uint8_t *)&u[i];
 1563              		.loc 1 175 18 is_stmt 1 view .LVU600
 175:mavlink/minimal/../mavlink_sha256.h ****                 const uint8_t *p1 = (const uint8_t *)&u[i];
 1564              		.loc 1 175 6 is_stmt 0 view .LVU601
 1565 0446 0F2B     		cmp	r3, #15
 1566 0448 EBDD     		ble	.L53
 183:mavlink/minimal/../mavlink_sha256.h **** 	    offset = 0;
 1567              		.loc 1 183 6 is_stmt 1 view .LVU602
 1568 044a 19A9     		add	r1, sp, #100
 1569 044c 2BA8     		add	r0, sp, #172
 1570              	.LVL167:
 183:mavlink/minimal/../mavlink_sha256.h **** 	    offset = 0;
 1571              		.loc 1 183 6 is_stmt 0 view .LVU603
 1572 044e FFF7FEFF 		bl	mavlink_sha256_calc
 1573              	.LVL168:
 1574              		.loc 1 184 6 is_stmt 1 view .LVU604
 1575              		.loc 1 184 13 is_stmt 0 view .LVU605
 1576 0452 B046     		mov	r8, r6
 1577 0454 DEE7     		b	.L49
 1578              	.LVL169:
 1579              	.L102:
 175:mavlink/minimal/../mavlink_sha256.h ****                 const uint8_t *p1 = (const uint8_t *)&u[i];
 1580              		.loc 1 175 13 view .LVU606
 1581 0456 0023     		movs	r3, #0
ARM GAS  /tmp/ccNouMZU.s 			page 51


 1582 0458 F5E7     		b	.L51
 1583              	.LVL170:
 1584              	.L103:
 175:mavlink/minimal/../mavlink_sha256.h ****                 const uint8_t *p1 = (const uint8_t *)&u[i];
 1585              		.loc 1 175 13 view .LVU607
 1586              	.LBE133:
 1587              	.LBE135:
 1588              	.LBE131:
 1589              	.LBE130:
  97:mavlink/minimal/../mavlink_helpers.h **** 	mavlink_sha256_final_48(&ctx, &signature[7]);
 1590              		.loc 3 97 2 is_stmt 1 view .LVU608
 1591              	.LBB136:
 1592              	.LBI136:
 152:mavlink/minimal/../mavlink_sha256.h **** {
 1593              		.loc 1 152 21 view .LVU609
 1594              	.LBB137:
 154:mavlink/minimal/../mavlink_sha256.h ****     uint32_t old_sz = m->sz[0];
 1595              		.loc 1 154 5 view .LVU610
 155:mavlink/minimal/../mavlink_sha256.h ****     uint32_t offset;
 1596              		.loc 1 155 5 view .LVU611
 155:mavlink/minimal/../mavlink_sha256.h ****     uint32_t offset;
 1597              		.loc 1 155 14 is_stmt 0 view .LVU612
 1598 045a 2B9B     		ldr	r3, [sp, #172]
 1599              	.LVL171:
 156:mavlink/minimal/../mavlink_sha256.h **** 
 1600              		.loc 1 156 5 is_stmt 1 view .LVU613
 158:mavlink/minimal/../mavlink_sha256.h ****     if (m->sz[0] < old_sz)
 1601              		.loc 1 158 5 view .LVU614
 158:mavlink/minimal/../mavlink_sha256.h ****     if (m->sz[0] < old_sz)
 1602              		.loc 1 158 14 is_stmt 0 view .LVU615
 1603 045c 03F13802 		add	r2, r3, #56
 1604 0460 2B92     		str	r2, [sp, #172]
 159:mavlink/minimal/../mavlink_sha256.h **** 	++m->sz[1];
 1605              		.loc 1 159 5 is_stmt 1 view .LVU616
 159:mavlink/minimal/../mavlink_sha256.h **** 	++m->sz[1];
 1606              		.loc 1 159 8 is_stmt 0 view .LVU617
 1607 0462 9342     		cmp	r3, r2
 1608 0464 02D9     		bls	.L55
 160:mavlink/minimal/../mavlink_sha256.h ****     offset = (old_sz / 8) % 64;
 1609              		.loc 1 160 2 is_stmt 1 view .LVU618
 160:mavlink/minimal/../mavlink_sha256.h ****     offset = (old_sz / 8) % 64;
 1610              		.loc 1 160 9 is_stmt 0 view .LVU619
 1611 0466 2C9A     		ldr	r2, [sp, #176]
 160:mavlink/minimal/../mavlink_sha256.h ****     offset = (old_sz / 8) % 64;
 1612              		.loc 1 160 2 view .LVU620
 1613 0468 0132     		adds	r2, r2, #1
 1614 046a 2C92     		str	r2, [sp, #176]
 1615              	.L55:
 161:mavlink/minimal/../mavlink_sha256.h ****     while(len > 0){
 1616              		.loc 1 161 5 is_stmt 1 view .LVU621
 161:mavlink/minimal/../mavlink_sha256.h ****     while(len > 0){
 1617              		.loc 1 161 12 is_stmt 0 view .LVU622
 1618 046c C3F3C508 		ubfx	r8, r3, #3, #6
 1619              	.LVL172:
 162:mavlink/minimal/../mavlink_sha256.h **** 	uint32_t l = 64 - offset;
 1620              		.loc 1 162 5 is_stmt 1 view .LVU623
 154:mavlink/minimal/../mavlink_sha256.h ****     uint32_t old_sz = m->sz[0];
ARM GAS  /tmp/ccNouMZU.s 			page 52


 1621              		.loc 1 154 26 is_stmt 0 view .LVU624
 1622 0470 654F     		ldr	r7, .L113+4
 162:mavlink/minimal/../mavlink_sha256.h **** 	uint32_t l = 64 - offset;
 1623              		.loc 1 162 10 view .LVU625
 1624 0472 0725     		movs	r5, #7
 1625 0474 0CE0     		b	.L56
 1626              	.LVL173:
 1627              	.L57:
 1628              	.LBB138:
 167:mavlink/minimal/../mavlink_sha256.h **** 	offset += l;
 1629              		.loc 1 167 2 is_stmt 1 view .LVU626
 1630 0476 3246     		mov	r2, r6
 1631 0478 3946     		mov	r1, r7
 1632 047a 35AB     		add	r3, sp, #212
 1633 047c 03EB0800 		add	r0, r3, r8
 1634 0480 FFF7FEFF 		bl	memcpy
 1635              	.LVL174:
 168:mavlink/minimal/../mavlink_sha256.h **** 	p += l;
 1636              		.loc 1 168 2 view .LVU627
 168:mavlink/minimal/../mavlink_sha256.h **** 	p += l;
 1637              		.loc 1 168 9 is_stmt 0 view .LVU628
 1638 0484 B044     		add	r8, r8, r6
 1639              	.LVL175:
 169:mavlink/minimal/../mavlink_sha256.h **** 	len -= l;
 1640              		.loc 1 169 2 is_stmt 1 view .LVU629
 169:mavlink/minimal/../mavlink_sha256.h **** 	len -= l;
 1641              		.loc 1 169 4 is_stmt 0 view .LVU630
 1642 0486 3744     		add	r7, r7, r6
 1643              	.LVL176:
 170:mavlink/minimal/../mavlink_sha256.h **** 	if(offset == 64){
 1644              		.loc 1 170 2 is_stmt 1 view .LVU631
 170:mavlink/minimal/../mavlink_sha256.h **** 	if(offset == 64){
 1645              		.loc 1 170 6 is_stmt 0 view .LVU632
 1646 0488 AD1B     		subs	r5, r5, r6
 1647              	.LVL177:
 171:mavlink/minimal/../mavlink_sha256.h **** 	    int i;
 1648              		.loc 1 171 2 is_stmt 1 view .LVU633
 171:mavlink/minimal/../mavlink_sha256.h **** 	    int i;
 1649              		.loc 1 171 4 is_stmt 0 view .LVU634
 1650 048a B8F1400F 		cmp	r8, #64
 1651 048e 06D0     		beq	.L104
 1652              	.LVL178:
 1653              	.L56:
 171:mavlink/minimal/../mavlink_sha256.h **** 	    int i;
 1654              		.loc 1 171 4 view .LVU635
 1655              	.LBE138:
 162:mavlink/minimal/../mavlink_sha256.h **** 	uint32_t l = 64 - offset;
 1656              		.loc 1 162 10 is_stmt 1 view .LVU636
 1657 0490 0DB3     		cbz	r5, .L105
 1658              	.LBB141:
 163:mavlink/minimal/../mavlink_sha256.h ****         if (len < l) {
 1659              		.loc 1 163 2 view .LVU637
 163:mavlink/minimal/../mavlink_sha256.h ****         if (len < l) {
 1660              		.loc 1 163 11 is_stmt 0 view .LVU638
 1661 0492 C8F14006 		rsb	r6, r8, #64
 1662              	.LVL179:
 164:mavlink/minimal/../mavlink_sha256.h ****             l = len;
ARM GAS  /tmp/ccNouMZU.s 			page 53


 1663              		.loc 1 164 9 is_stmt 1 view .LVU639
 164:mavlink/minimal/../mavlink_sha256.h ****             l = len;
 1664              		.loc 1 164 12 is_stmt 0 view .LVU640
 1665 0496 AE42     		cmp	r6, r5
 1666 0498 EDD9     		bls	.L57
 165:mavlink/minimal/../mavlink_sha256.h ****         }
 1667              		.loc 1 165 15 view .LVU641
 1668 049a 2E46     		mov	r6, r5
 1669              	.LVL180:
 165:mavlink/minimal/../mavlink_sha256.h ****         }
 1670              		.loc 1 165 15 view .LVU642
 1671 049c EBE7     		b	.L57
 1672              	.LVL181:
 1673              	.L104:
 1674              	.LBB139:
 175:mavlink/minimal/../mavlink_sha256.h ****                 const uint8_t *p1 = (const uint8_t *)&u[i];
 1675              		.loc 1 175 13 view .LVU643
 1676 049e 0023     		movs	r3, #0
 1677              	.LVL182:
 1678              	.L58:
 175:mavlink/minimal/../mavlink_sha256.h ****                 const uint8_t *p1 = (const uint8_t *)&u[i];
 1679              		.loc 1 175 18 is_stmt 1 view .LVU644
 175:mavlink/minimal/../mavlink_sha256.h ****                 const uint8_t *p1 = (const uint8_t *)&u[i];
 1680              		.loc 1 175 6 is_stmt 0 view .LVU645
 1681 04a0 0F2B     		cmp	r3, #15
 1682 04a2 12DC     		bgt	.L106
 1683              	.LBB140:
 176:mavlink/minimal/../mavlink_sha256.h ****                 uint8_t *p2 = (uint8_t *)&current[i];
 1684              		.loc 1 176 17 is_stmt 1 view .LVU646
 176:mavlink/minimal/../mavlink_sha256.h ****                 uint8_t *p2 = (uint8_t *)&current[i];
 1685              		.loc 1 176 32 is_stmt 0 view .LVU647
 1686 04a4 35A8     		add	r0, sp, #212
 1687 04a6 00EB8301 		add	r1, r0, r3, lsl #2
 1688              	.LVL183:
 177:mavlink/minimal/../mavlink_sha256.h ****                 p2[0] = p1[3];
 1689              		.loc 1 177 17 is_stmt 1 view .LVU648
 177:mavlink/minimal/../mavlink_sha256.h ****                 p2[0] = p1[3];
 1690              		.loc 1 177 26 is_stmt 0 view .LVU649
 1691 04aa 19AE     		add	r6, sp, #100
 1692 04ac 06EB8302 		add	r2, r6, r3, lsl #2
 1693              	.LVL184:
 178:mavlink/minimal/../mavlink_sha256.h ****                 p2[1] = p1[2];
 1694              		.loc 1 178 17 is_stmt 1 view .LVU650
 178:mavlink/minimal/../mavlink_sha256.h ****                 p2[1] = p1[2];
 1695              		.loc 1 178 23 is_stmt 0 view .LVU651
 1696 04b0 91F803C0 		ldrb	ip, [r1, #3]	@ zero_extendqisi2
 1697 04b4 06F823C0 		strb	ip, [r6, r3, lsl #2]
 179:mavlink/minimal/../mavlink_sha256.h ****                 p2[2] = p1[1];
 1698              		.loc 1 179 17 is_stmt 1 view .LVU652
 179:mavlink/minimal/../mavlink_sha256.h ****                 p2[2] = p1[1];
 1699              		.loc 1 179 23 is_stmt 0 view .LVU653
 1700 04b8 8E78     		ldrb	r6, [r1, #2]	@ zero_extendqisi2
 1701 04ba 5670     		strb	r6, [r2, #1]
 180:mavlink/minimal/../mavlink_sha256.h ****                 p2[3] = p1[0];
 1702              		.loc 1 180 17 is_stmt 1 view .LVU654
 180:mavlink/minimal/../mavlink_sha256.h ****                 p2[3] = p1[0];
 1703              		.loc 1 180 23 is_stmt 0 view .LVU655
ARM GAS  /tmp/ccNouMZU.s 			page 54


 1704 04bc 4978     		ldrb	r1, [r1, #1]	@ zero_extendqisi2
 1705              	.LVL185:
 180:mavlink/minimal/../mavlink_sha256.h ****                 p2[3] = p1[0];
 1706              		.loc 1 180 23 view .LVU656
 1707 04be 9170     		strb	r1, [r2, #2]
 181:mavlink/minimal/../mavlink_sha256.h **** 	    }
 1708              		.loc 1 181 17 is_stmt 1 view .LVU657
 181:mavlink/minimal/../mavlink_sha256.h **** 	    }
 1709              		.loc 1 181 27 is_stmt 0 view .LVU658
 1710 04c0 10F82310 		ldrb	r1, [r0, r3, lsl #2]	@ zero_extendqisi2
 181:mavlink/minimal/../mavlink_sha256.h **** 	    }
 1711              		.loc 1 181 23 view .LVU659
 1712 04c4 D170     		strb	r1, [r2, #3]
 1713              	.LBE140:
 175:mavlink/minimal/../mavlink_sha256.h ****                 const uint8_t *p1 = (const uint8_t *)&u[i];
 1714              		.loc 1 175 26 is_stmt 1 view .LVU660
 175:mavlink/minimal/../mavlink_sha256.h ****                 const uint8_t *p1 = (const uint8_t *)&u[i];
 1715              		.loc 1 175 27 is_stmt 0 view .LVU661
 1716 04c6 0133     		adds	r3, r3, #1
 1717              	.LVL186:
 175:mavlink/minimal/../mavlink_sha256.h ****                 const uint8_t *p1 = (const uint8_t *)&u[i];
 1718              		.loc 1 175 27 view .LVU662
 1719 04c8 EAE7     		b	.L58
 1720              	.LVL187:
 1721              	.L106:
 183:mavlink/minimal/../mavlink_sha256.h **** 	    offset = 0;
 1722              		.loc 1 183 6 is_stmt 1 view .LVU663
 1723 04ca 19A9     		add	r1, sp, #100
 1724 04cc 2BA8     		add	r0, sp, #172
 1725              	.LVL188:
 183:mavlink/minimal/../mavlink_sha256.h **** 	    offset = 0;
 1726              		.loc 1 183 6 is_stmt 0 view .LVU664
 1727 04ce FFF7FEFF 		bl	mavlink_sha256_calc
 1728              	.LVL189:
 1729              		.loc 1 184 6 is_stmt 1 view .LVU665
 1730              		.loc 1 184 13 is_stmt 0 view .LVU666
 1731 04d2 A046     		mov	r8, r4
 1732 04d4 DCE7     		b	.L56
 1733              	.LVL190:
 1734              	.L105:
 1735              		.loc 1 184 13 view .LVU667
 1736              	.LBE139:
 1737              	.LBE141:
 1738              	.LBE137:
 1739              	.LBE136:
  98:mavlink/minimal/../mavlink_helpers.h **** 	
 1740              		.loc 3 98 2 is_stmt 1 view .LVU668
 1741              	.LBB142:
 1742              	.LBI142:
 185:mavlink/minimal/../mavlink_sha256.h **** 	}
 186:mavlink/minimal/../mavlink_sha256.h ****     }
 187:mavlink/minimal/../mavlink_sha256.h **** }
 188:mavlink/minimal/../mavlink_sha256.h **** 
 189:mavlink/minimal/../mavlink_sha256.h **** /*
 190:mavlink/minimal/../mavlink_sha256.h ****   get first 48 bits of final sha256 hash
 191:mavlink/minimal/../mavlink_sha256.h ****  */
 192:mavlink/minimal/../mavlink_sha256.h **** MAVLINK_HELPER void mavlink_sha256_final_48(mavlink_sha256_ctx *m, uint8_t result[6])
ARM GAS  /tmp/ccNouMZU.s 			page 55


 1743              		.loc 1 192 21 view .LVU669
 1744              	.LBB143:
 193:mavlink/minimal/../mavlink_sha256.h **** {
 194:mavlink/minimal/../mavlink_sha256.h ****     unsigned char zeros[72];
 1745              		.loc 1 194 5 view .LVU670
 195:mavlink/minimal/../mavlink_sha256.h ****     unsigned offset = (m->sz[0] / 8) % 64;
 1746              		.loc 1 195 5 view .LVU671
 1747              		.loc 1 195 29 is_stmt 0 view .LVU672
 1748 04d6 2B9B     		ldr	r3, [sp, #172]
 1749              		.loc 1 195 33 view .LVU673
 1750 04d8 DE08     		lsrs	r6, r3, #3
 1751              	.LVL191:
 196:mavlink/minimal/../mavlink_sha256.h ****     unsigned int dstart = (120 - offset - 1) % 64 + 1;
 1752              		.loc 1 196 5 is_stmt 1 view .LVU674
 1753 04da C6F17706 		rsb	r6, r6, #119
 1754              	.LVL192:
 1755              		.loc 1 196 5 is_stmt 0 view .LVU675
 1756 04de 06F03F06 		and	r6, r6, #63
 197:mavlink/minimal/../mavlink_sha256.h ****     uint8_t *p = (uint8_t *)&m->counter[0];
 1757              		.loc 1 197 5 is_stmt 1 view .LVU676
 1758              	.LVL193:
 198:mavlink/minimal/../mavlink_sha256.h ****     
 199:mavlink/minimal/../mavlink_sha256.h ****     *zeros = 0x80;
 1759              		.loc 1 199 5 view .LVU677
 1760              		.loc 1 199 12 is_stmt 0 view .LVU678
 1761 04e2 8023     		movs	r3, #128
 1762              	.LVL194:
 1763              		.loc 1 199 12 view .LVU679
 1764 04e4 8DF86430 		strb	r3, [sp, #100]
 200:mavlink/minimal/../mavlink_sha256.h ****     memset (zeros + 1, 0, sizeof(zeros) - 1);
 1765              		.loc 1 200 5 is_stmt 1 view .LVU680
 1766 04e8 4722     		movs	r2, #71
 1767 04ea 0021     		movs	r1, #0
 1768 04ec 0DF16500 		add	r0, sp, #101
 1769 04f0 FFF7FEFF 		bl	memset
 1770              	.LVL195:
 201:mavlink/minimal/../mavlink_sha256.h ****     zeros[dstart+7] = (m->sz[0] >> 0) & 0xff;
 1771              		.loc 1 201 5 view .LVU681
 1772              		.loc 1 201 33 is_stmt 0 view .LVU682
 1773 04f4 2B9B     		ldr	r3, [sp, #172]
 1774              		.loc 1 201 21 view .LVU683
 1775 04f6 06F5A072 		add	r2, r6, #320
 1776 04fa 6A44     		add	r2, sp, r2
 1777 04fc 02F8D43C 		strb	r3, [r2, #-212]
 202:mavlink/minimal/../mavlink_sha256.h ****     zeros[dstart+6] = (m->sz[0] >> 8) & 0xff;
 1778              		.loc 1 202 5 is_stmt 1 view .LVU684
 1779              		.loc 1 202 33 is_stmt 0 view .LVU685
 1780 0500 190A     		lsrs	r1, r3, #8
 1781              		.loc 1 202 21 view .LVU686
 1782 0502 06F23F12 		addw	r2, r6, #319
 1783 0506 6A44     		add	r2, sp, r2
 1784 0508 02F8D41C 		strb	r1, [r2, #-212]
 203:mavlink/minimal/../mavlink_sha256.h ****     zeros[dstart+5] = (m->sz[0] >> 16) & 0xff;
 1785              		.loc 1 203 5 is_stmt 1 view .LVU687
 1786              		.loc 1 203 33 is_stmt 0 view .LVU688
 1787 050c 190C     		lsrs	r1, r3, #16
 1788              		.loc 1 203 21 view .LVU689
ARM GAS  /tmp/ccNouMZU.s 			page 56


 1789 050e 06F59F72 		add	r2, r6, #318
 1790 0512 6A44     		add	r2, sp, r2
 1791 0514 02F8D41C 		strb	r1, [r2, #-212]
 204:mavlink/minimal/../mavlink_sha256.h ****     zeros[dstart+4] = (m->sz[0] >> 24) & 0xff;
 1792              		.loc 1 204 5 is_stmt 1 view .LVU690
 1793              		.loc 1 204 33 is_stmt 0 view .LVU691
 1794 0518 190E     		lsrs	r1, r3, #24
 1795              		.loc 1 204 21 view .LVU692
 1796 051a 06F23D12 		addw	r2, r6, #317
 1797 051e 6A44     		add	r2, sp, r2
 1798 0520 02F8D41C 		strb	r1, [r2, #-212]
 205:mavlink/minimal/../mavlink_sha256.h ****     zeros[dstart+3] = (m->sz[1] >> 0) & 0xff;
 1799              		.loc 1 205 5 is_stmt 1 view .LVU693
 1800              		.loc 1 205 33 is_stmt 0 view .LVU694
 1801 0524 2C9A     		ldr	r2, [sp, #176]
 1802              		.loc 1 205 21 view .LVU695
 1803 0526 06F59E71 		add	r1, r6, #316
 1804 052a 6944     		add	r1, sp, r1
 1805 052c 01F8D42C 		strb	r2, [r1, #-212]
 206:mavlink/minimal/../mavlink_sha256.h ****     zeros[dstart+2] = (m->sz[1] >> 8) & 0xff;
 1806              		.loc 1 206 5 is_stmt 1 view .LVU696
 1807              		.loc 1 206 33 is_stmt 0 view .LVU697
 1808 0530 100A     		lsrs	r0, r2, #8
 1809              		.loc 1 206 21 view .LVU698
 1810 0532 06F23B11 		addw	r1, r6, #315
 1811 0536 6944     		add	r1, sp, r1
 1812 0538 01F8D40C 		strb	r0, [r1, #-212]
 207:mavlink/minimal/../mavlink_sha256.h ****     zeros[dstart+1] = (m->sz[1] >> 16) & 0xff;
 1813              		.loc 1 207 5 is_stmt 1 view .LVU699
 1814              		.loc 1 207 33 is_stmt 0 view .LVU700
 1815 053c 100C     		lsrs	r0, r2, #16
 1816              		.loc 1 207 21 view .LVU701
 1817 053e 06F59D71 		add	r1, r6, #314
 1818 0542 6944     		add	r1, sp, r1
 1819 0544 01F8D40C 		strb	r0, [r1, #-212]
 208:mavlink/minimal/../mavlink_sha256.h ****     zeros[dstart+0] = (m->sz[1] >> 24) & 0xff;
 1820              		.loc 1 208 5 is_stmt 1 view .LVU702
 1821              		.loc 1 208 33 is_stmt 0 view .LVU703
 1822 0548 120E     		lsrs	r2, r2, #24
 1823              		.loc 1 208 21 view .LVU704
 1824 054a 06F23911 		addw	r1, r6, #313
 1825 054e 0DEB0104 		add	r4, sp, r1
 1826 0552 04F8D42C 		strb	r2, [r4, #-212]
 209:mavlink/minimal/../mavlink_sha256.h **** 
 210:mavlink/minimal/../mavlink_sha256.h ****     mavlink_sha256_update(m, zeros, dstart + 8);
 1827              		.loc 1 210 5 is_stmt 1 view .LVU705
 1828              		.loc 1 210 44 is_stmt 0 view .LVU706
 1829 0556 0936     		adds	r6, r6, #9
 1830              	.LVL196:
 1831              	.LBB144:
 1832              	.LBI144:
 152:mavlink/minimal/../mavlink_sha256.h **** {
 1833              		.loc 1 152 21 is_stmt 1 view .LVU707
 1834              	.LBB145:
 154:mavlink/minimal/../mavlink_sha256.h ****     uint32_t old_sz = m->sz[0];
 1835              		.loc 1 154 5 view .LVU708
 155:mavlink/minimal/../mavlink_sha256.h ****     uint32_t offset;
ARM GAS  /tmp/ccNouMZU.s 			page 57


 1836              		.loc 1 155 5 view .LVU709
 156:mavlink/minimal/../mavlink_sha256.h **** 
 1837              		.loc 1 156 5 view .LVU710
 158:mavlink/minimal/../mavlink_sha256.h ****     if (m->sz[0] < old_sz)
 1838              		.loc 1 158 5 view .LVU711
 158:mavlink/minimal/../mavlink_sha256.h ****     if (m->sz[0] < old_sz)
 1839              		.loc 1 158 14 is_stmt 0 view .LVU712
 1840 0558 03EBC602 		add	r2, r3, r6, lsl #3
 1841 055c 2B92     		str	r2, [sp, #172]
 159:mavlink/minimal/../mavlink_sha256.h **** 	++m->sz[1];
 1842              		.loc 1 159 5 is_stmt 1 view .LVU713
 159:mavlink/minimal/../mavlink_sha256.h **** 	++m->sz[1];
 1843              		.loc 1 159 8 is_stmt 0 view .LVU714
 1844 055e 9342     		cmp	r3, r2
 1845 0560 02D9     		bls	.L62
 160:mavlink/minimal/../mavlink_sha256.h ****     offset = (old_sz / 8) % 64;
 1846              		.loc 1 160 2 is_stmt 1 view .LVU715
 160:mavlink/minimal/../mavlink_sha256.h ****     offset = (old_sz / 8) % 64;
 1847              		.loc 1 160 9 is_stmt 0 view .LVU716
 1848 0562 2C9A     		ldr	r2, [sp, #176]
 160:mavlink/minimal/../mavlink_sha256.h ****     offset = (old_sz / 8) % 64;
 1849              		.loc 1 160 2 view .LVU717
 1850 0564 0132     		adds	r2, r2, #1
 1851 0566 2C92     		str	r2, [sp, #176]
 1852              	.L62:
 161:mavlink/minimal/../mavlink_sha256.h ****     while(len > 0){
 1853              		.loc 1 161 5 is_stmt 1 view .LVU718
 161:mavlink/minimal/../mavlink_sha256.h ****     while(len > 0){
 1854              		.loc 1 161 12 is_stmt 0 view .LVU719
 1855 0568 C3F3C508 		ubfx	r8, r3, #3, #6
 1856              	.LVL197:
 162:mavlink/minimal/../mavlink_sha256.h **** 	uint32_t l = 64 - offset;
 1857              		.loc 1 162 5 is_stmt 1 view .LVU720
 154:mavlink/minimal/../mavlink_sha256.h ****     uint32_t old_sz = m->sz[0];
 1858              		.loc 1 154 26 is_stmt 0 view .LVU721
 1859 056c 19AF     		add	r7, sp, #100
 1860              	.LVL198:
 162:mavlink/minimal/../mavlink_sha256.h **** 	uint32_t l = 64 - offset;
 1861              		.loc 1 162 10 view .LVU722
 1862 056e 0CE0     		b	.L63
 1863              	.LVL199:
 1864              	.L64:
 1865              	.LBB146:
 167:mavlink/minimal/../mavlink_sha256.h **** 	offset += l;
 1866              		.loc 1 167 2 is_stmt 1 view .LVU723
 1867 0570 2246     		mov	r2, r4
 1868 0572 3946     		mov	r1, r7
 1869 0574 35AB     		add	r3, sp, #212
 1870 0576 03EB0800 		add	r0, r3, r8
 1871 057a FFF7FEFF 		bl	memcpy
 1872              	.LVL200:
 168:mavlink/minimal/../mavlink_sha256.h **** 	p += l;
 1873              		.loc 1 168 2 view .LVU724
 168:mavlink/minimal/../mavlink_sha256.h **** 	p += l;
 1874              		.loc 1 168 9 is_stmt 0 view .LVU725
 1875 057e A044     		add	r8, r8, r4
 1876              	.LVL201:
ARM GAS  /tmp/ccNouMZU.s 			page 58


 169:mavlink/minimal/../mavlink_sha256.h **** 	len -= l;
 1877              		.loc 1 169 2 is_stmt 1 view .LVU726
 169:mavlink/minimal/../mavlink_sha256.h **** 	len -= l;
 1878              		.loc 1 169 4 is_stmt 0 view .LVU727
 1879 0580 2744     		add	r7, r7, r4
 1880              	.LVL202:
 170:mavlink/minimal/../mavlink_sha256.h **** 	if(offset == 64){
 1881              		.loc 1 170 2 is_stmt 1 view .LVU728
 170:mavlink/minimal/../mavlink_sha256.h **** 	if(offset == 64){
 1882              		.loc 1 170 6 is_stmt 0 view .LVU729
 1883 0582 361B     		subs	r6, r6, r4
 1884              	.LVL203:
 171:mavlink/minimal/../mavlink_sha256.h **** 	    int i;
 1885              		.loc 1 171 2 is_stmt 1 view .LVU730
 171:mavlink/minimal/../mavlink_sha256.h **** 	    int i;
 1886              		.loc 1 171 4 is_stmt 0 view .LVU731
 1887 0584 B8F1400F 		cmp	r8, #64
 1888 0588 06D0     		beq	.L107
 1889              	.LVL204:
 1890              	.L63:
 171:mavlink/minimal/../mavlink_sha256.h **** 	    int i;
 1891              		.loc 1 171 4 view .LVU732
 1892              	.LBE146:
 162:mavlink/minimal/../mavlink_sha256.h **** 	uint32_t l = 64 - offset;
 1893              		.loc 1 162 10 is_stmt 1 view .LVU733
 1894 058a 0EB3     		cbz	r6, .L108
 1895              	.LBB149:
 163:mavlink/minimal/../mavlink_sha256.h ****         if (len < l) {
 1896              		.loc 1 163 2 view .LVU734
 163:mavlink/minimal/../mavlink_sha256.h ****         if (len < l) {
 1897              		.loc 1 163 11 is_stmt 0 view .LVU735
 1898 058c C8F14004 		rsb	r4, r8, #64
 1899              	.LVL205:
 164:mavlink/minimal/../mavlink_sha256.h ****             l = len;
 1900              		.loc 1 164 9 is_stmt 1 view .LVU736
 164:mavlink/minimal/../mavlink_sha256.h ****             l = len;
 1901              		.loc 1 164 12 is_stmt 0 view .LVU737
 1902 0590 B442     		cmp	r4, r6
 1903 0592 EDD9     		bls	.L64
 165:mavlink/minimal/../mavlink_sha256.h ****         }
 1904              		.loc 1 165 15 view .LVU738
 1905 0594 3446     		mov	r4, r6
 1906              	.LVL206:
 165:mavlink/minimal/../mavlink_sha256.h ****         }
 1907              		.loc 1 165 15 view .LVU739
 1908 0596 EBE7     		b	.L64
 1909              	.LVL207:
 1910              	.L107:
 1911              	.LBB147:
 175:mavlink/minimal/../mavlink_sha256.h ****                 const uint8_t *p1 = (const uint8_t *)&u[i];
 1912              		.loc 1 175 13 view .LVU740
 1913 0598 0023     		movs	r3, #0
 1914              	.LVL208:
 1915              	.L65:
 175:mavlink/minimal/../mavlink_sha256.h ****                 const uint8_t *p1 = (const uint8_t *)&u[i];
 1916              		.loc 1 175 18 is_stmt 1 view .LVU741
 175:mavlink/minimal/../mavlink_sha256.h ****                 const uint8_t *p1 = (const uint8_t *)&u[i];
ARM GAS  /tmp/ccNouMZU.s 			page 59


 1917              		.loc 1 175 6 is_stmt 0 view .LVU742
 1918 059a 0F2B     		cmp	r3, #15
 1919 059c 12DC     		bgt	.L109
 1920              	.LBB148:
 176:mavlink/minimal/../mavlink_sha256.h ****                 uint8_t *p2 = (uint8_t *)&current[i];
 1921              		.loc 1 176 17 is_stmt 1 view .LVU743
 176:mavlink/minimal/../mavlink_sha256.h ****                 uint8_t *p2 = (uint8_t *)&current[i];
 1922              		.loc 1 176 32 is_stmt 0 view .LVU744
 1923 059e 35A8     		add	r0, sp, #212
 1924 05a0 00EB8301 		add	r1, r0, r3, lsl #2
 1925              	.LVL209:
 177:mavlink/minimal/../mavlink_sha256.h ****                 p2[0] = p1[3];
 1926              		.loc 1 177 17 is_stmt 1 view .LVU745
 177:mavlink/minimal/../mavlink_sha256.h ****                 p2[0] = p1[3];
 1927              		.loc 1 177 26 is_stmt 0 view .LVU746
 1928 05a4 09AC     		add	r4, sp, #36
 1929 05a6 04EB8302 		add	r2, r4, r3, lsl #2
 1930              	.LVL210:
 178:mavlink/minimal/../mavlink_sha256.h ****                 p2[1] = p1[2];
 1931              		.loc 1 178 17 is_stmt 1 view .LVU747
 178:mavlink/minimal/../mavlink_sha256.h ****                 p2[1] = p1[2];
 1932              		.loc 1 178 23 is_stmt 0 view .LVU748
 1933 05aa 91F803C0 		ldrb	ip, [r1, #3]	@ zero_extendqisi2
 1934 05ae 04F823C0 		strb	ip, [r4, r3, lsl #2]
 179:mavlink/minimal/../mavlink_sha256.h ****                 p2[2] = p1[1];
 1935              		.loc 1 179 17 is_stmt 1 view .LVU749
 179:mavlink/minimal/../mavlink_sha256.h ****                 p2[2] = p1[1];
 1936              		.loc 1 179 23 is_stmt 0 view .LVU750
 1937 05b2 8C78     		ldrb	r4, [r1, #2]	@ zero_extendqisi2
 1938 05b4 5470     		strb	r4, [r2, #1]
 180:mavlink/minimal/../mavlink_sha256.h ****                 p2[3] = p1[0];
 1939              		.loc 1 180 17 is_stmt 1 view .LVU751
 180:mavlink/minimal/../mavlink_sha256.h ****                 p2[3] = p1[0];
 1940              		.loc 1 180 23 is_stmt 0 view .LVU752
 1941 05b6 4978     		ldrb	r1, [r1, #1]	@ zero_extendqisi2
 1942              	.LVL211:
 180:mavlink/minimal/../mavlink_sha256.h ****                 p2[3] = p1[0];
 1943              		.loc 1 180 23 view .LVU753
 1944 05b8 9170     		strb	r1, [r2, #2]
 181:mavlink/minimal/../mavlink_sha256.h **** 	    }
 1945              		.loc 1 181 17 is_stmt 1 view .LVU754
 181:mavlink/minimal/../mavlink_sha256.h **** 	    }
 1946              		.loc 1 181 27 is_stmt 0 view .LVU755
 1947 05ba 10F82310 		ldrb	r1, [r0, r3, lsl #2]	@ zero_extendqisi2
 181:mavlink/minimal/../mavlink_sha256.h **** 	    }
 1948              		.loc 1 181 23 view .LVU756
 1949 05be D170     		strb	r1, [r2, #3]
 1950              	.LBE148:
 175:mavlink/minimal/../mavlink_sha256.h ****                 const uint8_t *p1 = (const uint8_t *)&u[i];
 1951              		.loc 1 175 26 is_stmt 1 view .LVU757
 175:mavlink/minimal/../mavlink_sha256.h ****                 const uint8_t *p1 = (const uint8_t *)&u[i];
 1952              		.loc 1 175 27 is_stmt 0 view .LVU758
 1953 05c0 0133     		adds	r3, r3, #1
 1954              	.LVL212:
 175:mavlink/minimal/../mavlink_sha256.h ****                 const uint8_t *p1 = (const uint8_t *)&u[i];
 1955              		.loc 1 175 27 view .LVU759
 1956 05c2 EAE7     		b	.L65
ARM GAS  /tmp/ccNouMZU.s 			page 60


 1957              	.LVL213:
 1958              	.L109:
 183:mavlink/minimal/../mavlink_sha256.h **** 	    offset = 0;
 1959              		.loc 1 183 6 is_stmt 1 view .LVU760
 1960 05c4 09A9     		add	r1, sp, #36
 1961 05c6 2BA8     		add	r0, sp, #172
 1962              	.LVL214:
 183:mavlink/minimal/../mavlink_sha256.h **** 	    offset = 0;
 1963              		.loc 1 183 6 is_stmt 0 view .LVU761
 1964 05c8 FFF7FEFF 		bl	mavlink_sha256_calc
 1965              	.LVL215:
 184:mavlink/minimal/../mavlink_sha256.h **** 	}
 1966              		.loc 1 184 6 is_stmt 1 view .LVU762
 184:mavlink/minimal/../mavlink_sha256.h **** 	}
 1967              		.loc 1 184 13 is_stmt 0 view .LVU763
 1968 05cc A846     		mov	r8, r5
 1969 05ce DCE7     		b	.L63
 1970              	.LVL216:
 1971              	.L108:
 184:mavlink/minimal/../mavlink_sha256.h **** 	}
 1972              		.loc 1 184 13 view .LVU764
 1973              	.LBE147:
 1974              	.LBE149:
 1975              	.LBE145:
 1976              	.LBE144:
 211:mavlink/minimal/../mavlink_sha256.h **** 
 212:mavlink/minimal/../mavlink_sha256.h ****     // this ordering makes the result consistent with taking the first
 213:mavlink/minimal/../mavlink_sha256.h ****     // 6 bytes of more conventional sha256 functions. It assumes
 214:mavlink/minimal/../mavlink_sha256.h ****     // little-endian ordering of m->counter
 215:mavlink/minimal/../mavlink_sha256.h ****     result[0] = p[3];
 1977              		.loc 1 215 5 is_stmt 1 view .LVU765
 1978              		.loc 1 215 15 is_stmt 0 view .LVU766
 1979 05d0 0E4B     		ldr	r3, .L113+8
 1980 05d2 9DF8B720 		ldrb	r2, [sp, #183]	@ zero_extendqisi2
 1981 05d6 83F81D21 		strb	r2, [r3, #285]
 216:mavlink/minimal/../mavlink_sha256.h ****     result[1] = p[2];
 1982              		.loc 1 216 5 is_stmt 1 view .LVU767
 1983              		.loc 1 216 15 is_stmt 0 view .LVU768
 1984 05da 9DF8B620 		ldrb	r2, [sp, #182]	@ zero_extendqisi2
 1985 05de 83F81E21 		strb	r2, [r3, #286]
 217:mavlink/minimal/../mavlink_sha256.h ****     result[2] = p[1];
 1986              		.loc 1 217 5 is_stmt 1 view .LVU769
 1987              		.loc 1 217 15 is_stmt 0 view .LVU770
 1988 05e2 9DF8B520 		ldrb	r2, [sp, #181]	@ zero_extendqisi2
 1989 05e6 83F81F21 		strb	r2, [r3, #287]
 218:mavlink/minimal/../mavlink_sha256.h ****     result[3] = p[0];
 1990              		.loc 1 218 5 is_stmt 1 view .LVU771
 1991              		.loc 1 218 18 is_stmt 0 view .LVU772
 1992 05ea 9DF8B420 		ldrb	r2, [sp, #180]	@ zero_extendqisi2
 1993              		.loc 1 218 15 view .LVU773
 1994 05ee 83F82021 		strb	r2, [r3, #288]
 219:mavlink/minimal/../mavlink_sha256.h ****     result[4] = p[7];
 1995              		.loc 1 219 5 is_stmt 1 view .LVU774
 1996              		.loc 1 219 15 is_stmt 0 view .LVU775
 1997 05f2 9DF8BB20 		ldrb	r2, [sp, #187]	@ zero_extendqisi2
 1998 05f6 83F82121 		strb	r2, [r3, #289]
 220:mavlink/minimal/../mavlink_sha256.h ****     result[5] = p[6];
ARM GAS  /tmp/ccNouMZU.s 			page 61


 1999              		.loc 1 220 5 is_stmt 1 view .LVU776
 2000              		.loc 1 220 15 is_stmt 0 view .LVU777
 2001 05fa 9DF8BA20 		ldrb	r2, [sp, #186]	@ zero_extendqisi2
 2002 05fe 83F82221 		strb	r2, [r3, #290]
 2003              	.LVL217:
 221:mavlink/minimal/../mavlink_sha256.h **** }
 2004              		.loc 1 221 1 view .LVU778
 2005 0602 BEE5     		b	.L25
 2006              	.L114:
 2007              		.align	2
 2008              	.L113:
 2009 0604 0C000000 		.word	.LANCHOR1+12
 2010 0608 16010000 		.word	.LANCHOR1+278
 2011 060c 00000000 		.word	.LANCHOR1
 2012              	.LVL218:
 2013              	.L72:
 2014              		.loc 1 221 1 view .LVU779
 2015              	.LBE143:
 2016              	.LBE142:
 2017              	.LBE109:
 2018              	.LBE108:
 2019              	.LBE150:
 2020              	.LBE152:
 2021              	.LBE154:
 2022              	.LBE157:
 2023              	.LBE160:
 2024              	.LBE164:
 2025              	.LBE174:
 2026              	.LBB175:
 2027              	.LBB172:
 2028              	.LBB170:
 2029              	.LBB171:
 114:mavlink/minimal/../mavlink_helpers.h **** 	}
 2030              		.loc 3 114 3 is_stmt 1 view .LVU780
 114:mavlink/minimal/../mavlink_helpers.h **** 	}
 2031              		.loc 3 114 9 is_stmt 0 view .LVU781
 2032 0610 013C     		subs	r4, r4, #1
 2033              	.LVL219:
 114:mavlink/minimal/../mavlink_helpers.h **** 	}
 2034              		.loc 3 114 9 view .LVU782
 2035 0612 E4B2     		uxtb	r4, r4
 2036              	.LVL220:
 2037              	.L69:
 113:mavlink/minimal/../mavlink_helpers.h **** 		length--;
 2038              		.loc 3 113 8 is_stmt 1 view .LVU783
 2039 0614 012C     		cmp	r4, #1
 2040 0616 04D9     		bls	.L71
 113:mavlink/minimal/../mavlink_helpers.h **** 		length--;
 2041              		.loc 3 113 30 is_stmt 0 view .LVU784
 2042 0618 3A4B     		ldr	r3, .L115
 2043 061a 2344     		add	r3, r3, r4
 2044 061c DB7A     		ldrb	r3, [r3, #11]	@ zero_extendqisi2
 113:mavlink/minimal/../mavlink_helpers.h **** 		length--;
 2045              		.loc 3 113 20 view .LVU785
 2046 061e 002B     		cmp	r3, #0
 2047 0620 F6D0     		beq	.L72
 2048              	.L71:
ARM GAS  /tmp/ccNouMZU.s 			page 62


 116:mavlink/minimal/../mavlink_helpers.h **** }
 2049              		.loc 3 116 2 is_stmt 1 view .LVU786
 2050              	.LVL221:
 116:mavlink/minimal/../mavlink_helpers.h **** }
 2051              		.loc 3 116 2 is_stmt 0 view .LVU787
 2052              	.LBE171:
 2053              	.LBE170:
 464:mavlink/minimal/../mavlink_helpers.h **** 	} else {
 465:mavlink/minimal/../mavlink_helpers.h **** 		length = _mav_trim_payload(_MAV_PAYLOAD(msg), length);
 466:mavlink/minimal/../mavlink_helpers.h **** 		header_len = MAVLINK_CORE_HEADER_LEN;
 2054              		.loc 3 466 3 is_stmt 1 view .LVU788
 467:mavlink/minimal/../mavlink_helpers.h **** 		buf[0] = msg->magic;
 2055              		.loc 3 467 3 view .LVU789
 2056              		.loc 3 467 10 is_stmt 0 view .LVU790
 2057 0622 394D     		ldr	r5, .L115+4
 2058 0624 2A70     		strb	r2, [r5]
 468:mavlink/minimal/../mavlink_helpers.h **** 		buf[1] = length;
 2059              		.loc 3 468 3 is_stmt 1 view .LVU791
 2060              		.loc 3 468 10 is_stmt 0 view .LVU792
 2061 0626 6C70     		strb	r4, [r5, #1]
 469:mavlink/minimal/../mavlink_helpers.h **** 		buf[2] = msg->incompat_flags;
 2062              		.loc 3 469 3 is_stmt 1 view .LVU793
 2063              		.loc 3 469 15 is_stmt 0 view .LVU794
 2064 0628 364E     		ldr	r6, .L115
 2065 062a 3379     		ldrb	r3, [r6, #4]	@ zero_extendqisi2
 2066              		.loc 3 469 10 view .LVU795
 2067 062c AB70     		strb	r3, [r5, #2]
 470:mavlink/minimal/../mavlink_helpers.h **** 		buf[3] = msg->compat_flags;
 2068              		.loc 3 470 3 is_stmt 1 view .LVU796
 2069              		.loc 3 470 15 is_stmt 0 view .LVU797
 2070 062e 7379     		ldrb	r3, [r6, #5]	@ zero_extendqisi2
 2071              		.loc 3 470 10 view .LVU798
 2072 0630 EB70     		strb	r3, [r5, #3]
 471:mavlink/minimal/../mavlink_helpers.h **** 		buf[4] = msg->seq;
 2073              		.loc 3 471 3 is_stmt 1 view .LVU799
 2074              		.loc 3 471 15 is_stmt 0 view .LVU800
 2075 0632 B379     		ldrb	r3, [r6, #6]	@ zero_extendqisi2
 2076              		.loc 3 471 10 view .LVU801
 2077 0634 2B71     		strb	r3, [r5, #4]
 472:mavlink/minimal/../mavlink_helpers.h **** 		buf[5] = msg->sysid;
 2078              		.loc 3 472 3 is_stmt 1 view .LVU802
 2079              		.loc 3 472 15 is_stmt 0 view .LVU803
 2080 0636 F379     		ldrb	r3, [r6, #7]	@ zero_extendqisi2
 2081              		.loc 3 472 10 view .LVU804
 2082 0638 6B71     		strb	r3, [r5, #5]
 473:mavlink/minimal/../mavlink_helpers.h **** 		buf[6] = msg->compid;
 2083              		.loc 3 473 3 is_stmt 1 view .LVU805
 2084              		.loc 3 473 15 is_stmt 0 view .LVU806
 2085 063a 337A     		ldrb	r3, [r6, #8]	@ zero_extendqisi2
 2086              		.loc 3 473 10 view .LVU807
 2087 063c AB71     		strb	r3, [r5, #6]
 474:mavlink/minimal/../mavlink_helpers.h **** 		buf[7] = msg->msgid & 0xFF;
 2088              		.loc 3 474 3 is_stmt 1 view .LVU808
 2089              		.loc 3 474 15 is_stmt 0 view .LVU809
 2090 063e B368     		ldr	r3, [r6, #8]
 2091 0640 C3F31723 		ubfx	r3, r3, #8, #24
 2092              		.loc 3 474 10 view .LVU810
ARM GAS  /tmp/ccNouMZU.s 			page 63


 2093 0644 EB71     		strb	r3, [r5, #7]
 475:mavlink/minimal/../mavlink_helpers.h **** 		buf[8] = (msg->msgid >> 8) & 0xFF;
 2094              		.loc 3 475 3 is_stmt 1 view .LVU811
 2095              		.loc 3 475 24 is_stmt 0 view .LVU812
 2096 0646 1A12     		asrs	r2, r3, #8
 2097              		.loc 3 475 10 view .LVU813
 2098 0648 2A72     		strb	r2, [r5, #8]
 476:mavlink/minimal/../mavlink_helpers.h **** 		buf[9] = (msg->msgid >> 16) & 0xFF;
 2099              		.loc 3 476 3 is_stmt 1 view .LVU814
 2100              		.loc 3 476 24 is_stmt 0 view .LVU815
 2101 064a 1B14     		asrs	r3, r3, #16
 2102              		.loc 3 476 10 view .LVU816
 2103 064c 6B72     		strb	r3, [r5, #9]
 477:mavlink/minimal/../mavlink_helpers.h **** 		memcpy(&buf[10], _MAV_PAYLOAD(msg), length);
 2104              		.loc 3 477 3 is_stmt 1 view .LVU817
 2105 064e 2246     		mov	r2, r4
 2106 0650 06F10C01 		add	r1, r6, #12
 2107 0654 05F10A00 		add	r0, r5, #10
 2108 0658 FFF7FEFF 		bl	memcpy
 2109              	.LVL222:
 478:mavlink/minimal/../mavlink_helpers.h **** 		ck = buf + header_len + 1 + (uint16_t)length;
 2110              		.loc 3 478 3 view .LVU818
 2111              		.loc 3 478 29 is_stmt 0 view .LVU819
 2112 065c 04F10A00 		add	r0, r4, #10
 2113              		.loc 3 478 6 view .LVU820
 2114 0660 2844     		add	r0, r0, r5
 2115              	.LVL223:
 479:mavlink/minimal/../mavlink_helpers.h **** 		signature_len = (msg->incompat_flags & MAVLINK_IFLAG_SIGNED)?MAVLINK_SIGNATURE_BLOCK_LEN:0;
 2116              		.loc 3 479 3 is_stmt 1 view .LVU821
 2117              		.loc 3 479 23 is_stmt 0 view .LVU822
 2118 0662 3179     		ldrb	r1, [r6, #4]	@ zero_extendqisi2
 2119              		.loc 3 479 17 view .LVU823
 2120 0664 11F00107 		ands	r7, r1, #1
 2121 0668 44D0     		beq	.L91
 466:mavlink/minimal/../mavlink_helpers.h **** 		buf[0] = msg->magic;
 2122              		.loc 3 466 14 view .LVU824
 2123 066a 0926     		movs	r6, #9
 2124              		.loc 3 479 17 view .LVU825
 2125 066c 0D27     		movs	r7, #13
 2126              	.LVL224:
 2127              	.L70:
 480:mavlink/minimal/../mavlink_helpers.h **** 	}
 481:mavlink/minimal/../mavlink_helpers.h **** 	ck[0] = (uint8_t)(msg->checksum & 0xFF);
 2128              		.loc 3 481 2 is_stmt 1 view .LVU826
 2129              		.loc 3 481 23 is_stmt 0 view .LVU827
 2130 066e 254B     		ldr	r3, .L115
 2131 0670 1B88     		ldrh	r3, [r3]
 2132              		.loc 3 481 8 view .LVU828
 2133 0672 0370     		strb	r3, [r0]
 482:mavlink/minimal/../mavlink_helpers.h **** 	ck[1] = (uint8_t)(msg->checksum >> 8);
 2134              		.loc 3 482 2 is_stmt 1 view .LVU829
 2135              		.loc 3 482 10 is_stmt 0 view .LVU830
 2136 0674 1B0A     		lsrs	r3, r3, #8
 2137              		.loc 3 482 8 view .LVU831
 2138 0676 4370     		strb	r3, [r0, #1]
 483:mavlink/minimal/../mavlink_helpers.h **** 	if (signature_len > 0) {
 2139              		.loc 3 483 2 is_stmt 1 view .LVU832
ARM GAS  /tmp/ccNouMZU.s 			page 64


 2140              		.loc 3 483 5 is_stmt 0 view .LVU833
 2141 0678 002F     		cmp	r7, #0
 2142 067a 3DD1     		bne	.L110
 2143              	.LVL225:
 2144              	.L73:
 484:mavlink/minimal/../mavlink_helpers.h **** 		memcpy(&ck[2], msg->signature, signature_len);
 485:mavlink/minimal/../mavlink_helpers.h **** 	}
 486:mavlink/minimal/../mavlink_helpers.h **** 
 487:mavlink/minimal/../mavlink_helpers.h **** 	return header_len + 1 + 2 + (uint16_t)length + (uint16_t)signature_len;
 2145              		.loc 3 487 2 is_stmt 1 view .LVU834
 2146              		.loc 3 487 28 is_stmt 0 view .LVU835
 2147 067c 3119     		adds	r1, r6, r4
 2148              		.loc 3 487 47 view .LVU836
 2149 067e 3944     		add	r1, r1, r7
 2150 0680 0331     		adds	r1, r1, #3
 2151 0682 89B2     		uxth	r1, r1
 2152              	.LVL226:
 2153              		.loc 3 487 47 view .LVU837
 2154              	.LBE172:
 2155              	.LBE175:
 2156              		.loc 2 186 9 view .LVU838
 2157 0684 214B     		ldr	r3, .L115+8
 2158 0686 1980     		strh	r1, [r3]	@ movhi
 187:Core/Src/freertos.c ****     CDC_Transmit_FS(buf, len);
 2159              		.loc 2 187 5 is_stmt 1 view .LVU839
 2160 0688 1F48     		ldr	r0, .L115+4
 2161 068a FFF7FEFF 		bl	CDC_Transmit_FS
 2162              	.LVL227:
 188:Core/Src/freertos.c **** 
 189:Core/Src/freertos.c **** 
 190:Core/Src/freertos.c ****     osDelay(50); // 20Hz
 2163              		.loc 2 190 5 view .LVU840
 2164 068e 3220     		movs	r0, #50
 2165 0690 FFF7FEFF 		bl	osDelay
 2166              	.LVL228:
 2167              	.LBE84:
 173:Core/Src/freertos.c ****   {
 2168              		.loc 2 173 8 view .LVU841
 2169              	.L74:
 168:Core/Src/freertos.c ****   Barometer_Data_t baro;
 2170              		.loc 2 168 3 discriminator 1 view .LVU842
 169:Core/Src/freertos.c ****   Attitude_Data_t attitude;
 2171              		.loc 2 169 3 discriminator 1 view .LVU843
 170:Core/Src/freertos.c **** 
 2172              		.loc 2 170 3 discriminator 1 view .LVU844
 173:Core/Src/freertos.c ****   {
 2173              		.loc 2 173 3 discriminator 1 view .LVU845
 2174              	.LBB180:
 176:Core/Src/freertos.c ****     SensorTask_GetAttitude(&attitude);
 2175              		.loc 2 176 5 discriminator 1 view .LVU846
 2176 0694 49A8     		add	r0, sp, #292
 2177 0696 FFF7FEFF 		bl	SensorTask_GetBaro
 2178              	.LVL229:
 177:Core/Src/freertos.c ****     
 2179              		.loc 2 177 5 discriminator 1 view .LVU847
 2180 069a 45A8     		add	r0, sp, #276
 2181 069c FFF7FEFF 		bl	SensorTask_GetAttitude
ARM GAS  /tmp/ccNouMZU.s 			page 65


 2182              	.LVL230:
 179:Core/Src/freertos.c ****     // snprintf(buffer, 128, "[IMU] Gyro(deg/s) >> X:%.2f, Y:%.2f, Z:%.2f | Acc(m/s2) >> X:%.2f, Y:
 2183              		.loc 2 179 5 discriminator 1 view .LVU848
 185:Core/Src/freertos.c ****     len = mavlink_msg_to_send_buffer(buf, &msg);
 2184              		.loc 2 185 5 discriminator 1 view .LVU849
 2185              	.LBB176:
 2186              	.LBI85:
 2187              		.file 5 "mavlink/minimal/./mavlink_msg_heartbeat.h"
   1:mavlink/minimal/./mavlink_msg_heartbeat.h **** #pragma once
   2:mavlink/minimal/./mavlink_msg_heartbeat.h **** // MESSAGE HEARTBEAT PACKING
   3:mavlink/minimal/./mavlink_msg_heartbeat.h **** 
   4:mavlink/minimal/./mavlink_msg_heartbeat.h **** #define MAVLINK_MSG_ID_HEARTBEAT 0
   5:mavlink/minimal/./mavlink_msg_heartbeat.h **** 
   6:mavlink/minimal/./mavlink_msg_heartbeat.h **** 
   7:mavlink/minimal/./mavlink_msg_heartbeat.h **** typedef struct __mavlink_heartbeat_t {
   8:mavlink/minimal/./mavlink_msg_heartbeat.h ****  uint32_t custom_mode; /*<  A bitfield for use for autopilot-specific flags*/
   9:mavlink/minimal/./mavlink_msg_heartbeat.h ****  uint8_t type; /*<  Vehicle or component type. For a flight controller component the vehicle type (
  10:mavlink/minimal/./mavlink_msg_heartbeat.h ****  uint8_t autopilot; /*<  Autopilot type / class. Use MAV_AUTOPILOT_INVALID for components that are 
  11:mavlink/minimal/./mavlink_msg_heartbeat.h ****  uint8_t base_mode; /*<  System mode bitmap.*/
  12:mavlink/minimal/./mavlink_msg_heartbeat.h ****  uint8_t system_status; /*<  System status flag.*/
  13:mavlink/minimal/./mavlink_msg_heartbeat.h ****  uint8_t mavlink_version; /*<  MAVLink version, not writable by user, gets added by protocol becaus
  14:mavlink/minimal/./mavlink_msg_heartbeat.h **** } mavlink_heartbeat_t;
  15:mavlink/minimal/./mavlink_msg_heartbeat.h **** 
  16:mavlink/minimal/./mavlink_msg_heartbeat.h **** #define MAVLINK_MSG_ID_HEARTBEAT_LEN 9
  17:mavlink/minimal/./mavlink_msg_heartbeat.h **** #define MAVLINK_MSG_ID_HEARTBEAT_MIN_LEN 9
  18:mavlink/minimal/./mavlink_msg_heartbeat.h **** #define MAVLINK_MSG_ID_0_LEN 9
  19:mavlink/minimal/./mavlink_msg_heartbeat.h **** #define MAVLINK_MSG_ID_0_MIN_LEN 9
  20:mavlink/minimal/./mavlink_msg_heartbeat.h **** 
  21:mavlink/minimal/./mavlink_msg_heartbeat.h **** #define MAVLINK_MSG_ID_HEARTBEAT_CRC 50
  22:mavlink/minimal/./mavlink_msg_heartbeat.h **** #define MAVLINK_MSG_ID_0_CRC 50
  23:mavlink/minimal/./mavlink_msg_heartbeat.h **** 
  24:mavlink/minimal/./mavlink_msg_heartbeat.h **** 
  25:mavlink/minimal/./mavlink_msg_heartbeat.h **** 
  26:mavlink/minimal/./mavlink_msg_heartbeat.h **** #if MAVLINK_COMMAND_24BIT
  27:mavlink/minimal/./mavlink_msg_heartbeat.h **** #define MAVLINK_MESSAGE_INFO_HEARTBEAT { \
  28:mavlink/minimal/./mavlink_msg_heartbeat.h ****     0, \
  29:mavlink/minimal/./mavlink_msg_heartbeat.h ****     "HEARTBEAT", \
  30:mavlink/minimal/./mavlink_msg_heartbeat.h ****     6, \
  31:mavlink/minimal/./mavlink_msg_heartbeat.h ****     {  { "type", NULL, MAVLINK_TYPE_UINT8_T, 0, 4, offsetof(mavlink_heartbeat_t, type) }, \
  32:mavlink/minimal/./mavlink_msg_heartbeat.h ****          { "autopilot", NULL, MAVLINK_TYPE_UINT8_T, 0, 5, offsetof(mavlink_heartbeat_t, autopilot) 
  33:mavlink/minimal/./mavlink_msg_heartbeat.h ****          { "base_mode", NULL, MAVLINK_TYPE_UINT8_T, 0, 6, offsetof(mavlink_heartbeat_t, base_mode) 
  34:mavlink/minimal/./mavlink_msg_heartbeat.h ****          { "custom_mode", NULL, MAVLINK_TYPE_UINT32_T, 0, 0, offsetof(mavlink_heartbeat_t, custom_m
  35:mavlink/minimal/./mavlink_msg_heartbeat.h ****          { "system_status", NULL, MAVLINK_TYPE_UINT8_T, 0, 7, offsetof(mavlink_heartbeat_t, system_
  36:mavlink/minimal/./mavlink_msg_heartbeat.h ****          { "mavlink_version", NULL, MAVLINK_TYPE_UINT8_T, 0, 8, offsetof(mavlink_heartbeat_t, mavli
  37:mavlink/minimal/./mavlink_msg_heartbeat.h ****          } \
  38:mavlink/minimal/./mavlink_msg_heartbeat.h **** }
  39:mavlink/minimal/./mavlink_msg_heartbeat.h **** #else
  40:mavlink/minimal/./mavlink_msg_heartbeat.h **** #define MAVLINK_MESSAGE_INFO_HEARTBEAT { \
  41:mavlink/minimal/./mavlink_msg_heartbeat.h ****     "HEARTBEAT", \
  42:mavlink/minimal/./mavlink_msg_heartbeat.h ****     6, \
  43:mavlink/minimal/./mavlink_msg_heartbeat.h ****     {  { "type", NULL, MAVLINK_TYPE_UINT8_T, 0, 4, offsetof(mavlink_heartbeat_t, type) }, \
  44:mavlink/minimal/./mavlink_msg_heartbeat.h ****          { "autopilot", NULL, MAVLINK_TYPE_UINT8_T, 0, 5, offsetof(mavlink_heartbeat_t, autopilot) 
  45:mavlink/minimal/./mavlink_msg_heartbeat.h ****          { "base_mode", NULL, MAVLINK_TYPE_UINT8_T, 0, 6, offsetof(mavlink_heartbeat_t, base_mode) 
  46:mavlink/minimal/./mavlink_msg_heartbeat.h ****          { "custom_mode", NULL, MAVLINK_TYPE_UINT32_T, 0, 0, offsetof(mavlink_heartbeat_t, custom_m
  47:mavlink/minimal/./mavlink_msg_heartbeat.h ****          { "system_status", NULL, MAVLINK_TYPE_UINT8_T, 0, 7, offsetof(mavlink_heartbeat_t, system_
  48:mavlink/minimal/./mavlink_msg_heartbeat.h ****          { "mavlink_version", NULL, MAVLINK_TYPE_UINT8_T, 0, 8, offsetof(mavlink_heartbeat_t, mavli
  49:mavlink/minimal/./mavlink_msg_heartbeat.h ****          } \
ARM GAS  /tmp/ccNouMZU.s 			page 66


  50:mavlink/minimal/./mavlink_msg_heartbeat.h **** }
  51:mavlink/minimal/./mavlink_msg_heartbeat.h **** #endif
  52:mavlink/minimal/./mavlink_msg_heartbeat.h **** 
  53:mavlink/minimal/./mavlink_msg_heartbeat.h **** /**
  54:mavlink/minimal/./mavlink_msg_heartbeat.h ****  * @brief Pack a heartbeat message
  55:mavlink/minimal/./mavlink_msg_heartbeat.h ****  * @param system_id ID of this system
  56:mavlink/minimal/./mavlink_msg_heartbeat.h ****  * @param component_id ID of this component (e.g. 200 for IMU)
  57:mavlink/minimal/./mavlink_msg_heartbeat.h ****  * @param msg The MAVLink message to compress the data into
  58:mavlink/minimal/./mavlink_msg_heartbeat.h ****  *
  59:mavlink/minimal/./mavlink_msg_heartbeat.h ****  * @param type  Vehicle or component type. For a flight controller component the vehicle type (quad
  60:mavlink/minimal/./mavlink_msg_heartbeat.h ****  * @param autopilot  Autopilot type / class. Use MAV_AUTOPILOT_INVALID for components that are not 
  61:mavlink/minimal/./mavlink_msg_heartbeat.h ****  * @param base_mode  System mode bitmap.
  62:mavlink/minimal/./mavlink_msg_heartbeat.h ****  * @param custom_mode  A bitfield for use for autopilot-specific flags
  63:mavlink/minimal/./mavlink_msg_heartbeat.h ****  * @param system_status  System status flag.
  64:mavlink/minimal/./mavlink_msg_heartbeat.h ****  * @return length of the message in bytes (excluding serial stream start sign)
  65:mavlink/minimal/./mavlink_msg_heartbeat.h ****  */
  66:mavlink/minimal/./mavlink_msg_heartbeat.h **** static inline uint16_t mavlink_msg_heartbeat_pack(uint8_t system_id, uint8_t component_id, mavlink_
 2188              		.loc 5 66 24 discriminator 1 view .LVU850
 2189              	.LBB165:
  67:mavlink/minimal/./mavlink_msg_heartbeat.h ****                                uint8_t type, uint8_t autopilot, uint8_t base_mode, uint32_t custom_
  68:mavlink/minimal/./mavlink_msg_heartbeat.h **** {
  69:mavlink/minimal/./mavlink_msg_heartbeat.h **** #if MAVLINK_NEED_BYTE_SWAP || !MAVLINK_ALIGNED_FIELDS
  70:mavlink/minimal/./mavlink_msg_heartbeat.h ****     char buf[MAVLINK_MSG_ID_HEARTBEAT_LEN];
  71:mavlink/minimal/./mavlink_msg_heartbeat.h ****     _mav_put_uint32_t(buf, 0, custom_mode);
  72:mavlink/minimal/./mavlink_msg_heartbeat.h ****     _mav_put_uint8_t(buf, 4, type);
  73:mavlink/minimal/./mavlink_msg_heartbeat.h ****     _mav_put_uint8_t(buf, 5, autopilot);
  74:mavlink/minimal/./mavlink_msg_heartbeat.h ****     _mav_put_uint8_t(buf, 6, base_mode);
  75:mavlink/minimal/./mavlink_msg_heartbeat.h ****     _mav_put_uint8_t(buf, 7, system_status);
  76:mavlink/minimal/./mavlink_msg_heartbeat.h ****     _mav_put_uint8_t(buf, 8, 3);
  77:mavlink/minimal/./mavlink_msg_heartbeat.h **** 
  78:mavlink/minimal/./mavlink_msg_heartbeat.h ****         memcpy(_MAV_PAYLOAD_NON_CONST(msg), buf, MAVLINK_MSG_ID_HEARTBEAT_LEN);
  79:mavlink/minimal/./mavlink_msg_heartbeat.h **** #else
  80:mavlink/minimal/./mavlink_msg_heartbeat.h ****     mavlink_heartbeat_t packet;
 2190              		.loc 5 80 5 discriminator 1 view .LVU851
  81:mavlink/minimal/./mavlink_msg_heartbeat.h ****     packet.custom_mode = custom_mode;
 2191              		.loc 5 81 5 discriminator 1 view .LVU852
 2192              		.loc 5 81 24 is_stmt 0 discriminator 1 view .LVU853
 2193 06a0 06AB     		add	r3, sp, #24
 2194 06a2 0024     		movs	r4, #0
 2195 06a4 0694     		str	r4, [sp, #24]
  82:mavlink/minimal/./mavlink_msg_heartbeat.h ****     packet.type = type;
 2196              		.loc 5 82 5 is_stmt 1 discriminator 1 view .LVU854
 2197              		.loc 5 82 17 is_stmt 0 discriminator 1 view .LVU855
 2198 06a6 0222     		movs	r2, #2
 2199 06a8 8DF81C20 		strb	r2, [sp, #28]
  83:mavlink/minimal/./mavlink_msg_heartbeat.h ****     packet.autopilot = autopilot;
 2200              		.loc 5 83 5 is_stmt 1 discriminator 1 view .LVU856
 2201              		.loc 5 83 22 is_stmt 0 discriminator 1 view .LVU857
 2202 06ac 8DF81D40 		strb	r4, [sp, #29]
  84:mavlink/minimal/./mavlink_msg_heartbeat.h ****     packet.base_mode = base_mode;
 2203              		.loc 5 84 5 is_stmt 1 discriminator 1 view .LVU858
 2204              		.loc 5 84 22 is_stmt 0 discriminator 1 view .LVU859
 2205 06b0 8DF81E40 		strb	r4, [sp, #30]
  85:mavlink/minimal/./mavlink_msg_heartbeat.h ****     packet.system_status = system_status;
 2206              		.loc 5 85 5 is_stmt 1 discriminator 1 view .LVU860
 2207              		.loc 5 85 26 is_stmt 0 discriminator 1 view .LVU861
 2208 06b4 8DF81F40 		strb	r4, [sp, #31]
ARM GAS  /tmp/ccNouMZU.s 			page 67


  86:mavlink/minimal/./mavlink_msg_heartbeat.h ****     packet.mavlink_version = 3;
 2209              		.loc 5 86 5 is_stmt 1 discriminator 1 view .LVU862
 2210              		.loc 5 86 28 is_stmt 0 discriminator 1 view .LVU863
 2211 06b8 0322     		movs	r2, #3
 2212 06ba 8DF82020 		strb	r2, [sp, #32]
  87:mavlink/minimal/./mavlink_msg_heartbeat.h **** 
  88:mavlink/minimal/./mavlink_msg_heartbeat.h ****         memcpy(_MAV_PAYLOAD_NON_CONST(msg), &packet, MAVLINK_MSG_ID_HEARTBEAT_LEN);
 2213              		.loc 5 88 9 is_stmt 1 discriminator 1 view .LVU864
 2214 06be 114E     		ldr	r6, .L115
 2215 06c0 06F10C05 		add	r5, r6, #12
 2216 06c4 93E80700 		ldm	r3, {r0, r1, r2}
 2217 06c8 03C5     		stmia	r5!, {r0, r1}
 2218 06ca 2A70     		strb	r2, [r5]
  89:mavlink/minimal/./mavlink_msg_heartbeat.h **** #endif
  90:mavlink/minimal/./mavlink_msg_heartbeat.h **** 
  91:mavlink/minimal/./mavlink_msg_heartbeat.h ****     msg->msgid = MAVLINK_MSG_ID_HEARTBEAT;
 2219              		.loc 5 91 5 discriminator 1 view .LVU865
 2220              		.loc 5 91 16 is_stmt 0 discriminator 1 view .LVU866
 2221 06cc 7472     		strb	r4, [r6, #9]
 2222 06ce B472     		strb	r4, [r6, #10]
 2223 06d0 F472     		strb	r4, [r6, #11]
  92:mavlink/minimal/./mavlink_msg_heartbeat.h ****     return mavlink_finalize_message(msg, system_id, component_id, MAVLINK_MSG_ID_HEARTBEAT_MIN_LEN,
 2224              		.loc 5 92 5 is_stmt 1 discriminator 1 view .LVU867
 2225              	.LVL231:
 2226              	.LBB161:
 2227              	.LBI87:
 302:mavlink/minimal/../mavlink_helpers.h **** 						 uint8_t min_length, uint8_t length, uint8_t crc_extra)
 2228              		.loc 3 302 25 discriminator 1 view .LVU868
 2229              	.LBE161:
 2230              	.LBE165:
 2231              	.LBE176:
 2232              	.LBE180:
 305:mavlink/minimal/../mavlink_helpers.h **** }
 2233              		.loc 3 305 5 discriminator 1 view .LVU869
 2234              	.LBB181:
 2235              	.LBB177:
 2236              	.LBB166:
 2237              	.LBB162:
 2238              	.LBB158:
 2239              	.LBI88:
 292:mavlink/minimal/../mavlink_helpers.h **** 						      uint8_t chan, uint8_t min_length, uint8_t length, uint8_t crc_extra)
 2240              		.loc 3 292 25 discriminator 1 view .LVU870
 2241              	.LBB155:
 295:mavlink/minimal/../mavlink_helpers.h **** 	return mavlink_finalize_message_buffer(msg, system_id, component_id, status, min_length, length, c
 2242              		.loc 3 295 2 discriminator 1 view .LVU871
 295:mavlink/minimal/../mavlink_helpers.h **** 	return mavlink_finalize_message_buffer(msg, system_id, component_id, status, min_length, length, c
 2243              		.loc 3 295 2 is_stmt 0 discriminator 1 view .LVU872
 2244              	.LBE155:
 2245              	.LBE158:
 2246              	.LBE162:
 2247              	.LBE166:
 2248              	.LBE177:
 2249              	.LBE181:
  29:mavlink/minimal/../mavlink_helpers.h **** #endif
 2250              		.loc 3 29 2 is_stmt 1 discriminator 1 view .LVU873
  31:mavlink/minimal/../mavlink_helpers.h **** }
 2251              		.loc 3 31 2 discriminator 1 view .LVU874
ARM GAS  /tmp/ccNouMZU.s 			page 68


 2252              	.LBB182:
 2253              	.LBB178:
 2254              	.LBB167:
 2255              	.LBB163:
 2256              	.LBB159:
 2257              	.LBB156:
 296:mavlink/minimal/../mavlink_helpers.h **** }
 2258              		.loc 3 296 2 discriminator 1 view .LVU875
 2259              	.LBB153:
 2260              	.LBI90:
 223:mavlink/minimal/../mavlink_helpers.h **** 						      mavlink_status_t* status, uint8_t min_length, uint8_t length, uint8_t crc_extra)
 2261              		.loc 3 223 25 discriminator 1 view .LVU876
 2262              	.LBB151:
 226:mavlink/minimal/../mavlink_helpers.h **** #ifndef MAVLINK_NO_SIGN_PACKET
 2263              		.loc 3 226 2 discriminator 1 view .LVU877
 226:mavlink/minimal/../mavlink_helpers.h **** #ifndef MAVLINK_NO_SIGN_PACKET
 2264              		.loc 3 226 25 is_stmt 0 discriminator 1 view .LVU878
 2265 06d2 0F4B     		ldr	r3, .L115+12
 2266 06d4 187B     		ldrb	r0, [r3, #12]	@ zero_extendqisi2
 2267              	.LVL232:
 228:mavlink/minimal/../mavlink_helpers.h **** #else
 2268              		.loc 3 228 2 is_stmt 1 discriminator 1 view .LVU879
 228:mavlink/minimal/../mavlink_helpers.h **** #else
 2269              		.loc 3 228 49 is_stmt 0 discriminator 1 view .LVU880
 2270 06d6 10F00200 		ands	r0, r0, #2
 2271              	.LVL233:
 228:mavlink/minimal/../mavlink_helpers.h **** #else
 2272              		.loc 3 228 49 discriminator 1 view .LVU881
 2273 06da 7FF496AC 		bne	.L75
 228:mavlink/minimal/../mavlink_helpers.h **** #else
 2274              		.loc 3 228 39 view .LVU882
 2275 06de 1B69     		ldr	r3, [r3, #16]
 228:mavlink/minimal/../mavlink_helpers.h **** #else
 2276              		.loc 3 228 30 view .LVU883
 2277 06e0 002B     		cmp	r3, #0
 2278 06e2 3FF4CDAC 		beq	.L76
 228:mavlink/minimal/../mavlink_helpers.h **** #else
 2279              		.loc 3 228 68 view .LVU884
 2280 06e6 1B78     		ldrb	r3, [r3]	@ zero_extendqisi2
 228:mavlink/minimal/../mavlink_helpers.h **** #else
 2281              		.loc 3 228 49 view .LVU885
 2282 06e8 13F0010F 		tst	r3, #1
 2283 06ec 7FF4CAAC 		bne	.L77
 2284 06f0 2146     		mov	r1, r4
 2285 06f2 8BE4     		b	.L12
 2286              	.LVL234:
 2287              	.L91:
 228:mavlink/minimal/../mavlink_helpers.h **** #else
 2288              		.loc 3 228 49 view .LVU886
 2289              	.LBE151:
 2290              	.LBE153:
 2291              	.LBE156:
 2292              	.LBE159:
 2293              	.LBE163:
 2294              	.LBE167:
 2295              	.LBE178:
 2296              	.LBB179:
ARM GAS  /tmp/ccNouMZU.s 			page 69


 2297              	.LBB173:
 466:mavlink/minimal/../mavlink_helpers.h **** 		buf[0] = msg->magic;
 2298              		.loc 3 466 14 view .LVU887
 2299 06f4 0926     		movs	r6, #9
 2300 06f6 BAE7     		b	.L70
 2301              	.LVL235:
 2302              	.L110:
 484:mavlink/minimal/../mavlink_helpers.h **** 	}
 2303              		.loc 3 484 3 is_stmt 1 view .LVU888
 2304 06f8 3A46     		mov	r2, r7
 2305 06fa 0649     		ldr	r1, .L115+16
 2306 06fc 0230     		adds	r0, r0, #2
 2307              	.LVL236:
 484:mavlink/minimal/../mavlink_helpers.h **** 	}
 2308              		.loc 3 484 3 is_stmt 0 view .LVU889
 2309 06fe FFF7FEFF 		bl	memcpy
 2310              	.LVL237:
 484:mavlink/minimal/../mavlink_helpers.h **** 	}
 2311              		.loc 3 484 3 view .LVU890
 2312 0702 BBE7     		b	.L73
 2313              	.L116:
 2314              		.align	2
 2315              	.L115:
 2316 0704 00000000 		.word	.LANCHOR1
 2317 0708 00000000 		.word	.LANCHOR3
 2318 070c 00000000 		.word	.LANCHOR4
 2319 0710 00000000 		.word	.LANCHOR2
 2320 0714 16010000 		.word	.LANCHOR1+278
 2321              	.LBE173:
 2322              	.LBE179:
 2323              	.LBE182:
 2324              		.cfi_endproc
 2325              	.LFE847:
 2327              		.section	.text.vApplicationStackOverflowHook,"ax",%progbits
 2328              		.align	1
 2329              		.weak	vApplicationStackOverflowHook
 2330              		.syntax unified
 2331              		.thumb
 2332              		.thumb_func
 2334              	vApplicationStackOverflowHook:
 2335              	.LVL238:
 2336              	.LFB843:
  84:Core/Src/freertos.c ****    /* Run time stack overflow checking is performed if
 2337              		.loc 2 84 1 is_stmt 1 view -0
 2338              		.cfi_startproc
 2339              		@ args = 0, pretend = 0, frame = 0
 2340              		@ frame_needed = 0, uses_anonymous_args = 0
 2341              		@ link register save eliminated.
  88:Core/Src/freertos.c **** /* USER CODE END 4 */
 2342              		.loc 2 88 1 view .LVU892
 2343 0000 7047     		bx	lr
 2344              		.cfi_endproc
 2345              	.LFE843:
 2347              		.section	.text.vApplicationGetIdleTaskMemory,"ax",%progbits
 2348              		.align	1
 2349              		.global	vApplicationGetIdleTaskMemory
 2350              		.syntax unified
ARM GAS  /tmp/ccNouMZU.s 			page 70


 2351              		.thumb
 2352              		.thumb_func
 2354              	vApplicationGetIdleTaskMemory:
 2355              	.LVL239:
 2356              	.LFB844:
  96:Core/Src/freertos.c ****   *ppxIdleTaskTCBBuffer = &xIdleTaskTCBBuffer;
 2357              		.loc 2 96 1 view -0
 2358              		.cfi_startproc
 2359              		@ args = 0, pretend = 0, frame = 0
 2360              		@ frame_needed = 0, uses_anonymous_args = 0
 2361              		@ link register save eliminated.
  97:Core/Src/freertos.c ****   *ppxIdleTaskStackBuffer = &xIdleStack[0];
 2362              		.loc 2 97 3 view .LVU894
  97:Core/Src/freertos.c ****   *ppxIdleTaskStackBuffer = &xIdleStack[0];
 2363              		.loc 2 97 25 is_stmt 0 view .LVU895
 2364 0000 034B     		ldr	r3, .L119
 2365 0002 0360     		str	r3, [r0]
  98:Core/Src/freertos.c ****   *pulIdleTaskStackSize = configMINIMAL_STACK_SIZE;
 2366              		.loc 2 98 3 is_stmt 1 view .LVU896
  98:Core/Src/freertos.c ****   *pulIdleTaskStackSize = configMINIMAL_STACK_SIZE;
 2367              		.loc 2 98 27 is_stmt 0 view .LVU897
 2368 0004 034B     		ldr	r3, .L119+4
 2369 0006 0B60     		str	r3, [r1]
  99:Core/Src/freertos.c ****   /* place for user code */
 2370              		.loc 2 99 3 is_stmt 1 view .LVU898
  99:Core/Src/freertos.c ****   /* place for user code */
 2371              		.loc 2 99 25 is_stmt 0 view .LVU899
 2372 0008 8023     		movs	r3, #128
 2373 000a 1360     		str	r3, [r2]
 101:Core/Src/freertos.c **** /* USER CODE END GET_IDLE_TASK_MEMORY */
 2374              		.loc 2 101 1 view .LVU900
 2375 000c 7047     		bx	lr
 2376              	.L120:
 2377 000e 00BF     		.align	2
 2378              	.L119:
 2379 0010 00000000 		.word	.LANCHOR5
 2380 0014 00000000 		.word	.LANCHOR6
 2381              		.cfi_endproc
 2382              	.LFE844:
 2384              		.section	.text.vApplicationGetTimerTaskMemory,"ax",%progbits
 2385              		.align	1
 2386              		.global	vApplicationGetTimerTaskMemory
 2387              		.syntax unified
 2388              		.thumb
 2389              		.thumb_func
 2391              	vApplicationGetTimerTaskMemory:
 2392              	.LVL240:
 2393              	.LFB845:
 109:Core/Src/freertos.c ****   *ppxTimerTaskTCBBuffer = &xTimerTaskTCBBuffer;
 2394              		.loc 2 109 1 is_stmt 1 view -0
 2395              		.cfi_startproc
 2396              		@ args = 0, pretend = 0, frame = 0
 2397              		@ frame_needed = 0, uses_anonymous_args = 0
 2398              		@ link register save eliminated.
 110:Core/Src/freertos.c ****   *ppxTimerTaskStackBuffer = &xTimerStack[0];
 2399              		.loc 2 110 3 view .LVU902
 110:Core/Src/freertos.c ****   *ppxTimerTaskStackBuffer = &xTimerStack[0];
ARM GAS  /tmp/ccNouMZU.s 			page 71


 2400              		.loc 2 110 26 is_stmt 0 view .LVU903
 2401 0000 034B     		ldr	r3, .L122
 2402 0002 0360     		str	r3, [r0]
 111:Core/Src/freertos.c ****   *pulTimerTaskStackSize = configTIMER_TASK_STACK_DEPTH;
 2403              		.loc 2 111 3 is_stmt 1 view .LVU904
 111:Core/Src/freertos.c ****   *pulTimerTaskStackSize = configTIMER_TASK_STACK_DEPTH;
 2404              		.loc 2 111 28 is_stmt 0 view .LVU905
 2405 0004 034B     		ldr	r3, .L122+4
 2406 0006 0B60     		str	r3, [r1]
 112:Core/Src/freertos.c ****   /* place for user code */
 2407              		.loc 2 112 3 is_stmt 1 view .LVU906
 112:Core/Src/freertos.c ****   /* place for user code */
 2408              		.loc 2 112 26 is_stmt 0 view .LVU907
 2409 0008 4FF48073 		mov	r3, #256
 2410 000c 1360     		str	r3, [r2]
 114:Core/Src/freertos.c **** /* USER CODE END GET_TIMER_TASK_MEMORY */
 2411              		.loc 2 114 1 view .LVU908
 2412 000e 7047     		bx	lr
 2413              	.L123:
 2414              		.align	2
 2415              	.L122:
 2416 0010 00000000 		.word	.LANCHOR7
 2417 0014 00000000 		.word	.LANCHOR8
 2418              		.cfi_endproc
 2419              	.LFE845:
 2421              		.section	.text.MX_FREERTOS_Init,"ax",%progbits
 2422              		.align	1
 2423              		.global	MX_FREERTOS_Init
 2424              		.syntax unified
 2425              		.thumb
 2426              		.thumb_func
 2428              	MX_FREERTOS_Init:
 2429              	.LFB846:
 122:Core/Src/freertos.c ****   /* USER CODE BEGIN Init */
 2430              		.loc 2 122 29 is_stmt 1 view -0
 2431              		.cfi_startproc
 2432              		@ args = 0, pretend = 0, frame = 32
 2433              		@ frame_needed = 0, uses_anonymous_args = 0
 2434 0000 10B5     		push	{r4, lr}
 2435              	.LCFI5:
 2436              		.cfi_def_cfa_offset 8
 2437              		.cfi_offset 4, -8
 2438              		.cfi_offset 14, -4
 2439 0002 88B0     		sub	sp, sp, #32
 2440              	.LCFI6:
 2441              		.cfi_def_cfa_offset 40
 145:Core/Src/freertos.c ****   USBTaskHandle = osThreadCreate(osThread(USBTask), NULL);
 2442              		.loc 2 145 3 view .LVU910
 2443 0004 0DF1040C 		add	ip, sp, #4
 2444 0008 084C     		ldr	r4, .L126
 2445 000a 0FCC     		ldmia	r4!, {r0, r1, r2, r3}
 2446 000c ACE80F00 		stmia	ip!, {r0, r1, r2, r3}
 2447 0010 94E80700 		ldm	r4, {r0, r1, r2}
 2448 0014 8CE80700 		stm	ip, {r0, r1, r2}
 146:Core/Src/freertos.c **** 
 2449              		.loc 2 146 3 view .LVU911
 146:Core/Src/freertos.c **** 
ARM GAS  /tmp/ccNouMZU.s 			page 72


 2450              		.loc 2 146 19 is_stmt 0 view .LVU912
 2451 0018 0021     		movs	r1, #0
 2452 001a 01A8     		add	r0, sp, #4
 2453 001c FFF7FEFF 		bl	osThreadCreate
 2454              	.LVL241:
 146:Core/Src/freertos.c **** 
 2455              		.loc 2 146 17 view .LVU913
 2456 0020 034B     		ldr	r3, .L126+4
 2457 0022 1860     		str	r0, [r3]
 149:Core/Src/freertos.c **** 
 2458              		.loc 2 149 3 is_stmt 1 view .LVU914
 2459 0024 FFF7FEFF 		bl	SensorTask_Init
 2460              	.LVL242:
 154:Core/Src/freertos.c **** 
 2461              		.loc 2 154 1 is_stmt 0 view .LVU915
 2462 0028 08B0     		add	sp, sp, #32
 2463              	.LCFI7:
 2464              		.cfi_def_cfa_offset 8
 2465              		@ sp needed
 2466 002a 10BD     		pop	{r4, pc}
 2467              	.L127:
 2468              		.align	2
 2469              	.L126:
 2470 002c 00000000 		.word	.LANCHOR9
 2471 0030 00000000 		.word	.LANCHOR10
 2472              		.cfi_endproc
 2473              	.LFE846:
 2475              		.global	USBTaskHandle
 2476              		.global	len
 2477              		.global	msg
 2478              		.global	buf
 2479              		.section	.rodata
 2480              		.align	2
 2481              		.set	.LANCHOR9,. + 0
 2482              	.LC2:
 2483 0000 00000000 		.word	.LC0
 2484 0004 00000000 		.word	USBTask_Run
 2485 0008 0200     		.short	2
 2486 000a 0000     		.space	2
 2487 000c 00000000 		.word	0
 2488 0010 00020000 		.word	512
 2489 0014 00000000 		.word	0
 2490 0018 00000000 		.word	0
 2491              		.section	.bss.USBTaskHandle,"aw",%nobits
 2492              		.align	2
 2493              		.set	.LANCHOR10,. + 0
 2496              	USBTaskHandle:
 2497 0000 00000000 		.space	4
 2498              		.section	.bss.buf,"aw",%nobits
 2499              		.align	2
 2500              		.set	.LANCHOR3,. + 0
 2503              	buf:
 2504 0000 00000000 		.space	280
 2504      00000000 
 2504      00000000 
 2504      00000000 
 2504      00000000 
ARM GAS  /tmp/ccNouMZU.s 			page 73


 2505              		.section	.bss.len,"aw",%nobits
 2506              		.align	1
 2507              		.set	.LANCHOR4,. + 0
 2510              	len:
 2511 0000 0000     		.space	2
 2512              		.section	.bss.m_mavlink_status.0,"aw",%nobits
 2513              		.align	2
 2514              		.set	.LANCHOR2,. + 0
 2517              	m_mavlink_status.0:
 2518 0000 00000000 		.space	96
 2518      00000000 
 2518      00000000 
 2518      00000000 
 2518      00000000 
 2519              		.section	.bss.msg,"aw",%nobits
 2520              		.align	2
 2521              		.set	.LANCHOR1,. + 0
 2524              	msg:
 2525 0000 00000000 		.space	291
 2525      00000000 
 2525      00000000 
 2525      00000000 
 2525      00000000 
 2526              		.section	.bss.xIdleStack,"aw",%nobits
 2527              		.align	2
 2528              		.set	.LANCHOR6,. + 0
 2531              	xIdleStack:
 2532 0000 00000000 		.space	512
 2532      00000000 
 2532      00000000 
 2532      00000000 
 2532      00000000 
 2533              		.section	.bss.xIdleTaskTCBBuffer,"aw",%nobits
 2534              		.align	3
 2535              		.set	.LANCHOR5,. + 0
 2538              	xIdleTaskTCBBuffer:
 2539 0000 00000000 		.space	1160
 2539      00000000 
 2539      00000000 
 2539      00000000 
 2539      00000000 
 2540              		.section	.bss.xTimerStack,"aw",%nobits
 2541              		.align	2
 2542              		.set	.LANCHOR8,. + 0
 2545              	xTimerStack:
 2546 0000 00000000 		.space	1024
 2546      00000000 
 2546      00000000 
 2546      00000000 
 2546      00000000 
 2547              		.section	.bss.xTimerTaskTCBBuffer,"aw",%nobits
 2548              		.align	3
 2549              		.set	.LANCHOR7,. + 0
 2552              	xTimerTaskTCBBuffer:
 2553 0000 00000000 		.space	1160
 2553      00000000 
 2553      00000000 
ARM GAS  /tmp/ccNouMZU.s 			page 74


 2553      00000000 
 2553      00000000 
 2554              		.section	.rodata.mavlink_sha256_constant_256,"a"
 2555              		.align	2
 2556              		.set	.LANCHOR0,. + 0
 2559              	mavlink_sha256_constant_256:
 2560 0000 982F8A42 		.word	1116352408
 2561 0004 91443771 		.word	1899447441
 2562 0008 CFFBC0B5 		.word	-1245643825
 2563 000c A5DBB5E9 		.word	-373957723
 2564 0010 5BC25639 		.word	961987163
 2565 0014 F111F159 		.word	1508970993
 2566 0018 A4823F92 		.word	-1841331548
 2567 001c D55E1CAB 		.word	-1424204075
 2568 0020 98AA07D8 		.word	-670586216
 2569 0024 015B8312 		.word	310598401
 2570 0028 BE853124 		.word	607225278
 2571 002c C37D0C55 		.word	1426881987
 2572 0030 745DBE72 		.word	1925078388
 2573 0034 FEB1DE80 		.word	-2132889090
 2574 0038 A706DC9B 		.word	-1680079193
 2575 003c 74F19BC1 		.word	-1046744716
 2576 0040 C1699BE4 		.word	-459576895
 2577 0044 8647BEEF 		.word	-272742522
 2578 0048 C69DC10F 		.word	264347078
 2579 004c CCA10C24 		.word	604807628
 2580 0050 6F2CE92D 		.word	770255983
 2581 0054 AA84744A 		.word	1249150122
 2582 0058 DCA9B05C 		.word	1555081692
 2583 005c DA88F976 		.word	1996064986
 2584 0060 52513E98 		.word	-1740746414
 2585 0064 6DC631A8 		.word	-1473132947
 2586 0068 C82703B0 		.word	-1341970488
 2587 006c C77F59BF 		.word	-1084653625
 2588 0070 F30BE0C6 		.word	-958395405
 2589 0074 4791A7D5 		.word	-710438585
 2590 0078 5163CA06 		.word	113926993
 2591 007c 67292914 		.word	338241895
 2592 0080 850AB727 		.word	666307205
 2593 0084 38211B2E 		.word	773529912
 2594 0088 FC6D2C4D 		.word	1294757372
 2595 008c 130D3853 		.word	1396182291
 2596 0090 54730A65 		.word	1695183700
 2597 0094 BB0A6A76 		.word	1986661051
 2598 0098 2EC9C281 		.word	-2117940946
 2599 009c 852C7292 		.word	-1838011259
 2600 00a0 A1E8BFA2 		.word	-1564481375
 2601 00a4 4B661AA8 		.word	-1474664885
 2602 00a8 708B4BC2 		.word	-1035236496
 2603 00ac A3516CC7 		.word	-949202525
 2604 00b0 19E892D1 		.word	-778901479
 2605 00b4 240699D6 		.word	-694614492
 2606 00b8 85350EF4 		.word	-200395387
 2607 00bc 70A06A10 		.word	275423344
 2608 00c0 16C1A419 		.word	430227734
 2609 00c4 086C371E 		.word	506948616
 2610 00c8 4C774827 		.word	659060556
ARM GAS  /tmp/ccNouMZU.s 			page 75


 2611 00cc B5BCB034 		.word	883997877
 2612 00d0 B30C1C39 		.word	958139571
 2613 00d4 4AAAD84E 		.word	1322822218
 2614 00d8 4FCA9C5B 		.word	1537002063
 2615 00dc F36F2E68 		.word	1747873779
 2616 00e0 EE828F74 		.word	1955562222
 2617 00e4 6F63A578 		.word	2024104815
 2618 00e8 1478C884 		.word	-2067236844
 2619 00ec 0802C78C 		.word	-1933114872
 2620 00f0 FAFFBE90 		.word	-1866530822
 2621 00f4 EB6C50A4 		.word	-1538233109
 2622 00f8 F7A3F9BE 		.word	-1090935817
 2623 00fc F27871C6 		.word	-965641998
 2624              		.text
 2625              	.Letext0:
 2626              		.file 6 "/usr/share/gcc-arm-none-eabi-10.3-2021.10/arm-none-eabi/include/machine/_default_types.h"
 2627              		.file 7 "/usr/share/gcc-arm-none-eabi-10.3-2021.10/arm-none-eabi/include/sys/_stdint.h"
 2628              		.file 8 "Middlewares/Third_Party/FreeRTOS/Source/portable/GCC/ARM_CM4F/portmacro.h"
 2629              		.file 9 "/usr/share/gcc-arm-none-eabi-10.3-2021.10/lib/gcc/arm-none-eabi/10.3.1/include/stddef.h"
 2630              		.file 10 "/usr/share/gcc-arm-none-eabi-10.3-2021.10/arm-none-eabi/include/sys/_types.h"
 2631              		.file 11 "/usr/share/gcc-arm-none-eabi-10.3-2021.10/arm-none-eabi/include/sys/reent.h"
 2632              		.file 12 "/usr/share/gcc-arm-none-eabi-10.3-2021.10/arm-none-eabi/include/sys/lock.h"
 2633              		.file 13 "Middlewares/Third_Party/FreeRTOS/Source/include/FreeRTOS.h"
 2634              		.file 14 "Middlewares/Third_Party/FreeRTOS/Source/include/task.h"
 2635              		.file 15 "Drivers/STM32F4xx_HAL_Driver/Inc/stm32f4xx_ll_tim.h"
 2636              		.file 16 "Drivers/STM32F4xx_HAL_Driver/Inc/stm32f4xx_ll_dma.h"
 2637              		.file 17 "Middlewares/Third_Party/FreeRTOS/Source/CMSIS_RTOS/cmsis_os.h"
 2638              		.file 18 "App/Config/sensor_types.h"
 2639              		.file 19 "App/Config/filter_types.h"
 2640              		.file 20 "mavlink/minimal/../mavlink_types.h"
 2641              		.file 21 "mavlink/minimal/minimal.h"
 2642              		.file 22 "<built-in>"
 2643              		.file 23 "USB_DEVICE/App/usbd_cdc_if.h"
 2644              		.file 24 "App/Tasks/SensorTask.h"
ARM GAS  /tmp/ccNouMZU.s 			page 76


DEFINED SYMBOLS
                            *ABS*:0000000000000000 freertos.c
     /tmp/ccNouMZU.s:17     .rodata.str1.4:0000000000000000 $d
     /tmp/ccNouMZU.s:24     .text.mavlink_sha256_calc:0000000000000000 $t
     /tmp/ccNouMZU.s:29     .text.mavlink_sha256_calc:0000000000000000 mavlink_sha256_calc
     /tmp/ccNouMZU.s:343    .text.mavlink_sha256_calc:000000000000014c $d
     /tmp/ccNouMZU.s:348    .text.USBTask_Run:0000000000000000 $t
     /tmp/ccNouMZU.s:354    .text.USBTask_Run:0000000000000000 USBTask_Run
     /tmp/ccNouMZU.s:1171   .text.USBTask_Run:00000000000002cc $d
     /tmp/ccNouMZU.s:1185   .text.USBTask_Run:00000000000002f4 $t
     /tmp/ccNouMZU.s:2009   .text.USBTask_Run:0000000000000604 $d
     /tmp/ccNouMZU.s:2032   .text.USBTask_Run:0000000000000610 $t
     /tmp/ccNouMZU.s:2316   .text.USBTask_Run:0000000000000704 $d
     /tmp/ccNouMZU.s:2328   .text.vApplicationStackOverflowHook:0000000000000000 $t
     /tmp/ccNouMZU.s:2334   .text.vApplicationStackOverflowHook:0000000000000000 vApplicationStackOverflowHook
     /tmp/ccNouMZU.s:2348   .text.vApplicationGetIdleTaskMemory:0000000000000000 $t
     /tmp/ccNouMZU.s:2354   .text.vApplicationGetIdleTaskMemory:0000000000000000 vApplicationGetIdleTaskMemory
     /tmp/ccNouMZU.s:2379   .text.vApplicationGetIdleTaskMemory:0000000000000010 $d
     /tmp/ccNouMZU.s:2385   .text.vApplicationGetTimerTaskMemory:0000000000000000 $t
     /tmp/ccNouMZU.s:2391   .text.vApplicationGetTimerTaskMemory:0000000000000000 vApplicationGetTimerTaskMemory
     /tmp/ccNouMZU.s:2416   .text.vApplicationGetTimerTaskMemory:0000000000000010 $d
     /tmp/ccNouMZU.s:2422   .text.MX_FREERTOS_Init:0000000000000000 $t
     /tmp/ccNouMZU.s:2428   .text.MX_FREERTOS_Init:0000000000000000 MX_FREERTOS_Init
     /tmp/ccNouMZU.s:2470   .text.MX_FREERTOS_Init:000000000000002c $d
     /tmp/ccNouMZU.s:2496   .bss.USBTaskHandle:0000000000000000 USBTaskHandle
     /tmp/ccNouMZU.s:2510   .bss.len:0000000000000000 len
     /tmp/ccNouMZU.s:2524   .bss.msg:0000000000000000 msg
     /tmp/ccNouMZU.s:2503   .bss.buf:0000000000000000 buf
     /tmp/ccNouMZU.s:2480   .rodata:0000000000000000 $d
     /tmp/ccNouMZU.s:2492   .bss.USBTaskHandle:0000000000000000 $d
     /tmp/ccNouMZU.s:2499   .bss.buf:0000000000000000 $d
     /tmp/ccNouMZU.s:2506   .bss.len:0000000000000000 $d
     /tmp/ccNouMZU.s:2513   .bss.m_mavlink_status.0:0000000000000000 $d
     /tmp/ccNouMZU.s:2517   .bss.m_mavlink_status.0:0000000000000000 m_mavlink_status.0
     /tmp/ccNouMZU.s:2520   .bss.msg:0000000000000000 $d
     /tmp/ccNouMZU.s:2527   .bss.xIdleStack:0000000000000000 $d
     /tmp/ccNouMZU.s:2531   .bss.xIdleStack:0000000000000000 xIdleStack
     /tmp/ccNouMZU.s:2534   .bss.xIdleTaskTCBBuffer:0000000000000000 $d
     /tmp/ccNouMZU.s:2538   .bss.xIdleTaskTCBBuffer:0000000000000000 xIdleTaskTCBBuffer
     /tmp/ccNouMZU.s:2541   .bss.xTimerStack:0000000000000000 $d
     /tmp/ccNouMZU.s:2545   .bss.xTimerStack:0000000000000000 xTimerStack
     /tmp/ccNouMZU.s:2548   .bss.xTimerTaskTCBBuffer:0000000000000000 $d
     /tmp/ccNouMZU.s:2552   .bss.xTimerTaskTCBBuffer:0000000000000000 xTimerTaskTCBBuffer
     /tmp/ccNouMZU.s:2555   .rodata.mavlink_sha256_constant_256:0000000000000000 $d
     /tmp/ccNouMZU.s:2559   .rodata.mavlink_sha256_constant_256:0000000000000000 mavlink_sha256_constant_256

UNDEFINED SYMBOLS
MX_USB_DEVICE_Init
memcpy
memset
CDC_Transmit_FS
osDelay
SensorTask_GetBaro
SensorTask_GetAttitude
osThreadCreate
SensorTask_Init
