ARM GAS  /var/folders/5r/fplts1414czdxljy659l60kh0000gn/T//ccUBD97q.s 			page 1


   1              		.cpu cortex-m4
   2              		.arch armv7e-m
   3              		.fpu fpv4-sp-d16
   4              		.eabi_attribute 27, 1
   5              		.eabi_attribute 28, 1
   6              		.eabi_attribute 20, 1
   7              		.eabi_attribute 21, 1
   8              		.eabi_attribute 23, 3
   9              		.eabi_attribute 24, 1
  10              		.eabi_attribute 25, 1
  11              		.eabi_attribute 26, 1
  12              		.eabi_attribute 30, 1
  13              		.eabi_attribute 34, 1
  14              		.eabi_attribute 18, 4
  15              		.file	"imu_mpu6050.c"
  16              		.text
  17              	.Ltext0:
  18              		.cfi_sections	.debug_frame
  19              		.file 1 "Drivers/MyDrivers/imu_mpu6050.c"
  20              		.section	.text.MPU6050_Init,"ax",%progbits
  21              		.align	1
  22              		.global	MPU6050_Init
  23              		.syntax unified
  24              		.thumb
  25              		.thumb_func
  27              	MPU6050_Init:
  28              	.LVL0:
  29              	.LFB134:
   1:Drivers/MyDrivers/imu_mpu6050.c **** /**
   2:Drivers/MyDrivers/imu_mpu6050.c ****  * @file imu_mpu6050.c
   3:Drivers/MyDrivers/imu_mpu6050.c ****  * @author Jesutofunmi Kupoluyi (jimsufficiency@gmail.com)
   4:Drivers/MyDrivers/imu_mpu6050.c ****  * @brief 
   5:Drivers/MyDrivers/imu_mpu6050.c ****  * @version 0.1
   6:Drivers/MyDrivers/imu_mpu6050.c ****  * @date 2025-05-25
   7:Drivers/MyDrivers/imu_mpu6050.c ****  * 
   8:Drivers/MyDrivers/imu_mpu6050.c ****  * @copyright Copyright (c) 2025
   9:Drivers/MyDrivers/imu_mpu6050.c ****  * 
  10:Drivers/MyDrivers/imu_mpu6050.c ****  */
  11:Drivers/MyDrivers/imu_mpu6050.c **** 
  12:Drivers/MyDrivers/imu_mpu6050.c ****  #include "imu_mpu6050.h"
  13:Drivers/MyDrivers/imu_mpu6050.c **** 
  14:Drivers/MyDrivers/imu_mpu6050.c **** /* DEFINES */
  15:Drivers/MyDrivers/imu_mpu6050.c **** #define MPU6050_ADDRESS       	(0X68 << 1) // IMU I2C address
  16:Drivers/MyDrivers/imu_mpu6050.c **** #define WHO_AM_I				0X75        // Device ID
  17:Drivers/MyDrivers/imu_mpu6050.c **** #define I2C_TIMEOUT 			1000        // 1000ms
  18:Drivers/MyDrivers/imu_mpu6050.c **** 
  19:Drivers/MyDrivers/imu_mpu6050.c **** /*  CONSTANTS   */
  20:Drivers/MyDrivers/imu_mpu6050.c **** #define RAW_TO_G        4096 // For full scale range of +/- 8g
  21:Drivers/MyDrivers/imu_mpu6050.c **** #define RAW_TO_MS2      0.00239420166f // GRAVITY/RAW_TO_G : 9.80665/4096 >> raw to ms/2
  22:Drivers/MyDrivers/imu_mpu6050.c **** #define RAW_TO_DEGS_DIV 65.5 // For full scale range of +/- 500 deg/s
  23:Drivers/MyDrivers/imu_mpu6050.c **** #define RAW_TO_DEGS     0.01526717557f // inv(RAW_TO_DEGS_DIV) : 1/65.5 >> raw to deg/s
  24:Drivers/MyDrivers/imu_mpu6050.c **** #define RAD_TO_DEG      57.2957795131f
  25:Drivers/MyDrivers/imu_mpu6050.c **** 
  26:Drivers/MyDrivers/imu_mpu6050.c **** /* REGISTERS */
  27:Drivers/MyDrivers/imu_mpu6050.c **** #define SELF_TEST_X   	0X0D // R/W
  28:Drivers/MyDrivers/imu_mpu6050.c **** #define SELF_TEST_Y   	0X0E // R/w
  29:Drivers/MyDrivers/imu_mpu6050.c **** #define SELF_TEST_Z   	0X0F // R/W
ARM GAS  /var/folders/5r/fplts1414czdxljy659l60kh0000gn/T//ccUBD97q.s 			page 2


  30:Drivers/MyDrivers/imu_mpu6050.c **** #define SELF_TEST_A   	0X10 // R/W
  31:Drivers/MyDrivers/imu_mpu6050.c **** #define SMPLRT_DIV    	0X19 // R/W
  32:Drivers/MyDrivers/imu_mpu6050.c **** #define CONFIG        	0X1A // R/W
  33:Drivers/MyDrivers/imu_mpu6050.c **** #define GYRO_CONFIG   	0X1B // R/W
  34:Drivers/MyDrivers/imu_mpu6050.c **** #define ACCEL_CONFIG  	0X1C // R/W
  35:Drivers/MyDrivers/imu_mpu6050.c **** #define FIFO_EN       	0X23 // R/W
  36:Drivers/MyDrivers/imu_mpu6050.c **** #define INT_PIN_CFG   	0X37 // R/W
  37:Drivers/MyDrivers/imu_mpu6050.c **** #define INT_ENABLE    	0X38 // R/W
  38:Drivers/MyDrivers/imu_mpu6050.c **** #define INT_STATUS    	0X3A // R/W
  39:Drivers/MyDrivers/imu_mpu6050.c **** #define ACCEL_XOUT_H  	0X3B // R
  40:Drivers/MyDrivers/imu_mpu6050.c **** #define ACCEL_XOUT_L  	0X3C // R
  41:Drivers/MyDrivers/imu_mpu6050.c **** #define ACCEL_YOUT_H  	0X3D // R
  42:Drivers/MyDrivers/imu_mpu6050.c **** #define ACCEL_YOUT_L  	0X3E // R
  43:Drivers/MyDrivers/imu_mpu6050.c **** #define ACCEL_ZOUT_H  	0X3F // R
  44:Drivers/MyDrivers/imu_mpu6050.c **** #define ACCEL_ZOUT_L  	0X40 // R
  45:Drivers/MyDrivers/imu_mpu6050.c **** #define TEMP_OUT_H    	0X41 // R
  46:Drivers/MyDrivers/imu_mpu6050.c **** #define TEMP_OUT_L    	0X42 // R
  47:Drivers/MyDrivers/imu_mpu6050.c **** #define GYRO_XOUT_H   	0X43 // R
  48:Drivers/MyDrivers/imu_mpu6050.c **** #define GYRO_XOUT_L   	0X44 // R
  49:Drivers/MyDrivers/imu_mpu6050.c **** #define GYRO_YOUT_H   	0X45 // R
  50:Drivers/MyDrivers/imu_mpu6050.c **** #define GYRO_YOUT_L   	0X46 // R
  51:Drivers/MyDrivers/imu_mpu6050.c **** #define GYRO_ZOUT_H   	0X47 // R
  52:Drivers/MyDrivers/imu_mpu6050.c **** #define GYRO_ZOUT_L   	0X48 // R
  53:Drivers/MyDrivers/imu_mpu6050.c **** #define USER_CTRL     	0X6A // R/W
  54:Drivers/MyDrivers/imu_mpu6050.c **** #define PWR_MGMT_1    	0X6B // R/W
  55:Drivers/MyDrivers/imu_mpu6050.c **** #define PWR_MGMT_2    	0X6C // R/W
  56:Drivers/MyDrivers/imu_mpu6050.c **** 
  57:Drivers/MyDrivers/imu_mpu6050.c **** 
  58:Drivers/MyDrivers/imu_mpu6050.c **** 
  59:Drivers/MyDrivers/imu_mpu6050.c **** static I2C_HandleTypeDef *imu_i2c;
  60:Drivers/MyDrivers/imu_mpu6050.c **** static uint8_t reg_data;
  61:Drivers/MyDrivers/imu_mpu6050.c **** static HAL_StatusTypeDef status;
  62:Drivers/MyDrivers/imu_mpu6050.c **** static uint8_t data_8[6];
  63:Drivers/MyDrivers/imu_mpu6050.c **** static int16_t data_16[3];
  64:Drivers/MyDrivers/imu_mpu6050.c **** 
  65:Drivers/MyDrivers/imu_mpu6050.c **** 
  66:Drivers/MyDrivers/imu_mpu6050.c **** bool MPU6050_Init(I2C_HandleTypeDef *hi2c)
  67:Drivers/MyDrivers/imu_mpu6050.c **** {
  30              		.loc 1 67 1 view -0
  31              		.cfi_startproc
  32              		@ args = 0, pretend = 0, frame = 0
  33              		@ frame_needed = 0, uses_anonymous_args = 0
  34              		.loc 1 67 1 is_stmt 0 view .LVU1
  35 0000 00B5     		push	{lr}
  36              	.LCFI0:
  37              		.cfi_def_cfa_offset 4
  38              		.cfi_offset 14, -4
  39 0002 85B0     		sub	sp, sp, #20
  40              	.LCFI1:
  41              		.cfi_def_cfa_offset 24
  68:Drivers/MyDrivers/imu_mpu6050.c ****     imu_i2c = hi2c;
  42              		.loc 1 68 5 is_stmt 1 view .LVU2
  43              		.loc 1 68 13 is_stmt 0 view .LVU3
  44 0004 294B     		ldr	r3, .L11
  45 0006 1860     		str	r0, [r3]
  69:Drivers/MyDrivers/imu_mpu6050.c **** 
  70:Drivers/MyDrivers/imu_mpu6050.c ****     /* Wake up IMU */
ARM GAS  /var/folders/5r/fplts1414czdxljy659l60kh0000gn/T//ccUBD97q.s 			page 3


  71:Drivers/MyDrivers/imu_mpu6050.c ****     reg_data = 0x00;
  46              		.loc 1 71 5 is_stmt 1 view .LVU4
  47              		.loc 1 71 14 is_stmt 0 view .LVU5
  48 0008 294A     		ldr	r2, .L11+4
  49 000a 0023     		movs	r3, #0
  50 000c 1370     		strb	r3, [r2]
  72:Drivers/MyDrivers/imu_mpu6050.c ****     status = HAL_I2C_Mem_Write(imu_i2c, MPU6050_ADDRESS, PWR_MGMT_1, I2C_MEMADD_SIZE_8BIT, &reg_dat
  51              		.loc 1 72 5 is_stmt 1 view .LVU6
  52              		.loc 1 72 14 is_stmt 0 view .LVU7
  53 000e 4FF47A73 		mov	r3, #1000
  54 0012 0293     		str	r3, [sp, #8]
  55 0014 0123     		movs	r3, #1
  56 0016 0193     		str	r3, [sp, #4]
  57 0018 0092     		str	r2, [sp]
  58 001a 6B22     		movs	r2, #107
  59 001c D021     		movs	r1, #208
  60 001e FFF7FEFF 		bl	HAL_I2C_Mem_Write
  61              	.LVL1:
  62              		.loc 1 72 12 discriminator 1 view .LVU8
  63 0022 244B     		ldr	r3, .L11+8
  64 0024 1870     		strb	r0, [r3]
  73:Drivers/MyDrivers/imu_mpu6050.c ****     if(status != HAL_OK) return(false);
  65              		.loc 1 73 5 is_stmt 1 view .LVU9
  66              		.loc 1 73 7 is_stmt 0 view .LVU10
  67 0026 18B1     		cbz	r0, .L8
  68              		.loc 1 73 32 discriminator 1 view .LVU11
  69 0028 0020     		movs	r0, #0
  70              	.L2:
  74:Drivers/MyDrivers/imu_mpu6050.c **** 
  75:Drivers/MyDrivers/imu_mpu6050.c ****     /* Use on-chip LPF */
  76:Drivers/MyDrivers/imu_mpu6050.c ****     reg_data = 0x02;
  77:Drivers/MyDrivers/imu_mpu6050.c ****     status = HAL_I2C_Mem_Write(imu_i2c, MPU6050_ADDRESS, CONFIG, I2C_MEMADD_SIZE_8BIT, &reg_data, 1
  78:Drivers/MyDrivers/imu_mpu6050.c ****     if(status != HAL_OK) return(false);
  79:Drivers/MyDrivers/imu_mpu6050.c **** 
  80:Drivers/MyDrivers/imu_mpu6050.c ****     /* Configuring gyro */
  81:Drivers/MyDrivers/imu_mpu6050.c ****     reg_data = 0x08;
  82:Drivers/MyDrivers/imu_mpu6050.c ****     status = HAL_I2C_Mem_Write(imu_i2c, MPU6050_ADDRESS, GYRO_CONFIG, I2C_MEMADD_SIZE_8BIT, &reg_da
  83:Drivers/MyDrivers/imu_mpu6050.c ****     if(status != HAL_OK) return(false);
  84:Drivers/MyDrivers/imu_mpu6050.c **** 
  85:Drivers/MyDrivers/imu_mpu6050.c ****     /* Configuring accelerometer */
  86:Drivers/MyDrivers/imu_mpu6050.c ****     reg_data = 0x10;
  87:Drivers/MyDrivers/imu_mpu6050.c ****     status = HAL_I2C_Mem_Write(imu_i2c, MPU6050_ADDRESS, ACCEL_CONFIG, I2C_MEMADD_SIZE_8BIT, &reg_d
  88:Drivers/MyDrivers/imu_mpu6050.c ****     if(status != HAL_OK) return(false);
  89:Drivers/MyDrivers/imu_mpu6050.c **** 
  90:Drivers/MyDrivers/imu_mpu6050.c ****     return true;
  91:Drivers/MyDrivers/imu_mpu6050.c **** 
  92:Drivers/MyDrivers/imu_mpu6050.c **** }
  71              		.loc 1 92 1 view .LVU12
  72 002a 05B0     		add	sp, sp, #20
  73              	.LCFI2:
  74              		.cfi_remember_state
  75              		.cfi_def_cfa_offset 4
  76              		@ sp needed
  77 002c 5DF804FB 		ldr	pc, [sp], #4
  78              	.L8:
  79              	.LCFI3:
  80              		.cfi_restore_state
ARM GAS  /var/folders/5r/fplts1414czdxljy659l60kh0000gn/T//ccUBD97q.s 			page 4


  76:Drivers/MyDrivers/imu_mpu6050.c ****     status = HAL_I2C_Mem_Write(imu_i2c, MPU6050_ADDRESS, CONFIG, I2C_MEMADD_SIZE_8BIT, &reg_data, 1
  81              		.loc 1 76 5 is_stmt 1 view .LVU13
  76:Drivers/MyDrivers/imu_mpu6050.c ****     status = HAL_I2C_Mem_Write(imu_i2c, MPU6050_ADDRESS, CONFIG, I2C_MEMADD_SIZE_8BIT, &reg_data, 1
  82              		.loc 1 76 14 is_stmt 0 view .LVU14
  83 0030 1F4A     		ldr	r2, .L11+4
  84 0032 0223     		movs	r3, #2
  85 0034 1370     		strb	r3, [r2]
  77:Drivers/MyDrivers/imu_mpu6050.c ****     if(status != HAL_OK) return(false);
  86              		.loc 1 77 5 is_stmt 1 view .LVU15
  77:Drivers/MyDrivers/imu_mpu6050.c ****     if(status != HAL_OK) return(false);
  87              		.loc 1 77 14 is_stmt 0 view .LVU16
  88 0036 4FF47A73 		mov	r3, #1000
  89 003a 0293     		str	r3, [sp, #8]
  90 003c 0123     		movs	r3, #1
  91 003e 0193     		str	r3, [sp, #4]
  92 0040 0092     		str	r2, [sp]
  93 0042 1A22     		movs	r2, #26
  94 0044 D021     		movs	r1, #208
  95 0046 1948     		ldr	r0, .L11
  96 0048 0068     		ldr	r0, [r0]
  97 004a FFF7FEFF 		bl	HAL_I2C_Mem_Write
  98              	.LVL2:
  77:Drivers/MyDrivers/imu_mpu6050.c ****     if(status != HAL_OK) return(false);
  99              		.loc 1 77 12 discriminator 1 view .LVU17
 100 004e 194B     		ldr	r3, .L11+8
 101 0050 1870     		strb	r0, [r3]
  78:Drivers/MyDrivers/imu_mpu6050.c **** 
 102              		.loc 1 78 5 is_stmt 1 view .LVU18
  78:Drivers/MyDrivers/imu_mpu6050.c **** 
 103              		.loc 1 78 7 is_stmt 0 view .LVU19
 104 0052 08B1     		cbz	r0, .L9
  78:Drivers/MyDrivers/imu_mpu6050.c **** 
 105              		.loc 1 78 32 discriminator 1 view .LVU20
 106 0054 0020     		movs	r0, #0
 107 0056 E8E7     		b	.L2
 108              	.L9:
  81:Drivers/MyDrivers/imu_mpu6050.c ****     status = HAL_I2C_Mem_Write(imu_i2c, MPU6050_ADDRESS, GYRO_CONFIG, I2C_MEMADD_SIZE_8BIT, &reg_da
 109              		.loc 1 81 5 is_stmt 1 view .LVU21
  81:Drivers/MyDrivers/imu_mpu6050.c ****     status = HAL_I2C_Mem_Write(imu_i2c, MPU6050_ADDRESS, GYRO_CONFIG, I2C_MEMADD_SIZE_8BIT, &reg_da
 110              		.loc 1 81 14 is_stmt 0 view .LVU22
 111 0058 154A     		ldr	r2, .L11+4
 112 005a 0823     		movs	r3, #8
 113 005c 1370     		strb	r3, [r2]
  82:Drivers/MyDrivers/imu_mpu6050.c ****     if(status != HAL_OK) return(false);
 114              		.loc 1 82 5 is_stmt 1 view .LVU23
  82:Drivers/MyDrivers/imu_mpu6050.c ****     if(status != HAL_OK) return(false);
 115              		.loc 1 82 14 is_stmt 0 view .LVU24
 116 005e 4FF47A73 		mov	r3, #1000
 117 0062 0293     		str	r3, [sp, #8]
 118 0064 0123     		movs	r3, #1
 119 0066 0193     		str	r3, [sp, #4]
 120 0068 0092     		str	r2, [sp]
 121 006a 1B22     		movs	r2, #27
 122 006c D021     		movs	r1, #208
 123 006e 0F48     		ldr	r0, .L11
 124 0070 0068     		ldr	r0, [r0]
 125 0072 FFF7FEFF 		bl	HAL_I2C_Mem_Write
ARM GAS  /var/folders/5r/fplts1414czdxljy659l60kh0000gn/T//ccUBD97q.s 			page 5


 126              	.LVL3:
  82:Drivers/MyDrivers/imu_mpu6050.c ****     if(status != HAL_OK) return(false);
 127              		.loc 1 82 12 discriminator 1 view .LVU25
 128 0076 0F4B     		ldr	r3, .L11+8
 129 0078 1870     		strb	r0, [r3]
  83:Drivers/MyDrivers/imu_mpu6050.c **** 
 130              		.loc 1 83 5 is_stmt 1 view .LVU26
  83:Drivers/MyDrivers/imu_mpu6050.c **** 
 131              		.loc 1 83 7 is_stmt 0 view .LVU27
 132 007a 08B1     		cbz	r0, .L10
  83:Drivers/MyDrivers/imu_mpu6050.c **** 
 133              		.loc 1 83 32 discriminator 1 view .LVU28
 134 007c 0020     		movs	r0, #0
 135 007e D4E7     		b	.L2
 136              	.L10:
  86:Drivers/MyDrivers/imu_mpu6050.c ****     status = HAL_I2C_Mem_Write(imu_i2c, MPU6050_ADDRESS, ACCEL_CONFIG, I2C_MEMADD_SIZE_8BIT, &reg_d
 137              		.loc 1 86 5 is_stmt 1 view .LVU29
  86:Drivers/MyDrivers/imu_mpu6050.c ****     status = HAL_I2C_Mem_Write(imu_i2c, MPU6050_ADDRESS, ACCEL_CONFIG, I2C_MEMADD_SIZE_8BIT, &reg_d
 138              		.loc 1 86 14 is_stmt 0 view .LVU30
 139 0080 0B4A     		ldr	r2, .L11+4
 140 0082 1023     		movs	r3, #16
 141 0084 1370     		strb	r3, [r2]
  87:Drivers/MyDrivers/imu_mpu6050.c ****     if(status != HAL_OK) return(false);
 142              		.loc 1 87 5 is_stmt 1 view .LVU31
  87:Drivers/MyDrivers/imu_mpu6050.c ****     if(status != HAL_OK) return(false);
 143              		.loc 1 87 14 is_stmt 0 view .LVU32
 144 0086 4FF47A73 		mov	r3, #1000
 145 008a 0293     		str	r3, [sp, #8]
 146 008c 0123     		movs	r3, #1
 147 008e 0193     		str	r3, [sp, #4]
 148 0090 0092     		str	r2, [sp]
 149 0092 1C22     		movs	r2, #28
 150 0094 D021     		movs	r1, #208
 151 0096 0548     		ldr	r0, .L11
 152 0098 0068     		ldr	r0, [r0]
 153 009a FFF7FEFF 		bl	HAL_I2C_Mem_Write
 154              	.LVL4:
  87:Drivers/MyDrivers/imu_mpu6050.c ****     if(status != HAL_OK) return(false);
 155              		.loc 1 87 12 discriminator 1 view .LVU33
 156 009e 054B     		ldr	r3, .L11+8
 157 00a0 1870     		strb	r0, [r3]
  88:Drivers/MyDrivers/imu_mpu6050.c **** 
 158              		.loc 1 88 5 is_stmt 1 view .LVU34
  88:Drivers/MyDrivers/imu_mpu6050.c **** 
 159              		.loc 1 88 7 is_stmt 0 view .LVU35
 160 00a2 08B9     		cbnz	r0, .L6
  90:Drivers/MyDrivers/imu_mpu6050.c **** 
 161              		.loc 1 90 12 view .LVU36
 162 00a4 0120     		movs	r0, #1
 163 00a6 C0E7     		b	.L2
 164              	.L6:
  88:Drivers/MyDrivers/imu_mpu6050.c **** 
 165              		.loc 1 88 32 discriminator 1 view .LVU37
 166 00a8 0020     		movs	r0, #0
 167 00aa BEE7     		b	.L2
 168              	.L12:
 169              		.align	2
ARM GAS  /var/folders/5r/fplts1414czdxljy659l60kh0000gn/T//ccUBD97q.s 			page 6


 170              	.L11:
 171 00ac 00000000 		.word	imu_i2c
 172 00b0 00000000 		.word	reg_data
 173 00b4 00000000 		.word	status
 174              		.cfi_endproc
 175              	.LFE134:
 177              		.section	.text.MPU6050_Read,"ax",%progbits
 178              		.align	1
 179              		.global	MPU6050_Read
 180              		.syntax unified
 181              		.thumb
 182              		.thumb_func
 184              	MPU6050_Read:
 185              	.LVL5:
 186              	.LFB135:
  93:Drivers/MyDrivers/imu_mpu6050.c **** 
  94:Drivers/MyDrivers/imu_mpu6050.c **** bool MPU6050_Read(IMU_Data_t *data)
  95:Drivers/MyDrivers/imu_mpu6050.c **** {
 187              		.loc 1 95 1 is_stmt 1 view -0
 188              		.cfi_startproc
 189              		@ args = 0, pretend = 0, frame = 0
 190              		@ frame_needed = 0, uses_anonymous_args = 0
 191              		.loc 1 95 1 is_stmt 0 view .LVU39
 192 0000 30B5     		push	{r4, r5, lr}
 193              	.LCFI4:
 194              		.cfi_def_cfa_offset 12
 195              		.cfi_offset 4, -12
 196              		.cfi_offset 5, -8
 197              		.cfi_offset 14, -4
 198 0002 85B0     		sub	sp, sp, #20
 199              	.LCFI5:
 200              		.cfi_def_cfa_offset 32
 201 0004 0446     		mov	r4, r0
  96:Drivers/MyDrivers/imu_mpu6050.c ****     /* Read gyro data */
  97:Drivers/MyDrivers/imu_mpu6050.c ****     status = HAL_I2C_Mem_Read(imu_i2c, MPU6050_ADDRESS, GYRO_XOUT_H, I2C_MEMADD_SIZE_8BIT, &data_8,
 202              		.loc 1 97 5 is_stmt 1 view .LVU40
 203              		.loc 1 97 14 is_stmt 0 view .LVU41
 204 0006 4FF47A73 		mov	r3, #1000
 205 000a 0293     		str	r3, [sp, #8]
 206 000c 0623     		movs	r3, #6
 207 000e 0193     		str	r3, [sp, #4]
 208 0010 534B     		ldr	r3, .L21
 209 0012 0093     		str	r3, [sp]
 210 0014 0123     		movs	r3, #1
 211 0016 4322     		movs	r2, #67
 212 0018 D021     		movs	r1, #208
 213 001a 5248     		ldr	r0, .L21+4
 214              	.LVL6:
 215              		.loc 1 97 14 view .LVU42
 216 001c 0068     		ldr	r0, [r0]
 217 001e FFF7FEFF 		bl	HAL_I2C_Mem_Read
 218              	.LVL7:
 219              		.loc 1 97 12 discriminator 1 view .LVU43
 220 0022 514B     		ldr	r3, .L21+8
 221 0024 1870     		strb	r0, [r3]
  98:Drivers/MyDrivers/imu_mpu6050.c ****     if(status != HAL_OK) return(false);
 222              		.loc 1 98 5 is_stmt 1 view .LVU44
ARM GAS  /var/folders/5r/fplts1414czdxljy659l60kh0000gn/T//ccUBD97q.s 			page 7


 223              		.loc 1 98 7 is_stmt 0 view .LVU45
 224 0026 10B1     		cbz	r0, .L19
 225              		.loc 1 98 32 discriminator 1 view .LVU46
 226 0028 0020     		movs	r0, #0
 227              	.L14:
  99:Drivers/MyDrivers/imu_mpu6050.c ****     else
 100:Drivers/MyDrivers/imu_mpu6050.c ****     {
 101:Drivers/MyDrivers/imu_mpu6050.c ****         /* Combine raw values */
 102:Drivers/MyDrivers/imu_mpu6050.c ****         data_16[0] = (data_8[0] << 8 | data_8[1]); // X-axis
 103:Drivers/MyDrivers/imu_mpu6050.c ****         data_16[1] = (data_8[2] << 8 | data_8[3]); // Y-axis
 104:Drivers/MyDrivers/imu_mpu6050.c ****         data_16[2] = (data_8[4] << 8 | data_8[5]); // Z-axis
 105:Drivers/MyDrivers/imu_mpu6050.c **** 
 106:Drivers/MyDrivers/imu_mpu6050.c ****         /* Convert values to deg/s */
 107:Drivers/MyDrivers/imu_mpu6050.c ****         data->gyro[0] = RAW_TO_DEGS * data_16[0];
 108:Drivers/MyDrivers/imu_mpu6050.c ****         data->gyro[1] = RAW_TO_DEGS * data_16[1];
 109:Drivers/MyDrivers/imu_mpu6050.c ****         data->gyro[2] = RAW_TO_DEGS * data_16[2];
 110:Drivers/MyDrivers/imu_mpu6050.c ****     }
 111:Drivers/MyDrivers/imu_mpu6050.c ****     
 112:Drivers/MyDrivers/imu_mpu6050.c ****     /* Read accelerometer data */
 113:Drivers/MyDrivers/imu_mpu6050.c ****     status = HAL_I2C_Mem_Read(imu_i2c, MPU6050_ADDRESS, ACCEL_XOUT_H, I2C_MEMADD_SIZE_8BIT, &data_8
 114:Drivers/MyDrivers/imu_mpu6050.c ****     if(status != HAL_OK) return(false);
 115:Drivers/MyDrivers/imu_mpu6050.c ****     else
 116:Drivers/MyDrivers/imu_mpu6050.c ****     {
 117:Drivers/MyDrivers/imu_mpu6050.c ****         /* Combine raw values */
 118:Drivers/MyDrivers/imu_mpu6050.c ****         data_16[0] = (data_8[0] << 8 | data_8[1]); // X-axis
 119:Drivers/MyDrivers/imu_mpu6050.c ****         data_16[1] = (data_8[2] << 8 | data_8[3]); // Y-axis
 120:Drivers/MyDrivers/imu_mpu6050.c ****         data_16[2] = (data_8[4] << 8 | data_8[5]); // Z-axis
 121:Drivers/MyDrivers/imu_mpu6050.c **** 
 122:Drivers/MyDrivers/imu_mpu6050.c ****         /* Convert values to ms/2 */
 123:Drivers/MyDrivers/imu_mpu6050.c ****         data->accel[0] = RAW_TO_MS2 * data_16[0];
 124:Drivers/MyDrivers/imu_mpu6050.c ****         data->accel[1] = RAW_TO_MS2 * data_16[1];
 125:Drivers/MyDrivers/imu_mpu6050.c ****         data->accel[2] = RAW_TO_MS2 * data_16[2];
 126:Drivers/MyDrivers/imu_mpu6050.c ****     }
 127:Drivers/MyDrivers/imu_mpu6050.c **** 
 128:Drivers/MyDrivers/imu_mpu6050.c ****     /* Read temperature data */
 129:Drivers/MyDrivers/imu_mpu6050.c ****     status = HAL_I2C_Mem_Read(imu_i2c, MPU6050_ADDRESS, TEMP_OUT_H, I2C_MEMADD_SIZE_8BIT, &data_8, 
 130:Drivers/MyDrivers/imu_mpu6050.c ****     if(status != HAL_OK) return(false);
 131:Drivers/MyDrivers/imu_mpu6050.c ****     else
 132:Drivers/MyDrivers/imu_mpu6050.c ****     {
 133:Drivers/MyDrivers/imu_mpu6050.c ****         /* Combine raw values */
 134:Drivers/MyDrivers/imu_mpu6050.c ****         data_16[0] = (data_8[0] << 8 | data_8[1]);
 135:Drivers/MyDrivers/imu_mpu6050.c **** 
 136:Drivers/MyDrivers/imu_mpu6050.c ****         /* Convert value to ˚C */
 137:Drivers/MyDrivers/imu_mpu6050.c ****         data->temperature =  ((float) data_16[0] / 340) + 36.5;
 138:Drivers/MyDrivers/imu_mpu6050.c ****     }
 139:Drivers/MyDrivers/imu_mpu6050.c **** 
 140:Drivers/MyDrivers/imu_mpu6050.c ****     return true;
 141:Drivers/MyDrivers/imu_mpu6050.c **** 
 142:Drivers/MyDrivers/imu_mpu6050.c **** }...
 228              		.loc 1 142 1 view .LVU47
 229 002a 05B0     		add	sp, sp, #20
 230              	.LCFI6:
 231              		.cfi_remember_state
 232              		.cfi_def_cfa_offset 12
 233              		@ sp needed
 234 002c 30BD     		pop	{r4, r5, pc}
 235              	.LVL8:
ARM GAS  /var/folders/5r/fplts1414czdxljy659l60kh0000gn/T//ccUBD97q.s 			page 8


 236              	.L19:
 237              	.LCFI7:
 238              		.cfi_restore_state
 102:Drivers/MyDrivers/imu_mpu6050.c ****         data_16[0] = (data_8[0] << 8 | data_8[1]); // X-axis
 239              		.loc 1 102 9 is_stmt 1 view .LVU48
 102:Drivers/MyDrivers/imu_mpu6050.c ****         data_16[0] = (data_8[0] << 8 | data_8[1]); // X-axis
 240              		.loc 1 102 29 is_stmt 0 view .LVU49
 241 002e 4C48     		ldr	r0, .L21
 242 0030 0378     		ldrb	r3, [r0]	@ zero_extendqisi2
 102:Drivers/MyDrivers/imu_mpu6050.c ****         data_16[0] = (data_8[0] << 8 | data_8[1]); // X-axis
 243              		.loc 1 102 46 view .LVU50
 244 0032 4178     		ldrb	r1, [r0, #1]	@ zero_extendqisi2
 102:Drivers/MyDrivers/imu_mpu6050.c ****         data_16[0] = (data_8[0] << 8 | data_8[1]); // X-axis
 245              		.loc 1 102 38 view .LVU51
 246 0034 41EA0321 		orr	r1, r1, r3, lsl #8
 247 0038 09B2     		sxth	r1, r1
 102:Drivers/MyDrivers/imu_mpu6050.c ****         data_16[0] = (data_8[0] << 8 | data_8[1]); // X-axis
 248              		.loc 1 102 20 view .LVU52
 249 003a 4C4D     		ldr	r5, .L21+12
 250 003c 2980     		strh	r1, [r5]	@ movhi
 103:Drivers/MyDrivers/imu_mpu6050.c ****         data_16[1] = (data_8[2] << 8 | data_8[3]); // Y-axis
 251              		.loc 1 103 9 is_stmt 1 view .LVU53
 103:Drivers/MyDrivers/imu_mpu6050.c ****         data_16[1] = (data_8[2] << 8 | data_8[3]); // Y-axis
 252              		.loc 1 103 29 is_stmt 0 view .LVU54
 253 003e 8378     		ldrb	r3, [r0, #2]	@ zero_extendqisi2
 103:Drivers/MyDrivers/imu_mpu6050.c ****         data_16[1] = (data_8[2] << 8 | data_8[3]); // Y-axis
 254              		.loc 1 103 46 view .LVU55
 255 0040 C278     		ldrb	r2, [r0, #3]	@ zero_extendqisi2
 103:Drivers/MyDrivers/imu_mpu6050.c ****         data_16[1] = (data_8[2] << 8 | data_8[3]); // Y-axis
 256              		.loc 1 103 38 view .LVU56
 257 0042 42EA0322 		orr	r2, r2, r3, lsl #8
 258 0046 12B2     		sxth	r2, r2
 103:Drivers/MyDrivers/imu_mpu6050.c ****         data_16[1] = (data_8[2] << 8 | data_8[3]); // Y-axis
 259              		.loc 1 103 20 view .LVU57
 260 0048 6A80     		strh	r2, [r5, #2]	@ movhi
 104:Drivers/MyDrivers/imu_mpu6050.c ****         data_16[2] = (data_8[4] << 8 | data_8[5]); // Z-axis
 261              		.loc 1 104 9 is_stmt 1 view .LVU58
 104:Drivers/MyDrivers/imu_mpu6050.c ****         data_16[2] = (data_8[4] << 8 | data_8[5]); // Z-axis
 262              		.loc 1 104 29 is_stmt 0 view .LVU59
 263 004a 90F804C0 		ldrb	ip, [r0, #4]	@ zero_extendqisi2
 104:Drivers/MyDrivers/imu_mpu6050.c ****         data_16[2] = (data_8[4] << 8 | data_8[5]); // Z-axis
 264              		.loc 1 104 46 view .LVU60
 265 004e 4379     		ldrb	r3, [r0, #5]	@ zero_extendqisi2
 104:Drivers/MyDrivers/imu_mpu6050.c ****         data_16[2] = (data_8[4] << 8 | data_8[5]); // Z-axis
 266              		.loc 1 104 38 view .LVU61
 267 0050 43EA0C23 		orr	r3, r3, ip, lsl #8
 268 0054 1BB2     		sxth	r3, r3
 104:Drivers/MyDrivers/imu_mpu6050.c ****         data_16[2] = (data_8[4] << 8 | data_8[5]); // Z-axis
 269              		.loc 1 104 20 view .LVU62
 270 0056 AB80     		strh	r3, [r5, #4]	@ movhi
 107:Drivers/MyDrivers/imu_mpu6050.c ****         data->gyro[0] = RAW_TO_DEGS * data_16[0];
 271              		.loc 1 107 9 is_stmt 1 view .LVU63
 107:Drivers/MyDrivers/imu_mpu6050.c ****         data->gyro[0] = RAW_TO_DEGS * data_16[0];
 272              		.loc 1 107 37 is_stmt 0 view .LVU64
 273 0058 07EE901A 		vmov	s15, r1	@ int
 274 005c F8EEE77A 		vcvt.f32.s32	s15, s15
 275 0060 9FED437A 		vldr.32	s14, .L21+16
ARM GAS  /var/folders/5r/fplts1414czdxljy659l60kh0000gn/T//ccUBD97q.s 			page 9


 276 0064 67EE877A 		vmul.f32	s15, s15, s14
 107:Drivers/MyDrivers/imu_mpu6050.c ****         data->gyro[0] = RAW_TO_DEGS * data_16[0];
 277              		.loc 1 107 23 view .LVU65
 278 0068 C4ED037A 		vstr.32	s15, [r4, #12]
 108:Drivers/MyDrivers/imu_mpu6050.c ****         data->gyro[1] = RAW_TO_DEGS * data_16[1];
 279              		.loc 1 108 9 is_stmt 1 view .LVU66
 108:Drivers/MyDrivers/imu_mpu6050.c ****         data->gyro[1] = RAW_TO_DEGS * data_16[1];
 280              		.loc 1 108 37 is_stmt 0 view .LVU67
 281 006c 07EE902A 		vmov	s15, r2	@ int
 282 0070 F8EEE77A 		vcvt.f32.s32	s15, s15
 283 0074 67EE877A 		vmul.f32	s15, s15, s14
 108:Drivers/MyDrivers/imu_mpu6050.c ****         data->gyro[1] = RAW_TO_DEGS * data_16[1];
 284              		.loc 1 108 23 view .LVU68
 285 0078 C4ED047A 		vstr.32	s15, [r4, #16]
 109:Drivers/MyDrivers/imu_mpu6050.c ****         data->gyro[2] = RAW_TO_DEGS * data_16[2];
 286              		.loc 1 109 9 is_stmt 1 view .LVU69
 109:Drivers/MyDrivers/imu_mpu6050.c ****         data->gyro[2] = RAW_TO_DEGS * data_16[2];
 287              		.loc 1 109 37 is_stmt 0 view .LVU70
 288 007c 07EE903A 		vmov	s15, r3	@ int
 289 0080 F8EEE77A 		vcvt.f32.s32	s15, s15
 290 0084 67EE877A 		vmul.f32	s15, s15, s14
 109:Drivers/MyDrivers/imu_mpu6050.c ****         data->gyro[2] = RAW_TO_DEGS * data_16[2];
 291              		.loc 1 109 23 view .LVU71
 292 0088 C4ED057A 		vstr.32	s15, [r4, #20]
 113:Drivers/MyDrivers/imu_mpu6050.c ****     status = HAL_I2C_Mem_Read(imu_i2c, MPU6050_ADDRESS, ACCEL_XOUT_H, I2C_MEMADD_SIZE_8BIT, &data_8
 293              		.loc 1 113 5 is_stmt 1 view .LVU72
 113:Drivers/MyDrivers/imu_mpu6050.c ****     status = HAL_I2C_Mem_Read(imu_i2c, MPU6050_ADDRESS, ACCEL_XOUT_H, I2C_MEMADD_SIZE_8BIT, &data_8
 294              		.loc 1 113 14 is_stmt 0 view .LVU73
 295 008c 4FF47A73 		mov	r3, #1000
 296 0090 0293     		str	r3, [sp, #8]
 297 0092 0623     		movs	r3, #6
 298 0094 0193     		str	r3, [sp, #4]
 299 0096 0090     		str	r0, [sp]
 300 0098 0123     		movs	r3, #1
 301 009a 3B22     		movs	r2, #59
 302 009c D021     		movs	r1, #208
 303 009e 3148     		ldr	r0, .L21+4
 304 00a0 0068     		ldr	r0, [r0]
 305 00a2 FFF7FEFF 		bl	HAL_I2C_Mem_Read
 306              	.LVL9:
 113:Drivers/MyDrivers/imu_mpu6050.c ****     status = HAL_I2C_Mem_Read(imu_i2c, MPU6050_ADDRESS, ACCEL_XOUT_H, I2C_MEMADD_SIZE_8BIT, &data_8
 307              		.loc 1 113 12 discriminator 1 view .LVU74
 308 00a6 304B     		ldr	r3, .L21+8
 309 00a8 1870     		strb	r0, [r3]
 114:Drivers/MyDrivers/imu_mpu6050.c ****     if(status != HAL_OK) return(false);
 310              		.loc 1 114 5 is_stmt 1 view .LVU75
 114:Drivers/MyDrivers/imu_mpu6050.c ****     if(status != HAL_OK) return(false);
 311              		.loc 1 114 7 is_stmt 0 view .LVU76
 312 00aa 08B1     		cbz	r0, .L20
 114:Drivers/MyDrivers/imu_mpu6050.c ****     if(status != HAL_OK) return(false);
 313              		.loc 1 114 32 discriminator 1 view .LVU77
 314 00ac 0020     		movs	r0, #0
 315 00ae BCE7     		b	.L14
 316              	.L20:
 118:Drivers/MyDrivers/imu_mpu6050.c ****         data_16[0] = (data_8[0] << 8 | data_8[1]); // X-axis
 317              		.loc 1 118 9 is_stmt 1 view .LVU78
 118:Drivers/MyDrivers/imu_mpu6050.c ****         data_16[0] = (data_8[0] << 8 | data_8[1]); // X-axis
ARM GAS  /var/folders/5r/fplts1414czdxljy659l60kh0000gn/T//ccUBD97q.s 			page 10


 318              		.loc 1 118 29 is_stmt 0 view .LVU79
 319 00b0 2B48     		ldr	r0, .L21
 320 00b2 0378     		ldrb	r3, [r0]	@ zero_extendqisi2
 118:Drivers/MyDrivers/imu_mpu6050.c ****         data_16[0] = (data_8[0] << 8 | data_8[1]); // X-axis
 321              		.loc 1 118 46 view .LVU80
 322 00b4 4178     		ldrb	r1, [r0, #1]	@ zero_extendqisi2
 118:Drivers/MyDrivers/imu_mpu6050.c ****         data_16[0] = (data_8[0] << 8 | data_8[1]); // X-axis
 323              		.loc 1 118 38 view .LVU81
 324 00b6 41EA0321 		orr	r1, r1, r3, lsl #8
 325 00ba 09B2     		sxth	r1, r1
 118:Drivers/MyDrivers/imu_mpu6050.c ****         data_16[0] = (data_8[0] << 8 | data_8[1]); // X-axis
 326              		.loc 1 118 20 view .LVU82
 327 00bc 2980     		strh	r1, [r5]	@ movhi
 119:Drivers/MyDrivers/imu_mpu6050.c ****         data_16[1] = (data_8[2] << 8 | data_8[3]); // Y-axis
 328              		.loc 1 119 9 is_stmt 1 view .LVU83
 119:Drivers/MyDrivers/imu_mpu6050.c ****         data_16[1] = (data_8[2] << 8 | data_8[3]); // Y-axis
 329              		.loc 1 119 29 is_stmt 0 view .LVU84
 330 00be 8378     		ldrb	r3, [r0, #2]	@ zero_extendqisi2
 119:Drivers/MyDrivers/imu_mpu6050.c ****         data_16[1] = (data_8[2] << 8 | data_8[3]); // Y-axis
 331              		.loc 1 119 46 view .LVU85
 332 00c0 C278     		ldrb	r2, [r0, #3]	@ zero_extendqisi2
 119:Drivers/MyDrivers/imu_mpu6050.c ****         data_16[1] = (data_8[2] << 8 | data_8[3]); // Y-axis
 333              		.loc 1 119 38 view .LVU86
 334 00c2 42EA0322 		orr	r2, r2, r3, lsl #8
 335 00c6 12B2     		sxth	r2, r2
 119:Drivers/MyDrivers/imu_mpu6050.c ****         data_16[1] = (data_8[2] << 8 | data_8[3]); // Y-axis
 336              		.loc 1 119 20 view .LVU87
 337 00c8 6A80     		strh	r2, [r5, #2]	@ movhi
 120:Drivers/MyDrivers/imu_mpu6050.c ****         data_16[2] = (data_8[4] << 8 | data_8[5]); // Z-axis
 338              		.loc 1 120 9 is_stmt 1 view .LVU88
 120:Drivers/MyDrivers/imu_mpu6050.c ****         data_16[2] = (data_8[4] << 8 | data_8[5]); // Z-axis
 339              		.loc 1 120 29 is_stmt 0 view .LVU89
 340 00ca 90F804C0 		ldrb	ip, [r0, #4]	@ zero_extendqisi2
 120:Drivers/MyDrivers/imu_mpu6050.c ****         data_16[2] = (data_8[4] << 8 | data_8[5]); // Z-axis
 341              		.loc 1 120 46 view .LVU90
 342 00ce 4379     		ldrb	r3, [r0, #5]	@ zero_extendqisi2
 120:Drivers/MyDrivers/imu_mpu6050.c ****         data_16[2] = (data_8[4] << 8 | data_8[5]); // Z-axis
 343              		.loc 1 120 38 view .LVU91
 344 00d0 43EA0C23 		orr	r3, r3, ip, lsl #8
 345 00d4 1BB2     		sxth	r3, r3
 120:Drivers/MyDrivers/imu_mpu6050.c ****         data_16[2] = (data_8[4] << 8 | data_8[5]); // Z-axis
 346              		.loc 1 120 20 view .LVU92
 347 00d6 AB80     		strh	r3, [r5, #4]	@ movhi
 123:Drivers/MyDrivers/imu_mpu6050.c ****         data->accel[0] = RAW_TO_MS2 * data_16[0];
 348              		.loc 1 123 9 is_stmt 1 view .LVU93
 123:Drivers/MyDrivers/imu_mpu6050.c ****         data->accel[0] = RAW_TO_MS2 * data_16[0];
 349              		.loc 1 123 37 is_stmt 0 view .LVU94
 350 00d8 07EE901A 		vmov	s15, r1	@ int
 351 00dc F8EEE77A 		vcvt.f32.s32	s15, s15
 352 00e0 9FED247A 		vldr.32	s14, .L21+20
 353 00e4 67EE877A 		vmul.f32	s15, s15, s14
 123:Drivers/MyDrivers/imu_mpu6050.c ****         data->accel[0] = RAW_TO_MS2 * data_16[0];
 354              		.loc 1 123 24 view .LVU95
 355 00e8 C4ED007A 		vstr.32	s15, [r4]
 124:Drivers/MyDrivers/imu_mpu6050.c ****         data->accel[1] = RAW_TO_MS2 * data_16[1];
 356              		.loc 1 124 9 is_stmt 1 view .LVU96
 124:Drivers/MyDrivers/imu_mpu6050.c ****         data->accel[1] = RAW_TO_MS2 * data_16[1];
ARM GAS  /var/folders/5r/fplts1414czdxljy659l60kh0000gn/T//ccUBD97q.s 			page 11


 357              		.loc 1 124 37 is_stmt 0 view .LVU97
 358 00ec 07EE902A 		vmov	s15, r2	@ int
 359 00f0 F8EEE77A 		vcvt.f32.s32	s15, s15
 360 00f4 67EE877A 		vmul.f32	s15, s15, s14
 124:Drivers/MyDrivers/imu_mpu6050.c ****         data->accel[1] = RAW_TO_MS2 * data_16[1];
 361              		.loc 1 124 24 view .LVU98
 362 00f8 C4ED017A 		vstr.32	s15, [r4, #4]
 125:Drivers/MyDrivers/imu_mpu6050.c ****         data->accel[2] = RAW_TO_MS2 * data_16[2];
 363              		.loc 1 125 9 is_stmt 1 view .LVU99
 125:Drivers/MyDrivers/imu_mpu6050.c ****         data->accel[2] = RAW_TO_MS2 * data_16[2];
 364              		.loc 1 125 37 is_stmt 0 view .LVU100
 365 00fc 07EE903A 		vmov	s15, r3	@ int
 366 0100 F8EEE77A 		vcvt.f32.s32	s15, s15
 367 0104 67EE877A 		vmul.f32	s15, s15, s14
 125:Drivers/MyDrivers/imu_mpu6050.c ****         data->accel[2] = RAW_TO_MS2 * data_16[2];
 368              		.loc 1 125 24 view .LVU101
 369 0108 C4ED027A 		vstr.32	s15, [r4, #8]
 129:Drivers/MyDrivers/imu_mpu6050.c ****     status = HAL_I2C_Mem_Read(imu_i2c, MPU6050_ADDRESS, TEMP_OUT_H, I2C_MEMADD_SIZE_8BIT, &data_8, 
 370              		.loc 1 129 5 is_stmt 1 view .LVU102
 129:Drivers/MyDrivers/imu_mpu6050.c ****     status = HAL_I2C_Mem_Read(imu_i2c, MPU6050_ADDRESS, TEMP_OUT_H, I2C_MEMADD_SIZE_8BIT, &data_8, 
 371              		.loc 1 129 14 is_stmt 0 view .LVU103
 372 010c 4FF47A73 		mov	r3, #1000
 373 0110 0293     		str	r3, [sp, #8]
 374 0112 0223     		movs	r3, #2
 375 0114 0193     		str	r3, [sp, #4]
 376 0116 0090     		str	r0, [sp]
 377 0118 0123     		movs	r3, #1
 378 011a 4122     		movs	r2, #65
 379 011c D021     		movs	r1, #208
 380 011e 1148     		ldr	r0, .L21+4
 381 0120 0068     		ldr	r0, [r0]
 382 0122 FFF7FEFF 		bl	HAL_I2C_Mem_Read
 383              	.LVL10:
 129:Drivers/MyDrivers/imu_mpu6050.c ****     status = HAL_I2C_Mem_Read(imu_i2c, MPU6050_ADDRESS, TEMP_OUT_H, I2C_MEMADD_SIZE_8BIT, &data_8, 
 384              		.loc 1 129 12 discriminator 1 view .LVU104
 385 0126 104B     		ldr	r3, .L21+8
 386 0128 1870     		strb	r0, [r3]
 130:Drivers/MyDrivers/imu_mpu6050.c ****     if(status != HAL_OK) return(false);
 387              		.loc 1 130 5 is_stmt 1 view .LVU105
 130:Drivers/MyDrivers/imu_mpu6050.c ****     if(status != HAL_OK) return(false);
 388              		.loc 1 130 7 is_stmt 0 view .LVU106
 389 012a B0B9     		cbnz	r0, .L17
 134:Drivers/MyDrivers/imu_mpu6050.c ****         data_16[0] = (data_8[0] << 8 | data_8[1]);
 390              		.loc 1 134 9 is_stmt 1 view .LVU107
 134:Drivers/MyDrivers/imu_mpu6050.c ****         data_16[0] = (data_8[0] << 8 | data_8[1]);
 391              		.loc 1 134 29 is_stmt 0 view .LVU108
 392 012c 0C4B     		ldr	r3, .L21
 393 012e 1A78     		ldrb	r2, [r3]	@ zero_extendqisi2
 134:Drivers/MyDrivers/imu_mpu6050.c ****         data_16[0] = (data_8[0] << 8 | data_8[1]);
 394              		.loc 1 134 46 view .LVU109
 395 0130 5B78     		ldrb	r3, [r3, #1]	@ zero_extendqisi2
 134:Drivers/MyDrivers/imu_mpu6050.c ****         data_16[0] = (data_8[0] << 8 | data_8[1]);
 396              		.loc 1 134 38 view .LVU110
 397 0132 43EA0223 		orr	r3, r3, r2, lsl #8
 398 0136 1BB2     		sxth	r3, r3
 134:Drivers/MyDrivers/imu_mpu6050.c ****         data_16[0] = (data_8[0] << 8 | data_8[1]);
 399              		.loc 1 134 20 view .LVU111
ARM GAS  /var/folders/5r/fplts1414czdxljy659l60kh0000gn/T//ccUBD97q.s 			page 12


 400 0138 2B80     		strh	r3, [r5]	@ movhi
 137:Drivers/MyDrivers/imu_mpu6050.c ****         data->temperature =  ((float) data_16[0] / 340) + 36.5;
 401              		.loc 1 137 9 is_stmt 1 view .LVU112
 137:Drivers/MyDrivers/imu_mpu6050.c ****         data->temperature =  ((float) data_16[0] / 340) + 36.5;
 402              		.loc 1 137 31 is_stmt 0 view .LVU113
 403 013a 07EE903A 		vmov	s15, r3	@ int
 404 013e F8EEE77A 		vcvt.f32.s32	s15, s15
 137:Drivers/MyDrivers/imu_mpu6050.c ****         data->temperature =  ((float) data_16[0] / 340) + 36.5;
 405              		.loc 1 137 50 view .LVU114
 406 0142 DFED0D6A 		vldr.32	s13, .L21+24
 407 0146 87EEA67A 		vdiv.f32	s14, s15, s13
 137:Drivers/MyDrivers/imu_mpu6050.c ****         data->temperature =  ((float) data_16[0] / 340) + 36.5;
 408              		.loc 1 137 57 view .LVU115
 409 014a DFED0C7A 		vldr.32	s15, .L21+28
 410 014e 77EE277A 		vadd.f32	s15, s14, s15
 137:Drivers/MyDrivers/imu_mpu6050.c ****         data->temperature =  ((float) data_16[0] / 340) + 36.5;
 411              		.loc 1 137 27 view .LVU116
 412 0152 C4ED097A 		vstr.32	s15, [r4, #36]
 140:Drivers/MyDrivers/imu_mpu6050.c ****     return true;
 413              		.loc 1 140 5 is_stmt 1 view .LVU117
 140:Drivers/MyDrivers/imu_mpu6050.c ****     return true;
 414              		.loc 1 140 12 is_stmt 0 view .LVU118
 415 0156 0120     		movs	r0, #1
 416 0158 67E7     		b	.L14
 417              	.L17:
 130:Drivers/MyDrivers/imu_mpu6050.c ****     if(status != HAL_OK) return(false);
 418              		.loc 1 130 32 discriminator 1 view .LVU119
 419 015a 0020     		movs	r0, #0
 420 015c 65E7     		b	.L14
 421              	.L22:
 422 015e 00BF     		.align	2
 423              	.L21:
 424 0160 00000000 		.word	data_8
 425 0164 00000000 		.word	imu_i2c
 426 0168 00000000 		.word	status
 427 016c 00000000 		.word	data_16
 428 0170 2D237A3C 		.word	1014637357
 429 0174 0AE81C3B 		.word	991750154
 430 0178 0000AA43 		.word	1135214592
 431 017c 00001242 		.word	1108475904
 432              		.cfi_endproc
 433              	.LFE135:
 435              		.section	.bss.data_16,"aw",%nobits
 436              		.align	2
 439              	data_16:
 440 0000 00000000 		.space	6
 440      0000
 441              		.section	.bss.data_8,"aw",%nobits
 442              		.align	2
 445              	data_8:
 446 0000 00000000 		.space	6
 446      0000
 447              		.section	.bss.status,"aw",%nobits
 450              	status:
 451 0000 00       		.space	1
 452              		.section	.bss.reg_data,"aw",%nobits
 455              	reg_data:
ARM GAS  /var/folders/5r/fplts1414czdxljy659l60kh0000gn/T//ccUBD97q.s 			page 13


 456 0000 00       		.space	1
 457              		.section	.bss.imu_i2c,"aw",%nobits
 458              		.align	2
 461              	imu_i2c:
 462 0000 00000000 		.space	4
 463              		.text
 464              	.Letext0:
 465              		.file 2 "/Applications/ArmGNUToolchain/13.2.Rel1/arm-none-eabi/arm-none-eabi/include/machine/_defa
 466              		.file 3 "/Applications/ArmGNUToolchain/13.2.Rel1/arm-none-eabi/arm-none-eabi/include/sys/_stdint.h
 467              		.file 4 "App/Config/sensor_types.h"
 468              		.file 5 "Drivers/CMSIS/Device/ST/STM32F4xx/Include/stm32f411xe.h"
 469              		.file 6 "Drivers/STM32F4xx_HAL_Driver/Inc/stm32f4xx_hal_def.h"
 470              		.file 7 "Drivers/STM32F4xx_HAL_Driver/Inc/stm32f4xx_hal_dma.h"
 471              		.file 8 "Drivers/STM32F4xx_HAL_Driver/Inc/stm32f4xx_hal_i2c.h"
ARM GAS  /var/folders/5r/fplts1414czdxljy659l60kh0000gn/T//ccUBD97q.s 			page 14

