ARM GAS  /var/folders/5r/fplts1414czdxljy659l60kh0000gn/T//ccRFI7yO.s 			page 1


   1              		.cpu cortex-m4
   2              		.arch armv7e-m
   3              		.fpu fpv4-sp-d16
   4              		.eabi_attribute 27, 1
   5              		.eabi_attribute 28, 1
   6              		.eabi_attribute 20, 1
   7              		.eabi_attribute 21, 1
   8              		.eabi_attribute 23, 3
   9              		.eabi_attribute 24, 1
  10              		.eabi_attribute 25, 1
  11              		.eabi_attribute 26, 1
  12              		.eabi_attribute 30, 1
  13              		.eabi_attribute 34, 1
  14              		.eabi_attribute 18, 4
  15              		.file	"SensorTask.c"
  16              		.text
  17              	.Ltext0:
  18              		.cfi_sections	.debug_frame
  19              		.file 1 "App/Tasks/SensorTask.c"
  20              		.section	.text.SensorTask_Run,"ax",%progbits
  21              		.align	1
  22              		.global	SensorTask_Run
  23              		.syntax unified
  24              		.thumb
  25              		.thumb_func
  27              	SensorTask_Run:
  28              	.LFB746:
   1:App/Tasks/SensorTask.c **** /**
   2:App/Tasks/SensorTask.c ****  * @file SensorTask.c
   3:App/Tasks/SensorTask.c ****  * @author Jesutofunmi Kupoluyi (jimsufficiency@gmail.com)
   4:App/Tasks/SensorTask.c ****  * @brief 
   5:App/Tasks/SensorTask.c ****  * @version 0.1
   6:App/Tasks/SensorTask.c ****  * @date 2025-05-25
   7:App/Tasks/SensorTask.c ****  * 
   8:App/Tasks/SensorTask.c ****  * @copyright Copyright (c) 2025
   9:App/Tasks/SensorTask.c ****  * 
  10:App/Tasks/SensorTask.c ****  */
  11:App/Tasks/SensorTask.c **** 
  12:App/Tasks/SensorTask.c **** #include "SensorTask.h"
  13:App/Tasks/SensorTask.c **** #include "imu_mpu6050.h"
  14:App/Tasks/SensorTask.c **** #include "main.h"
  15:App/Tasks/SensorTask.c **** #include "i2c.h"
  16:App/Tasks/SensorTask.c **** 
  17:App/Tasks/SensorTask.c **** #define IMU_QUEUE_LENGTH 10
  18:App/Tasks/SensorTask.c **** 
  19:App/Tasks/SensorTask.c **** /* Task prototype */
  20:App/Tasks/SensorTask.c **** void SensorTask_Run(void *arg);
  21:App/Tasks/SensorTask.c **** 
  22:App/Tasks/SensorTask.c **** /* Task Configuration */
  23:App/Tasks/SensorTask.c **** osThreadDef(SensorTask, SensorTask_Run, osPriorityNormal, 0, 256);
  24:App/Tasks/SensorTask.c **** 
  25:App/Tasks/SensorTask.c **** /* Task Variables */
  26:App/Tasks/SensorTask.c **** static osThreadId SensorTaskHandle;
  27:App/Tasks/SensorTask.c **** static SemaphoreHandle_t imuMutex;
  28:App/Tasks/SensorTask.c **** static IMU_Data_t imu_data;
  29:App/Tasks/SensorTask.c **** 
  30:App/Tasks/SensorTask.c **** void SensorTask_Init(void)
ARM GAS  /var/folders/5r/fplts1414czdxljy659l60kh0000gn/T//ccRFI7yO.s 			page 2


  31:App/Tasks/SensorTask.c **** {
  32:App/Tasks/SensorTask.c ****     /* Initialise MPU6050 */
  33:App/Tasks/SensorTask.c ****     MPU6050_Init(&hi2c1);
  34:App/Tasks/SensorTask.c **** 
  35:App/Tasks/SensorTask.c ****     /* Create task */
  36:App/Tasks/SensorTask.c ****     SensorTaskHandle = osThreadCreate(osThread(SensorTask), NULL);
  37:App/Tasks/SensorTask.c **** 
  38:App/Tasks/SensorTask.c ****     /* Create mutex */
  39:App/Tasks/SensorTask.c ****     imuMutex = xSemaphoreCreateMutex();
  40:App/Tasks/SensorTask.c ****     
  41:App/Tasks/SensorTask.c **** }
  42:App/Tasks/SensorTask.c **** 
  43:App/Tasks/SensorTask.c **** void SensorTask_Run(void *arg)
  44:App/Tasks/SensorTask.c **** {
  29              		.loc 1 44 1 view -0
  30              		.cfi_startproc
  31              		@ Volatile: function does not return.
  32              		@ args = 0, pretend = 0, frame = 48
  33              		@ frame_needed = 0, uses_anonymous_args = 0
  34              	.LVL0:
  35              		.loc 1 44 1 is_stmt 0 view .LVU1
  36 0000 00B5     		push	{lr}
  37              	.LCFI0:
  38              		.cfi_def_cfa_offset 4
  39              		.cfi_offset 14, -4
  40 0002 8DB0     		sub	sp, sp, #52
  41              	.LCFI1:
  42              		.cfi_def_cfa_offset 56
  43 0004 23E0     		b	.L3
  44              	.LVL1:
  45              	.L5:
  45:App/Tasks/SensorTask.c ****     IMU_Data_t imu;
  46:App/Tasks/SensorTask.c **** 
  47:App/Tasks/SensorTask.c ****     while (1)
  48:App/Tasks/SensorTask.c ****     {
  49:App/Tasks/SensorTask.c ****         if(MPU6050_Read(&imu))
  50:App/Tasks/SensorTask.c ****         {
  51:App/Tasks/SensorTask.c ****             xSemaphoreTake(imuMutex, portMAX_DELAY);
  46              		.loc 1 51 13 is_stmt 1 view .LVU2
  47 0006 154D     		ldr	r5, .L6
  48 0008 4FF0FF31 		mov	r1, #-1
  49 000c 2868     		ldr	r0, [r5]
  50 000e FFF7FEFF 		bl	xQueueSemaphoreTake
  51              	.LVL2:
  52:App/Tasks/SensorTask.c ****             imu_data = imu;
  52              		.loc 1 52 13 view .LVU3
  53              		.loc 1 52 22 is_stmt 0 view .LVU4
  54 0012 134C     		ldr	r4, .L6+4
  55 0014 A446     		mov	ip, r4
  56 0016 0DF1040E 		add	lr, sp, #4
  57 001a BEE80F00 		ldmia	lr!, {r0, r1, r2, r3}
  58 001e ACE80F00 		stmia	ip!, {r0, r1, r2, r3}
  59 0022 BEE80F00 		ldmia	lr!, {r0, r1, r2, r3}
  60 0026 ACE80F00 		stmia	ip!, {r0, r1, r2, r3}
  61 002a 9EE80700 		ldm	lr, {r0, r1, r2}
  62 002e 8CE80700 		stm	ip, {r0, r1, r2}
  53:App/Tasks/SensorTask.c ****             imu_data.has_mag = false;
ARM GAS  /var/folders/5r/fplts1414czdxljy659l60kh0000gn/T//ccRFI7yO.s 			page 3


  63              		.loc 1 53 13 is_stmt 1 view .LVU5
  64              		.loc 1 53 30 is_stmt 0 view .LVU6
  65 0032 0021     		movs	r1, #0
  66 0034 84F82810 		strb	r1, [r4, #40]
  54:App/Tasks/SensorTask.c ****             imu_data.has_temp = true;
  67              		.loc 1 54 13 is_stmt 1 view .LVU7
  68              		.loc 1 54 31 is_stmt 0 view .LVU8
  69 0038 0123     		movs	r3, #1
  70 003a 84F82930 		strb	r3, [r4, #41]
  55:App/Tasks/SensorTask.c ****             xSemaphoreGive(imuMutex);
  71              		.loc 1 55 13 is_stmt 1 view .LVU9
  72 003e 0B46     		mov	r3, r1
  73 0040 0A46     		mov	r2, r1
  74 0042 2868     		ldr	r0, [r5]
  75 0044 FFF7FEFF 		bl	xQueueGenericSend
  76              	.LVL3:
  77              	.L2:
  56:App/Tasks/SensorTask.c ****         }
  57:App/Tasks/SensorTask.c **** 
  58:App/Tasks/SensorTask.c ****         osDelay(10);
  78              		.loc 1 58 9 view .LVU10
  79 0048 0A20     		movs	r0, #10
  80 004a FFF7FEFF 		bl	osDelay
  81              	.LVL4:
  47:App/Tasks/SensorTask.c ****     {
  82              		.loc 1 47 11 view .LVU11
  83              	.L3:
  45:App/Tasks/SensorTask.c **** 
  84              		.loc 1 45 5 view .LVU12
  47:App/Tasks/SensorTask.c ****     {
  85              		.loc 1 47 5 view .LVU13
  49:App/Tasks/SensorTask.c ****         {
  86              		.loc 1 49 9 view .LVU14
  49:App/Tasks/SensorTask.c ****         {
  87              		.loc 1 49 12 is_stmt 0 view .LVU15
  88 004e 01A8     		add	r0, sp, #4
  89 0050 FFF7FEFF 		bl	MPU6050_Read
  90              	.LVL5:
  49:App/Tasks/SensorTask.c ****         {
  91              		.loc 1 49 11 discriminator 1 view .LVU16
  92 0054 0028     		cmp	r0, #0
  93 0056 D6D1     		bne	.L5
  94 0058 F6E7     		b	.L2
  95              	.L7:
  96 005a 00BF     		.align	2
  97              	.L6:
  98 005c 00000000 		.word	imuMutex
  99 0060 00000000 		.word	imu_data
 100              		.cfi_endproc
 101              	.LFE746:
 103              		.section	.text.SensorTask_Init,"ax",%progbits
 104              		.align	1
 105              		.global	SensorTask_Init
 106              		.syntax unified
 107              		.thumb
 108              		.thumb_func
 110              	SensorTask_Init:
ARM GAS  /var/folders/5r/fplts1414czdxljy659l60kh0000gn/T//ccRFI7yO.s 			page 4


 111              	.LFB745:
  31:App/Tasks/SensorTask.c ****     /* Initialise MPU6050 */
 112              		.loc 1 31 1 is_stmt 1 view -0
 113              		.cfi_startproc
 114              		@ args = 0, pretend = 0, frame = 0
 115              		@ frame_needed = 0, uses_anonymous_args = 0
 116 0000 08B5     		push	{r3, lr}
 117              	.LCFI2:
 118              		.cfi_def_cfa_offset 8
 119              		.cfi_offset 3, -8
 120              		.cfi_offset 14, -4
  33:App/Tasks/SensorTask.c **** 
 121              		.loc 1 33 5 view .LVU18
 122 0002 0748     		ldr	r0, .L10
 123 0004 FFF7FEFF 		bl	MPU6050_Init
 124              	.LVL6:
  36:App/Tasks/SensorTask.c **** 
 125              		.loc 1 36 5 view .LVU19
  36:App/Tasks/SensorTask.c **** 
 126              		.loc 1 36 24 is_stmt 0 view .LVU20
 127 0008 0021     		movs	r1, #0
 128 000a 0648     		ldr	r0, .L10+4
 129 000c FFF7FEFF 		bl	osThreadCreate
 130              	.LVL7:
  36:App/Tasks/SensorTask.c **** 
 131              		.loc 1 36 22 discriminator 1 view .LVU21
 132 0010 054B     		ldr	r3, .L10+8
 133 0012 1860     		str	r0, [r3]
  39:App/Tasks/SensorTask.c ****     
 134              		.loc 1 39 5 is_stmt 1 view .LVU22
  39:App/Tasks/SensorTask.c ****     
 135              		.loc 1 39 16 is_stmt 0 view .LVU23
 136 0014 0120     		movs	r0, #1
 137 0016 FFF7FEFF 		bl	xQueueCreateMutex
 138              	.LVL8:
  39:App/Tasks/SensorTask.c ****     
 139              		.loc 1 39 14 discriminator 1 view .LVU24
 140 001a 044B     		ldr	r3, .L10+12
 141 001c 1860     		str	r0, [r3]
  41:App/Tasks/SensorTask.c **** 
 142              		.loc 1 41 1 view .LVU25
 143 001e 08BD     		pop	{r3, pc}
 144              	.L11:
 145              		.align	2
 146              	.L10:
 147 0020 00000000 		.word	hi2c1
 148 0024 00000000 		.word	os_thread_def_SensorTask
 149 0028 00000000 		.word	SensorTaskHandle
 150 002c 00000000 		.word	imuMutex
 151              		.cfi_endproc
 152              	.LFE745:
 154              		.section	.text.SensorTask_GetIMU,"ax",%progbits
 155              		.align	1
 156              		.global	SensorTask_GetIMU
 157              		.syntax unified
 158              		.thumb
 159              		.thumb_func
ARM GAS  /var/folders/5r/fplts1414czdxljy659l60kh0000gn/T//ccRFI7yO.s 			page 5


 161              	SensorTask_GetIMU:
 162              	.LVL9:
 163              	.LFB747:
  59:App/Tasks/SensorTask.c ****     }
  60:App/Tasks/SensorTask.c ****     
  61:App/Tasks/SensorTask.c **** }
  62:App/Tasks/SensorTask.c **** 
  63:App/Tasks/SensorTask.c **** void SensorTask_GetIMU(IMU_Data_t *imu_out)
  64:App/Tasks/SensorTask.c **** {
 164              		.loc 1 64 1 is_stmt 1 view -0
 165              		.cfi_startproc
 166              		@ args = 0, pretend = 0, frame = 0
 167              		@ frame_needed = 0, uses_anonymous_args = 0
 168              		.loc 1 64 1 is_stmt 0 view .LVU27
 169 0000 10B5     		push	{r4, lr}
 170              	.LCFI3:
 171              		.cfi_def_cfa_offset 8
 172              		.cfi_offset 4, -8
 173              		.cfi_offset 14, -4
 174 0002 0446     		mov	r4, r0
  65:App/Tasks/SensorTask.c ****     if (xSemaphoreTake(imuMutex, portMAX_DELAY)) {
 175              		.loc 1 65 5 is_stmt 1 view .LVU28
 176              		.loc 1 65 9 is_stmt 0 view .LVU29
 177 0004 4FF0FF31 		mov	r1, #-1
 178 0008 0C4B     		ldr	r3, .L16
 179 000a 1868     		ldr	r0, [r3]
 180              	.LVL10:
 181              		.loc 1 65 9 view .LVU30
 182 000c FFF7FEFF 		bl	xQueueSemaphoreTake
 183              	.LVL11:
 184              		.loc 1 65 8 discriminator 1 view .LVU31
 185 0010 00B9     		cbnz	r0, .L15
 186              	.LVL12:
 187              	.L12:
  66:App/Tasks/SensorTask.c ****         *imu_out = imu_data;
  67:App/Tasks/SensorTask.c ****         xSemaphoreGive(imuMutex);
  68:App/Tasks/SensorTask.c ****     }
  69:App/Tasks/SensorTask.c **** }
 188              		.loc 1 69 1 view .LVU32
 189 0012 10BD     		pop	{r4, pc}
 190              	.LVL13:
 191              	.L15:
  66:App/Tasks/SensorTask.c ****         *imu_out = imu_data;
 192              		.loc 1 66 9 is_stmt 1 view .LVU33
  66:App/Tasks/SensorTask.c ****         *imu_out = imu_data;
 193              		.loc 1 66 18 is_stmt 0 view .LVU34
 194 0014 A446     		mov	ip, r4
 195 0016 0A4C     		ldr	r4, .L16+4
 196              	.LVL14:
  66:App/Tasks/SensorTask.c ****         *imu_out = imu_data;
 197              		.loc 1 66 18 view .LVU35
 198 0018 0FCC     		ldmia	r4!, {r0, r1, r2, r3}
 199 001a ACE80F00 		stmia	ip!, {r0, r1, r2, r3}
 200              	.LVL15:
  66:App/Tasks/SensorTask.c ****         *imu_out = imu_data;
 201              		.loc 1 66 18 view .LVU36
 202 001e 0FCC     		ldmia	r4!, {r0, r1, r2, r3}
ARM GAS  /var/folders/5r/fplts1414czdxljy659l60kh0000gn/T//ccRFI7yO.s 			page 6


 203 0020 ACE80F00 		stmia	ip!, {r0, r1, r2, r3}
 204              	.LVL16:
  66:App/Tasks/SensorTask.c ****         *imu_out = imu_data;
 205              		.loc 1 66 18 view .LVU37
 206 0024 94E80700 		ldm	r4, {r0, r1, r2}
 207 0028 8CE80700 		stm	ip, {r0, r1, r2}
  67:App/Tasks/SensorTask.c ****     }
 208              		.loc 1 67 9 is_stmt 1 view .LVU38
 209 002c 0023     		movs	r3, #0
 210 002e 1A46     		mov	r2, r3
 211 0030 1946     		mov	r1, r3
 212 0032 0248     		ldr	r0, .L16
 213 0034 0068     		ldr	r0, [r0]
 214 0036 FFF7FEFF 		bl	xQueueGenericSend
 215              	.LVL17:
 216              		.loc 1 69 1 is_stmt 0 view .LVU39
 217 003a EAE7     		b	.L12
 218              	.L17:
 219              		.align	2
 220              	.L16:
 221 003c 00000000 		.word	imuMutex
 222 0040 00000000 		.word	imu_data
 223              		.cfi_endproc
 224              	.LFE747:
 226              		.section	.bss.imu_data,"aw",%nobits
 227              		.align	2
 230              	imu_data:
 231 0000 00000000 		.space	44
 231      00000000 
 231      00000000 
 231      00000000 
 231      00000000 
 232              		.section	.bss.imuMutex,"aw",%nobits
 233              		.align	2
 236              	imuMutex:
 237 0000 00000000 		.space	4
 238              		.section	.bss.SensorTaskHandle,"aw",%nobits
 239              		.align	2
 242              	SensorTaskHandle:
 243 0000 00000000 		.space	4
 244              		.global	os_thread_def_SensorTask
 245              		.section	.rodata.str1.4,"aMS",%progbits,1
 246              		.align	2
 247              	.LC0:
 248 0000 53656E73 		.ascii	"SensorTask\000"
 248      6F725461 
 248      736B00
 249              		.section	.rodata.os_thread_def_SensorTask,"a"
 250              		.align	2
 253              	os_thread_def_SensorTask:
 254 0000 00000000 		.word	.LC0
 255 0004 00000000 		.word	SensorTask_Run
 256 0008 0000     		.short	0
 257 000a 0000     		.space	2
 258 000c 00000000 		.word	0
 259 0010 00010000 		.word	256
 260 0014 00000000 		.word	0
ARM GAS  /var/folders/5r/fplts1414czdxljy659l60kh0000gn/T//ccRFI7yO.s 			page 7


 261 0018 00000000 		.word	0
 262              		.text
 263              	.Letext0:
 264              		.file 2 "App/Config/sensor_types.h"
 265              		.file 3 "/Applications/ArmGNUToolchain/13.2.Rel1/arm-none-eabi/arm-none-eabi/include/machine/_defa
 266              		.file 4 "/Applications/ArmGNUToolchain/13.2.Rel1/arm-none-eabi/arm-none-eabi/include/sys/_stdint.h
 267              		.file 5 "Middlewares/Third_Party/FreeRTOS/Source/portable/GCC/ARM_CM4F/portmacro.h"
 268              		.file 6 "/Applications/ArmGNUToolchain/13.2.Rel1/arm-none-eabi/lib/gcc/arm-none-eabi/13.2.1/includ
 269              		.file 7 "/Applications/ArmGNUToolchain/13.2.Rel1/arm-none-eabi/arm-none-eabi/include/sys/_types.h"
 270              		.file 8 "/Applications/ArmGNUToolchain/13.2.Rel1/arm-none-eabi/arm-none-eabi/include/sys/reent.h"
 271              		.file 9 "/Applications/ArmGNUToolchain/13.2.Rel1/arm-none-eabi/arm-none-eabi/include/sys/lock.h"
 272              		.file 10 "Middlewares/Third_Party/FreeRTOS/Source/include/FreeRTOS.h"
 273              		.file 11 "Middlewares/Third_Party/FreeRTOS/Source/include/task.h"
 274              		.file 12 "Middlewares/Third_Party/FreeRTOS/Source/include/queue.h"
 275              		.file 13 "Middlewares/Third_Party/FreeRTOS/Source/include/semphr.h"
 276              		.file 14 "Middlewares/Third_Party/FreeRTOS/Source/CMSIS_RTOS/cmsis_os.h"
 277              		.file 15 "Drivers/CMSIS/Device/ST/STM32F4xx/Include/stm32f411xe.h"
 278              		.file 16 "Drivers/STM32F4xx_HAL_Driver/Inc/stm32f4xx_hal_def.h"
 279              		.file 17 "Drivers/STM32F4xx_HAL_Driver/Inc/stm32f4xx_hal_dma.h"
 280              		.file 18 "Drivers/STM32F4xx_HAL_Driver/Inc/stm32f4xx_hal_i2c.h"
 281              		.file 19 "Drivers/STM32F4xx_HAL_Driver/Inc/stm32f4xx_ll_tim.h"
 282              		.file 20 "Drivers/STM32F4xx_HAL_Driver/Inc/stm32f4xx_ll_dma.h"
 283              		.file 21 "Core/Inc/i2c.h"
 284              		.file 22 "Drivers/MyDrivers/imu_mpu6050.h"
ARM GAS  /var/folders/5r/fplts1414czdxljy659l60kh0000gn/T//ccRFI7yO.s 			page 8

